ARM GAS  C:\Users\Zachary\AppData\Local\Temp\ccmvMQUz.s 			page 1


   1              		.cpu cortex-m0
   2              		.fpu softvfp
   3              		.eabi_attribute 20, 1
   4              		.eabi_attribute 21, 1
   5              		.eabi_attribute 23, 3
   6              		.eabi_attribute 24, 1
   7              		.eabi_attribute 25, 1
   8              		.eabi_attribute 26, 1
   9              		.eabi_attribute 30, 6
  10              		.eabi_attribute 34, 0
  11              		.eabi_attribute 18, 4
  12              		.code	16
  13              		.file	"BLE_eventHandler.c"
  14              		.text
  15              	.Ltext0:
  16              		.cfi_sections	.debug_frame
  17              		.comm	cyBle_connHandle,2,4
  18              		.comm	cyBle_eventHandlerFlag,1,1
  19              		.comm	cyBle_busyStatus,1,1
  20              		.comm	cyBle_scanningIntervalType,1,1
  21              		.comm	cyBle_disCount,1,1
  22              		.bss
  23              		.align	1
  24              	cyBle_charEndHandle:
  25 0000 0000     		.space	2
  26              		.global	cyBle_serverInfo
  27              		.data
  28              		.align	2
  29              		.type	cyBle_serverInfo, %object
  30              		.size	cyBle_serverInfo, 18
  31              	cyBle_serverInfo:
  32 0000 0000     		.short	0
  33 0002 0000     		.short	0
  34 0004 0018     		.short	6144
  35 0006 0000     		.short	0
  36 0008 0000     		.short	0
  37 000a 0118     		.short	6145
  38 000c 0000     		.short	0
  39 000e 0000     		.short	0
  40 0010 0218     		.short	6146
  41              		.comm	cyBle_gapc,10,4
  42              		.global	cyBle_authInfo
  43 0012 0000     		.align	2
  44              		.type	cyBle_authInfo, %object
  45              		.size	cyBle_authInfo, 4
  46              	cyBle_authInfo:
  47 0014 10       		.byte	16
  48 0015 00       		.byte	0
  49 0016 10       		.byte	16
  50 0017 00       		.byte	0
  51              		.section	.text.CyBle_GattcWriteResponseEventHandler,"ax",%progbits
  52              		.align	2
  53              		.code	16
  54              		.thumb_func
  55              		.type	CyBle_GattcWriteResponseEventHandler, %function
  56              	CyBle_GattcWriteResponseEventHandler:
  57              	.LFB2:
ARM GAS  C:\Users\Zachary\AppData\Local\Temp\ccmvMQUz.s 			page 2


  58              		.file 1 ".\\Generated_Source\\PSoC4\\BLE_eventHandler.c"
   1:.\Generated_Source\PSoC4/BLE_eventHandler.c **** /*******************************************************************************
   2:.\Generated_Source\PSoC4/BLE_eventHandler.c **** File Name: CYBLE_eventHandler.c
   3:.\Generated_Source\PSoC4/BLE_eventHandler.c **** Version 1.20
   4:.\Generated_Source\PSoC4/BLE_eventHandler.c **** 
   5:.\Generated_Source\PSoC4/BLE_eventHandler.c **** Description:
   6:.\Generated_Source\PSoC4/BLE_eventHandler.c ****  This file contains the source code for the Event Handler State Machine
   7:.\Generated_Source\PSoC4/BLE_eventHandler.c ****  of the BLE Component.
   8:.\Generated_Source\PSoC4/BLE_eventHandler.c **** 
   9:.\Generated_Source\PSoC4/BLE_eventHandler.c **** ********************************************************************************
  10:.\Generated_Source\PSoC4/BLE_eventHandler.c **** Copyright 2014-2015, Cypress Semiconductor Corporation.  All rights reserved.
  11:.\Generated_Source\PSoC4/BLE_eventHandler.c **** You may use this file only in accordance with the license, terms, conditions,
  12:.\Generated_Source\PSoC4/BLE_eventHandler.c **** disclaimers, and limitations in the end user license agreement accompanying
  13:.\Generated_Source\PSoC4/BLE_eventHandler.c **** the software package with which this file was provided.
  14:.\Generated_Source\PSoC4/BLE_eventHandler.c **** *******************************************************************************/
  15:.\Generated_Source\PSoC4/BLE_eventHandler.c **** 
  16:.\Generated_Source\PSoC4/BLE_eventHandler.c **** #include "BLE_eventHandler.h"
  17:.\Generated_Source\PSoC4/BLE_eventHandler.c **** 
  18:.\Generated_Source\PSoC4/BLE_eventHandler.c **** 
  19:.\Generated_Source\PSoC4/BLE_eventHandler.c **** /***************************************
  20:.\Generated_Source\PSoC4/BLE_eventHandler.c **** ##Private Function Prototypes
  21:.\Generated_Source\PSoC4/BLE_eventHandler.c **** ***************************************/
  22:.\Generated_Source\PSoC4/BLE_eventHandler.c **** 
  23:.\Generated_Source\PSoC4/BLE_eventHandler.c **** #if (CYBLE_GATT_ROLE_SERVER || CYBLE_GATT_ROLE_CLIENT)
  24:.\Generated_Source\PSoC4/BLE_eventHandler.c **** 
  25:.\Generated_Source\PSoC4/BLE_eventHandler.c **** static uint8 CyBle_IsDeviceAddressValid(const CYBLE_GAP_BD_ADDR_T *sflashDeviceAddress);
  26:.\Generated_Source\PSoC4/BLE_eventHandler.c **** 
  27:.\Generated_Source\PSoC4/BLE_eventHandler.c **** #endif /* CYBLE_GATT_ROLE_SERVER || CYBLE_GATT_ROLE_CLIENT */
  28:.\Generated_Source\PSoC4/BLE_eventHandler.c **** 
  29:.\Generated_Source\PSoC4/BLE_eventHandler.c **** static void CyBle_GattDisconnectEventHandler(void);
  30:.\Generated_Source\PSoC4/BLE_eventHandler.c **** static void CyBle_TimeOutEventHandler(const CYBLE_TO_REASON_CODE_T *eventParam);
  31:.\Generated_Source\PSoC4/BLE_eventHandler.c **** static void CyBle_GattConnectReqHandler(void);
  32:.\Generated_Source\PSoC4/BLE_eventHandler.c **** static void CyBle_L2Cap_ConnParamUpdateRspEventHandler(uint16 response);
  33:.\Generated_Source\PSoC4/BLE_eventHandler.c **** static void CyBle_GapConnUpdateCompleteEventHandler(const CYBLE_GAP_CONN_PARAM_UPDATED_IN_CONTROLLE
  34:.\Generated_Source\PSoC4/BLE_eventHandler.c **** 
  35:.\Generated_Source\PSoC4/BLE_eventHandler.c **** 
  36:.\Generated_Source\PSoC4/BLE_eventHandler.c **** #if (CYBLE_GATT_ROLE_SERVER)
  37:.\Generated_Source\PSoC4/BLE_eventHandler.c **** 
  38:.\Generated_Source\PSoC4/BLE_eventHandler.c **** static void CyBle_WriteReqHandler(CYBLE_GATTS_WRITE_REQ_PARAM_T *eventParam);
  39:.\Generated_Source\PSoC4/BLE_eventHandler.c **** static void CyBle_ValueConfirmation(const CYBLE_CONN_HANDLE_T *eventParam);
  40:.\Generated_Source\PSoC4/BLE_eventHandler.c **** 
  41:.\Generated_Source\PSoC4/BLE_eventHandler.c **** #endif /* CYBLE_GATT_ROLE_SERVER */
  42:.\Generated_Source\PSoC4/BLE_eventHandler.c **** 
  43:.\Generated_Source\PSoC4/BLE_eventHandler.c **** #if (CYBLE_GATT_ROLE_CLIENT)
  44:.\Generated_Source\PSoC4/BLE_eventHandler.c **** 
  45:.\Generated_Source\PSoC4/BLE_eventHandler.c **** static void CyBle_GapcDiscoverCharacteristicsEventHandler(CYBLE_DISC_CHAR_INFO_T *discCharInfo);
  46:.\Generated_Source\PSoC4/BLE_eventHandler.c **** static CYBLE_GATT_ATTR_HANDLE_RANGE_T CyBle_GetCharRange(void);
  47:.\Generated_Source\PSoC4/BLE_eventHandler.c **** static void CyBle_GattcWriteResponseEventHandler(const CYBLE_CONN_HANDLE_T *eventParam);
  48:.\Generated_Source\PSoC4/BLE_eventHandler.c **** static void CyBle_NotificationEventHandler(CYBLE_GATTC_HANDLE_VALUE_NTF_PARAM_T *eventParam);
  49:.\Generated_Source\PSoC4/BLE_eventHandler.c **** static void CyBle_IndicationEventHandler(CYBLE_GATTC_HANDLE_VALUE_IND_PARAM_T *eventParam);
  50:.\Generated_Source\PSoC4/BLE_eventHandler.c **** static void CyBle_ReadResponseEventHandler(CYBLE_GATTC_READ_RSP_PARAM_T *eventParam);
  51:.\Generated_Source\PSoC4/BLE_eventHandler.c **** 
  52:.\Generated_Source\PSoC4/BLE_eventHandler.c **** #endif /* CYBLE_GATT_ROLE_CLIENT */
  53:.\Generated_Source\PSoC4/BLE_eventHandler.c **** 
  54:.\Generated_Source\PSoC4/BLE_eventHandler.c **** 
  55:.\Generated_Source\PSoC4/BLE_eventHandler.c **** /***************************************
  56:.\Generated_Source\PSoC4/BLE_eventHandler.c **** ##Global Variables
ARM GAS  C:\Users\Zachary\AppData\Local\Temp\ccmvMQUz.s 			page 3


  57:.\Generated_Source\PSoC4/BLE_eventHandler.c **** ***************************************/
  58:.\Generated_Source\PSoC4/BLE_eventHandler.c **** 
  59:.\Generated_Source\PSoC4/BLE_eventHandler.c **** /* This global variable is initialized after connection with peer device, 
  60:.\Generated_Source\PSoC4/BLE_eventHandler.c ****    after CYBLE_EVT_GATT_CONNECT_IND event, and could be used by application code
  61:.\Generated_Source\PSoC4/BLE_eventHandler.c ****    to send data to peer device. 
  62:.\Generated_Source\PSoC4/BLE_eventHandler.c **** */
  63:.\Generated_Source\PSoC4/BLE_eventHandler.c **** CYBLE_CONN_HANDLE_T cyBle_connHandle;
  64:.\Generated_Source\PSoC4/BLE_eventHandler.c **** 
  65:.\Generated_Source\PSoC4/BLE_eventHandler.c **** volatile uint8 cyBle_eventHandlerFlag;
  66:.\Generated_Source\PSoC4/BLE_eventHandler.c **** volatile uint8 cyBle_busyStatus;
  67:.\Generated_Source\PSoC4/BLE_eventHandler.c **** 
  68:.\Generated_Source\PSoC4/BLE_eventHandler.c **** #if(CYBLE_GAP_ROLE_PERIPHERAL || CYBLE_GAP_ROLE_BROADCASTER) 
  69:.\Generated_Source\PSoC4/BLE_eventHandler.c ****     uint8 cyBle_advertisingIntervalType;
  70:.\Generated_Source\PSoC4/BLE_eventHandler.c **** #endif /* CYBLE_GAP_ROLE_PERIPHERAL || CYBLE_GAP_ROLE_BROADCASTER) */
  71:.\Generated_Source\PSoC4/BLE_eventHandler.c **** 
  72:.\Generated_Source\PSoC4/BLE_eventHandler.c **** #if(CYBLE_GAP_ROLE_CENTRAL || CYBLE_GAP_ROLE_OBSERVER) 
  73:.\Generated_Source\PSoC4/BLE_eventHandler.c ****     uint8 cyBle_scanningIntervalType;
  74:.\Generated_Source\PSoC4/BLE_eventHandler.c **** #endif /* CYBLE_GAP_ROLE_CENTRAL || CYBLE_GAP_ROLE_OBSERVER */
  75:.\Generated_Source\PSoC4/BLE_eventHandler.c **** 
  76:.\Generated_Source\PSoC4/BLE_eventHandler.c **** #if(CYBLE_GATT_ROLE_CLIENT)
  77:.\Generated_Source\PSoC4/BLE_eventHandler.c **** uint8 cyBle_disCount; /* Counter for discovery procedures */
  78:.\Generated_Source\PSoC4/BLE_eventHandler.c **** static CYBLE_GATT_DB_ATTR_HANDLE_T cyBle_charEndHandle;
  79:.\Generated_Source\PSoC4/BLE_eventHandler.c **** #ifdef CYBLE_HIDS_CLIENT
  80:.\Generated_Source\PSoC4/BLE_eventHandler.c ****     static uint8 disServiceIndex;      /* To discovery descriptors for multiple HID service instanc
  81:.\Generated_Source\PSoC4/BLE_eventHandler.c **** #endif /* CYBLE_HIDS_CLIENT */
  82:.\Generated_Source\PSoC4/BLE_eventHandler.c **** 
  83:.\Generated_Source\PSoC4/BLE_eventHandler.c **** CYBLE_DISC_SRVC_INFO_T cyBle_serverInfo[CYBLE_SRVI_COUNT] = /*3*/
  84:.\Generated_Source\PSoC4/BLE_eventHandler.c **** {
  85:.\Generated_Source\PSoC4/BLE_eventHandler.c ****     {{CYBLE_GATT_INVALID_ATTR_HANDLE_VALUE, CYBLE_GATT_INVALID_ATTR_HANDLE_VALUE}, CYBLE_UUID_GAP_S
  86:.\Generated_Source\PSoC4/BLE_eventHandler.c ****     {{CYBLE_GATT_INVALID_ATTR_HANDLE_VALUE, CYBLE_GATT_INVALID_ATTR_HANDLE_VALUE}, CYBLE_UUID_GATT_
  87:.\Generated_Source\PSoC4/BLE_eventHandler.c **** #ifdef CYBLE_ANS_CLIENT
  88:.\Generated_Source\PSoC4/BLE_eventHandler.c ****     {{CYBLE_GATT_INVALID_ATTR_HANDLE_VALUE, CYBLE_GATT_INVALID_ATTR_HANDLE_VALUE}, CYBLE_UUID_ALERT
  89:.\Generated_Source\PSoC4/BLE_eventHandler.c **** #endif /* CYBLE_ANS_CLIENT */
  90:.\Generated_Source\PSoC4/BLE_eventHandler.c **** #ifdef CYBLE_BAS_CLIENT
  91:.\Generated_Source\PSoC4/BLE_eventHandler.c ****     {{CYBLE_GATT_INVALID_ATTR_HANDLE_VALUE, CYBLE_GATT_INVALID_ATTR_HANDLE_VALUE}, CYBLE_UUID_BAS_S
  92:.\Generated_Source\PSoC4/BLE_eventHandler.c ****     #if(CYBLE_BASC_SERVICE_COUNT > 1u) /* Generate it by GUI */
  93:.\Generated_Source\PSoC4/BLE_eventHandler.c ****         
  94:.\Generated_Source\PSoC4/BLE_eventHandler.c ****     #endif /* CYBLE_BASC_SERVICE_COUNT > 1u */
  95:.\Generated_Source\PSoC4/BLE_eventHandler.c **** #endif /* CYBLE_BAS_CLIENT */
  96:.\Generated_Source\PSoC4/BLE_eventHandler.c **** #ifdef CYBLE_BLS_CLIENT
  97:.\Generated_Source\PSoC4/BLE_eventHandler.c ****     {{CYBLE_GATT_INVALID_ATTR_HANDLE_VALUE, CYBLE_GATT_INVALID_ATTR_HANDLE_VALUE}, CYBLE_UUID_BLOOD
  98:.\Generated_Source\PSoC4/BLE_eventHandler.c **** #endif /* CYBLE_BLS_CLIENT */
  99:.\Generated_Source\PSoC4/BLE_eventHandler.c **** #ifdef CYBLE_CGMS_CLIENT
 100:.\Generated_Source\PSoC4/BLE_eventHandler.c ****     {{CYBLE_GATT_INVALID_ATTR_HANDLE_VALUE, CYBLE_GATT_INVALID_ATTR_HANDLE_VALUE}, CYBLE_UUID_CGM_S
 101:.\Generated_Source\PSoC4/BLE_eventHandler.c **** #endif /* CYBLE_CGMS_CLIENT */
 102:.\Generated_Source\PSoC4/BLE_eventHandler.c **** #ifdef CYBLE_CPS_CLIENT
 103:.\Generated_Source\PSoC4/BLE_eventHandler.c ****     {{CYBLE_GATT_INVALID_ATTR_HANDLE_VALUE, CYBLE_GATT_INVALID_ATTR_HANDLE_VALUE}, CYBLE_UUID_CPS_S
 104:.\Generated_Source\PSoC4/BLE_eventHandler.c **** #endif /* CYBLE_CPS_CLIENT */
 105:.\Generated_Source\PSoC4/BLE_eventHandler.c **** #ifdef CYBLE_CSCS_CLIENT
 106:.\Generated_Source\PSoC4/BLE_eventHandler.c ****     {{CYBLE_GATT_INVALID_ATTR_HANDLE_VALUE, CYBLE_GATT_INVALID_ATTR_HANDLE_VALUE}, CYBLE_UUID_CYCLI
 107:.\Generated_Source\PSoC4/BLE_eventHandler.c **** #endif /* CYBLE_CSCS_CLIENT */
 108:.\Generated_Source\PSoC4/BLE_eventHandler.c **** #ifdef CYBLE_CTS_CLIENT
 109:.\Generated_Source\PSoC4/BLE_eventHandler.c ****     {{CYBLE_GATT_INVALID_ATTR_HANDLE_VALUE, CYBLE_GATT_INVALID_ATTR_HANDLE_VALUE}, CYBLE_UUID_CURRE
 110:.\Generated_Source\PSoC4/BLE_eventHandler.c **** #endif /* CYBLE_CTS_CLIENT */
 111:.\Generated_Source\PSoC4/BLE_eventHandler.c **** #ifdef CYBLE_DIS_CLIENT
 112:.\Generated_Source\PSoC4/BLE_eventHandler.c ****     {{CYBLE_GATT_INVALID_ATTR_HANDLE_VALUE, CYBLE_GATT_INVALID_ATTR_HANDLE_VALUE}, CYBLE_UUID_DEVIC
 113:.\Generated_Source\PSoC4/BLE_eventHandler.c **** #endif /* CYBLE_DIS_CLIENT */
ARM GAS  C:\Users\Zachary\AppData\Local\Temp\ccmvMQUz.s 			page 4


 114:.\Generated_Source\PSoC4/BLE_eventHandler.c **** #ifdef CYBLE_GLS_CLIENT
 115:.\Generated_Source\PSoC4/BLE_eventHandler.c ****     {{CYBLE_GATT_INVALID_ATTR_HANDLE_VALUE, CYBLE_GATT_INVALID_ATTR_HANDLE_VALUE}, CYBLE_UUID_GLUCO
 116:.\Generated_Source\PSoC4/BLE_eventHandler.c **** #endif /* CYBLE_GLS_CLIENT */
 117:.\Generated_Source\PSoC4/BLE_eventHandler.c **** #ifdef CYBLE_HIDS_CLIENT
 118:.\Generated_Source\PSoC4/BLE_eventHandler.c ****     {{CYBLE_GATT_INVALID_ATTR_HANDLE_VALUE, CYBLE_GATT_INVALID_ATTR_HANDLE_VALUE}, CYBLE_UUID_HIDS_
 119:.\Generated_Source\PSoC4/BLE_eventHandler.c ****     #if(CYBLE_HIDSC_SERVICE_COUNT > 1u) /* Generate it by GUI */
 120:.\Generated_Source\PSoC4/BLE_eventHandler.c ****         
 121:.\Generated_Source\PSoC4/BLE_eventHandler.c ****     #endif /* CYBLE_HIDSC_SERVICE_COUNT > 1u */
 122:.\Generated_Source\PSoC4/BLE_eventHandler.c **** #endif /* CYBLE_HIDS_CLIENT */
 123:.\Generated_Source\PSoC4/BLE_eventHandler.c **** #ifdef CYBLE_HRS_CLIENT
 124:.\Generated_Source\PSoC4/BLE_eventHandler.c ****     {{CYBLE_GATT_INVALID_ATTR_HANDLE_VALUE, CYBLE_GATT_INVALID_ATTR_HANDLE_VALUE}, CYBLE_UUID_HEART
 125:.\Generated_Source\PSoC4/BLE_eventHandler.c **** #endif /* CYBLE_HRS_CLIENT */
 126:.\Generated_Source\PSoC4/BLE_eventHandler.c **** #ifdef CYBLE_HTS_CLIENT
 127:.\Generated_Source\PSoC4/BLE_eventHandler.c ****     {{CYBLE_GATT_INVALID_ATTR_HANDLE_VALUE, CYBLE_GATT_INVALID_ATTR_HANDLE_VALUE}, CYBLE_UUID_HEALT
 128:.\Generated_Source\PSoC4/BLE_eventHandler.c **** #endif /* CYBLE_HTS_CLIENT */
 129:.\Generated_Source\PSoC4/BLE_eventHandler.c **** #ifdef CYBLE_IAS_CLIENT
 130:.\Generated_Source\PSoC4/BLE_eventHandler.c ****     {{CYBLE_GATT_INVALID_ATTR_HANDLE_VALUE, CYBLE_GATT_INVALID_ATTR_HANDLE_VALUE}, CYBLE_UUID_IMMED
 131:.\Generated_Source\PSoC4/BLE_eventHandler.c **** #endif /* CYBLE_IAS_CLIENT */
 132:.\Generated_Source\PSoC4/BLE_eventHandler.c **** #ifdef CYBLE_LLS_CLIENT
 133:.\Generated_Source\PSoC4/BLE_eventHandler.c ****     {{CYBLE_GATT_INVALID_ATTR_HANDLE_VALUE, CYBLE_GATT_INVALID_ATTR_HANDLE_VALUE}, CYBLE_UUID_LINK_
 134:.\Generated_Source\PSoC4/BLE_eventHandler.c **** #endif /* CYBLE_LLS_CLIENT */
 135:.\Generated_Source\PSoC4/BLE_eventHandler.c **** #ifdef CYBLE_LNS_CLIENT
 136:.\Generated_Source\PSoC4/BLE_eventHandler.c ****     {{CYBLE_GATT_INVALID_ATTR_HANDLE_VALUE, CYBLE_GATT_INVALID_ATTR_HANDLE_VALUE}, CYBLE_UUID_LOCAT
 137:.\Generated_Source\PSoC4/BLE_eventHandler.c **** #endif /* CYBLE_LNS_CLIENT */
 138:.\Generated_Source\PSoC4/BLE_eventHandler.c **** #ifdef CYBLE_NDCS_CLIENT
 139:.\Generated_Source\PSoC4/BLE_eventHandler.c ****     {{CYBLE_GATT_INVALID_ATTR_HANDLE_VALUE, CYBLE_GATT_INVALID_ATTR_HANDLE_VALUE}, CYBLE_UUID_NEXT_
 140:.\Generated_Source\PSoC4/BLE_eventHandler.c **** #endif /* CYBLE_NDCS_CLIENT */
 141:.\Generated_Source\PSoC4/BLE_eventHandler.c **** #ifdef CYBLE_PASS_CLIENT
 142:.\Generated_Source\PSoC4/BLE_eventHandler.c ****     {{CYBLE_GATT_INVALID_ATTR_HANDLE_VALUE, CYBLE_GATT_INVALID_ATTR_HANDLE_VALUE}, CYBLE_UUID_PHONE
 143:.\Generated_Source\PSoC4/BLE_eventHandler.c **** #endif /* CYBLE_PASS_CLIENT */
 144:.\Generated_Source\PSoC4/BLE_eventHandler.c **** #ifdef CYBLE_RSCS_CLIENT
 145:.\Generated_Source\PSoC4/BLE_eventHandler.c ****     {{CYBLE_GATT_INVALID_ATTR_HANDLE_VALUE, CYBLE_GATT_INVALID_ATTR_HANDLE_VALUE}, CYBLE_UUID_RUNNI
 146:.\Generated_Source\PSoC4/BLE_eventHandler.c **** #endif /* CYBLE_RSCS_CLIENT */
 147:.\Generated_Source\PSoC4/BLE_eventHandler.c **** #ifdef CYBLE_RTUS_CLIENT
 148:.\Generated_Source\PSoC4/BLE_eventHandler.c ****     {{CYBLE_GATT_INVALID_ATTR_HANDLE_VALUE, CYBLE_GATT_INVALID_ATTR_HANDLE_VALUE}, CYBLE_UUID_REF_T
 149:.\Generated_Source\PSoC4/BLE_eventHandler.c **** #endif /* CYBLE_RTUS_CLIENT */
 150:.\Generated_Source\PSoC4/BLE_eventHandler.c **** #ifdef CYBLE_SCPS_CLIENT
 151:.\Generated_Source\PSoC4/BLE_eventHandler.c ****     {{CYBLE_GATT_INVALID_ATTR_HANDLE_VALUE, CYBLE_GATT_INVALID_ATTR_HANDLE_VALUE}, CYBLE_UUID_SCAN_
 152:.\Generated_Source\PSoC4/BLE_eventHandler.c **** #endif /* CYBLE_SCPS_CLIENT */
 153:.\Generated_Source\PSoC4/BLE_eventHandler.c **** #ifdef CYBLE_TPS_CLIENT
 154:.\Generated_Source\PSoC4/BLE_eventHandler.c ****     {{CYBLE_GATT_INVALID_ATTR_HANDLE_VALUE, CYBLE_GATT_INVALID_ATTR_HANDLE_VALUE}, CYBLE_UUID_TX_PO
 155:.\Generated_Source\PSoC4/BLE_eventHandler.c **** #endif /* CYBLE_TPS_CLIENT */
 156:.\Generated_Source\PSoC4/BLE_eventHandler.c **** #ifdef CYBLE_UDS_CLIENT
 157:.\Generated_Source\PSoC4/BLE_eventHandler.c ****     {{CYBLE_GATT_INVALID_ATTR_HANDLE_VALUE, CYBLE_GATT_INVALID_ATTR_HANDLE_VALUE}, CYBLE_UUID_USER_
 158:.\Generated_Source\PSoC4/BLE_eventHandler.c **** #endif /* CYBLE_UDS_CLIENT */
 159:.\Generated_Source\PSoC4/BLE_eventHandler.c **** 
 160:.\Generated_Source\PSoC4/BLE_eventHandler.c **** };
 161:.\Generated_Source\PSoC4/BLE_eventHandler.c **** 
 162:.\Generated_Source\PSoC4/BLE_eventHandler.c **** CYBLE_GAPC_T cyBle_gapc;
 163:.\Generated_Source\PSoC4/BLE_eventHandler.c **** 
 164:.\Generated_Source\PSoC4/BLE_eventHandler.c **** #endif /* CYBLE_GATT_ROLE_CLIENT */
 165:.\Generated_Source\PSoC4/BLE_eventHandler.c **** 
 166:.\Generated_Source\PSoC4/BLE_eventHandler.c **** /* Default device security */
 167:.\Generated_Source\PSoC4/BLE_eventHandler.c **** CYBLE_GAP_AUTH_INFO_T cyBle_authInfo =
 168:.\Generated_Source\PSoC4/BLE_eventHandler.c **** {
 169:.\Generated_Source\PSoC4/BLE_eventHandler.c ****     (CYBLE_GAP_SEC_MODE_1 | CYBLE_GAP_SEC_LEVEL_1 ), /* uint8 security */
 170:.\Generated_Source\PSoC4/BLE_eventHandler.c ****     CYBLE_GAP_BONDING_NONE, /* uint8 bonding */
ARM GAS  C:\Users\Zachary\AppData\Local\Temp\ccmvMQUz.s 			page 5


 171:.\Generated_Source\PSoC4/BLE_eventHandler.c ****     0x10u,      /* uint8 ekeySize */
 172:.\Generated_Source\PSoC4/BLE_eventHandler.c ****     CYBLE_GAP_AUTH_ERROR_NONE, /* CYBLE_AUTH_FAILED_REASON_T authErr */
 173:.\Generated_Source\PSoC4/BLE_eventHandler.c **** };
 174:.\Generated_Source\PSoC4/BLE_eventHandler.c **** 
 175:.\Generated_Source\PSoC4/BLE_eventHandler.c **** #if(CYBLE_GATT_ROLE_SERVER)
 176:.\Generated_Source\PSoC4/BLE_eventHandler.c **** 
 177:.\Generated_Source\PSoC4/BLE_eventHandler.c **** 
 178:.\Generated_Source\PSoC4/BLE_eventHandler.c **** /******************************************************************************    
 179:.\Generated_Source\PSoC4/BLE_eventHandler.c **** ##Function Name: CyBle_WriteReqHandler
 180:.\Generated_Source\PSoC4/BLE_eventHandler.c **** *******************************************************************************
 181:.\Generated_Source\PSoC4/BLE_eventHandler.c **** 
 182:.\Generated_Source\PSoC4/BLE_eventHandler.c **** Summary:
 183:.\Generated_Source\PSoC4/BLE_eventHandler.c ****  Handles the Write Request event from BLE stack.
 184:.\Generated_Source\PSoC4/BLE_eventHandler.c **** 
 185:.\Generated_Source\PSoC4/BLE_eventHandler.c **** Parameters:
 186:.\Generated_Source\PSoC4/BLE_eventHandler.c ****  CYBLE_GATTS_WRITE_REQ_PARAM_T * eventParam - event parameter
 187:.\Generated_Source\PSoC4/BLE_eventHandler.c **** 
 188:.\Generated_Source\PSoC4/BLE_eventHandler.c **** Return:
 189:.\Generated_Source\PSoC4/BLE_eventHandler.c ****  None
 190:.\Generated_Source\PSoC4/BLE_eventHandler.c **** 
 191:.\Generated_Source\PSoC4/BLE_eventHandler.c **** ******************************************************************************/
 192:.\Generated_Source\PSoC4/BLE_eventHandler.c **** static void CyBle_WriteReqHandler(CYBLE_GATTS_WRITE_REQ_PARAM_T *eventParam)
 193:.\Generated_Source\PSoC4/BLE_eventHandler.c **** {
 194:.\Generated_Source\PSoC4/BLE_eventHandler.c ****     CYBLE_GATT_ERR_CODE_T gattErr;
 195:.\Generated_Source\PSoC4/BLE_eventHandler.c ****     
 196:.\Generated_Source\PSoC4/BLE_eventHandler.c ****     gattErr = CyBle_GattsWriteEventHandler(eventParam);
 197:.\Generated_Source\PSoC4/BLE_eventHandler.c **** #ifdef CYBLE_ANS_SERVER
 198:.\Generated_Source\PSoC4/BLE_eventHandler.c ****     if((CYBLE_GATT_ERR_NONE == gattErr) && ((cyBle_eventHandlerFlag & CYBLE_CALLBACK) != 0u))
 199:.\Generated_Source\PSoC4/BLE_eventHandler.c ****     {
 200:.\Generated_Source\PSoC4/BLE_eventHandler.c ****         gattErr = CyBle_AnssWriteEventHandler(eventParam);
 201:.\Generated_Source\PSoC4/BLE_eventHandler.c ****     }
 202:.\Generated_Source\PSoC4/BLE_eventHandler.c **** #endif /* CYBLE_ANS_SERVER */
 203:.\Generated_Source\PSoC4/BLE_eventHandler.c **** #ifdef CYBLE_BAS_SERVER
 204:.\Generated_Source\PSoC4/BLE_eventHandler.c ****     if((CYBLE_GATT_ERR_NONE == gattErr) && ((cyBle_eventHandlerFlag & CYBLE_CALLBACK) != 0u))
 205:.\Generated_Source\PSoC4/BLE_eventHandler.c ****     {
 206:.\Generated_Source\PSoC4/BLE_eventHandler.c ****         gattErr = CyBle_BassWriteEventHandler(eventParam);
 207:.\Generated_Source\PSoC4/BLE_eventHandler.c ****     }
 208:.\Generated_Source\PSoC4/BLE_eventHandler.c **** #endif /* CYBLE_BAS_SERVER */
 209:.\Generated_Source\PSoC4/BLE_eventHandler.c **** #ifdef CYBLE_BLS_SERVER
 210:.\Generated_Source\PSoC4/BLE_eventHandler.c ****     if((CYBLE_GATT_ERR_NONE == gattErr) && ((cyBle_eventHandlerFlag & CYBLE_CALLBACK) != 0u))
 211:.\Generated_Source\PSoC4/BLE_eventHandler.c ****     {
 212:.\Generated_Source\PSoC4/BLE_eventHandler.c ****         gattErr = CyBle_BlssWriteEventHandler(eventParam);
 213:.\Generated_Source\PSoC4/BLE_eventHandler.c ****     }
 214:.\Generated_Source\PSoC4/BLE_eventHandler.c **** #endif /* CYBLE_BLS_SERVER */
 215:.\Generated_Source\PSoC4/BLE_eventHandler.c **** #ifdef CYBLE_CPS_SERVER
 216:.\Generated_Source\PSoC4/BLE_eventHandler.c ****     if((CYBLE_GATT_ERR_NONE == gattErr) && ((cyBle_eventHandlerFlag & CYBLE_CALLBACK) != 0u))
 217:.\Generated_Source\PSoC4/BLE_eventHandler.c ****     {
 218:.\Generated_Source\PSoC4/BLE_eventHandler.c ****         gattErr = CyBle_CpssWriteEventHandler(eventParam);
 219:.\Generated_Source\PSoC4/BLE_eventHandler.c ****     }
 220:.\Generated_Source\PSoC4/BLE_eventHandler.c **** #endif /* CYBLE_CPS_SERVER */
 221:.\Generated_Source\PSoC4/BLE_eventHandler.c **** #ifdef CYBLE_CSCS_SERVER
 222:.\Generated_Source\PSoC4/BLE_eventHandler.c ****     if((CYBLE_GATT_ERR_NONE == gattErr) && ((cyBle_eventHandlerFlag & CYBLE_CALLBACK) != 0u))
 223:.\Generated_Source\PSoC4/BLE_eventHandler.c ****     {
 224:.\Generated_Source\PSoC4/BLE_eventHandler.c ****         gattErr = CyBle_CscssWriteEventHandler(eventParam);
 225:.\Generated_Source\PSoC4/BLE_eventHandler.c ****     }
 226:.\Generated_Source\PSoC4/BLE_eventHandler.c **** #endif /* CYBLE_CSCS_SERVER */
 227:.\Generated_Source\PSoC4/BLE_eventHandler.c **** #ifdef CYBLE_CTS_SERVER
ARM GAS  C:\Users\Zachary\AppData\Local\Temp\ccmvMQUz.s 			page 6


 228:.\Generated_Source\PSoC4/BLE_eventHandler.c ****     if((CYBLE_GATT_ERR_NONE == gattErr) && ((cyBle_eventHandlerFlag & CYBLE_CALLBACK) != 0u))
 229:.\Generated_Source\PSoC4/BLE_eventHandler.c ****     {
 230:.\Generated_Source\PSoC4/BLE_eventHandler.c ****         gattErr = CyBle_CtssWriteEventHandler(eventParam);
 231:.\Generated_Source\PSoC4/BLE_eventHandler.c ****     }
 232:.\Generated_Source\PSoC4/BLE_eventHandler.c **** #endif /* CYBLE_CTS_SERVER */
 233:.\Generated_Source\PSoC4/BLE_eventHandler.c **** #ifdef CYBLE_GLS_SERVER
 234:.\Generated_Source\PSoC4/BLE_eventHandler.c ****     if((CYBLE_GATT_ERR_NONE == gattErr) && ((cyBle_eventHandlerFlag & CYBLE_CALLBACK) != 0u))
 235:.\Generated_Source\PSoC4/BLE_eventHandler.c ****     {
 236:.\Generated_Source\PSoC4/BLE_eventHandler.c ****         gattErr = CyBle_GlssWriteEventHandler(eventParam);
 237:.\Generated_Source\PSoC4/BLE_eventHandler.c ****     }
 238:.\Generated_Source\PSoC4/BLE_eventHandler.c **** #endif /* CYBLE_GLS_SERVER */
 239:.\Generated_Source\PSoC4/BLE_eventHandler.c **** #ifdef CYBLE_HIDS_SERVER
 240:.\Generated_Source\PSoC4/BLE_eventHandler.c ****     if((CYBLE_GATT_ERR_NONE == gattErr) && ((cyBle_eventHandlerFlag & CYBLE_CALLBACK) != 0u))
 241:.\Generated_Source\PSoC4/BLE_eventHandler.c ****     {
 242:.\Generated_Source\PSoC4/BLE_eventHandler.c ****         gattErr = CyBle_HidssWriteEventHandler(eventParam);
 243:.\Generated_Source\PSoC4/BLE_eventHandler.c ****     }
 244:.\Generated_Source\PSoC4/BLE_eventHandler.c **** #endif /* CYBLE_HIDS_SERVER */
 245:.\Generated_Source\PSoC4/BLE_eventHandler.c **** #ifdef CYBLE_HRS_SERVER
 246:.\Generated_Source\PSoC4/BLE_eventHandler.c ****     if((CYBLE_GATT_ERR_NONE == gattErr) && ((cyBle_eventHandlerFlag & CYBLE_CALLBACK) != 0u))
 247:.\Generated_Source\PSoC4/BLE_eventHandler.c ****     {
 248:.\Generated_Source\PSoC4/BLE_eventHandler.c ****         gattErr = CyBle_HrssWriteEventHandler(eventParam);
 249:.\Generated_Source\PSoC4/BLE_eventHandler.c ****     }
 250:.\Generated_Source\PSoC4/BLE_eventHandler.c **** #endif /* CYBLE_HRS_SERVER */
 251:.\Generated_Source\PSoC4/BLE_eventHandler.c **** #ifdef CYBLE_HTS_SERVER
 252:.\Generated_Source\PSoC4/BLE_eventHandler.c ****     if((CYBLE_GATT_ERR_NONE == gattErr) && ((cyBle_eventHandlerFlag & CYBLE_CALLBACK) != 0u))
 253:.\Generated_Source\PSoC4/BLE_eventHandler.c ****     {
 254:.\Generated_Source\PSoC4/BLE_eventHandler.c ****         gattErr = CyBle_HtssWriteEventHandler(eventParam);
 255:.\Generated_Source\PSoC4/BLE_eventHandler.c ****     }
 256:.\Generated_Source\PSoC4/BLE_eventHandler.c **** #endif /* CYBLE_HTS_SERVER */
 257:.\Generated_Source\PSoC4/BLE_eventHandler.c **** #ifdef CYBLE_LLS_SERVER
 258:.\Generated_Source\PSoC4/BLE_eventHandler.c ****     if((CYBLE_GATT_ERR_NONE == gattErr) && ((cyBle_eventHandlerFlag & CYBLE_CALLBACK) != 0u))
 259:.\Generated_Source\PSoC4/BLE_eventHandler.c ****     {
 260:.\Generated_Source\PSoC4/BLE_eventHandler.c ****         gattErr = CyBle_LlssWriteEventHandler(eventParam);
 261:.\Generated_Source\PSoC4/BLE_eventHandler.c ****     }
 262:.\Generated_Source\PSoC4/BLE_eventHandler.c **** #endif /* CYBLE_LLS_SERVER */
 263:.\Generated_Source\PSoC4/BLE_eventHandler.c **** #ifdef CYBLE_LNS_SERVER
 264:.\Generated_Source\PSoC4/BLE_eventHandler.c ****     if((CYBLE_GATT_ERR_NONE == gattErr) && ((cyBle_eventHandlerFlag & CYBLE_CALLBACK) != 0u))
 265:.\Generated_Source\PSoC4/BLE_eventHandler.c ****     {
 266:.\Generated_Source\PSoC4/BLE_eventHandler.c ****         gattErr = CyBle_LnssWriteEventHandler(eventParam);
 267:.\Generated_Source\PSoC4/BLE_eventHandler.c ****     }
 268:.\Generated_Source\PSoC4/BLE_eventHandler.c **** #endif /* CYBLE_LNS_SERVER */
 269:.\Generated_Source\PSoC4/BLE_eventHandler.c **** #ifdef CYBLE_PASS_SERVER
 270:.\Generated_Source\PSoC4/BLE_eventHandler.c ****     if((CYBLE_GATT_ERR_NONE == gattErr) && ((cyBle_eventHandlerFlag & CYBLE_CALLBACK) != 0u))
 271:.\Generated_Source\PSoC4/BLE_eventHandler.c ****     {
 272:.\Generated_Source\PSoC4/BLE_eventHandler.c ****         gattErr = CyBle_PasssWriteEventHandler(eventParam);
 273:.\Generated_Source\PSoC4/BLE_eventHandler.c ****     }
 274:.\Generated_Source\PSoC4/BLE_eventHandler.c **** #endif /* CYBLE_PASS_SERVER */
 275:.\Generated_Source\PSoC4/BLE_eventHandler.c **** #ifdef CYBLE_RSCS_SERVER
 276:.\Generated_Source\PSoC4/BLE_eventHandler.c ****     if((CYBLE_GATT_ERR_NONE == gattErr) && ((cyBle_eventHandlerFlag & CYBLE_CALLBACK) != 0u))
 277:.\Generated_Source\PSoC4/BLE_eventHandler.c ****     {
 278:.\Generated_Source\PSoC4/BLE_eventHandler.c ****         gattErr = CyBle_RscssWriteEventHandler(eventParam);
 279:.\Generated_Source\PSoC4/BLE_eventHandler.c ****     }
 280:.\Generated_Source\PSoC4/BLE_eventHandler.c **** #endif /* CYBLE_RSCS_SERVER */
 281:.\Generated_Source\PSoC4/BLE_eventHandler.c **** #ifdef CYBLE_SCPS_SERVER
 282:.\Generated_Source\PSoC4/BLE_eventHandler.c ****     if((CYBLE_GATT_ERR_NONE == gattErr) && ((cyBle_eventHandlerFlag & CYBLE_CALLBACK) != 0u))
 283:.\Generated_Source\PSoC4/BLE_eventHandler.c ****     {
 284:.\Generated_Source\PSoC4/BLE_eventHandler.c ****         gattErr = CyBle_ScpssWriteEventHandler(eventParam);
ARM GAS  C:\Users\Zachary\AppData\Local\Temp\ccmvMQUz.s 			page 7


 285:.\Generated_Source\PSoC4/BLE_eventHandler.c ****     }
 286:.\Generated_Source\PSoC4/BLE_eventHandler.c **** #endif /* CYBLE_SCPS_SERVER */
 287:.\Generated_Source\PSoC4/BLE_eventHandler.c **** #ifdef CYBLE_TPS_SERVER
 288:.\Generated_Source\PSoC4/BLE_eventHandler.c ****     if((CYBLE_GATT_ERR_NONE == gattErr) && ((cyBle_eventHandlerFlag & CYBLE_CALLBACK) != 0u))
 289:.\Generated_Source\PSoC4/BLE_eventHandler.c ****     {
 290:.\Generated_Source\PSoC4/BLE_eventHandler.c ****         gattErr = CyBle_TpssWriteEventHandler(eventParam);
 291:.\Generated_Source\PSoC4/BLE_eventHandler.c ****     }
 292:.\Generated_Source\PSoC4/BLE_eventHandler.c **** #endif /* CYBLE_TPS_SERVER */
 293:.\Generated_Source\PSoC4/BLE_eventHandler.c **** #ifdef CYBLE_UDS_SERVER
 294:.\Generated_Source\PSoC4/BLE_eventHandler.c ****     if((CYBLE_GATT_ERR_NONE == gattErr) && ((cyBle_eventHandlerFlag & CYBLE_CALLBACK) != 0u))
 295:.\Generated_Source\PSoC4/BLE_eventHandler.c ****     {
 296:.\Generated_Source\PSoC4/BLE_eventHandler.c ****         gattErr = CyBle_UdssWriteEventHandler(eventParam);
 297:.\Generated_Source\PSoC4/BLE_eventHandler.c ****     }
 298:.\Generated_Source\PSoC4/BLE_eventHandler.c **** #endif /* CYBLE_UDS_SERVER */
 299:.\Generated_Source\PSoC4/BLE_eventHandler.c **** 
 300:.\Generated_Source\PSoC4/BLE_eventHandler.c ****     /* Send response when event was handled by service */
 301:.\Generated_Source\PSoC4/BLE_eventHandler.c ****     if((cyBle_eventHandlerFlag & CYBLE_CALLBACK) == 0u)
 302:.\Generated_Source\PSoC4/BLE_eventHandler.c ****     {
 303:.\Generated_Source\PSoC4/BLE_eventHandler.c ****         if(CYBLE_GATT_ERR_NONE != gattErr)
 304:.\Generated_Source\PSoC4/BLE_eventHandler.c ****         {
 305:.\Generated_Source\PSoC4/BLE_eventHandler.c ****             CYBLE_GATTS_ERR_PARAM_T err_param;
 306:.\Generated_Source\PSoC4/BLE_eventHandler.c ****             
 307:.\Generated_Source\PSoC4/BLE_eventHandler.c ****             err_param.opcode = (uint8) CYBLE_GATT_WRITE_REQ;
 308:.\Generated_Source\PSoC4/BLE_eventHandler.c ****             err_param.attrHandle = eventParam->handleValPair.attrHandle;
 309:.\Generated_Source\PSoC4/BLE_eventHandler.c ****             err_param.errorCode = gattErr;
 310:.\Generated_Source\PSoC4/BLE_eventHandler.c **** 
 311:.\Generated_Source\PSoC4/BLE_eventHandler.c ****             /* Send Error Response */
 312:.\Generated_Source\PSoC4/BLE_eventHandler.c ****             (void)CyBle_GattsErrorRsp(eventParam->connHandle, &err_param);
 313:.\Generated_Source\PSoC4/BLE_eventHandler.c ****         }
 314:.\Generated_Source\PSoC4/BLE_eventHandler.c ****         else
 315:.\Generated_Source\PSoC4/BLE_eventHandler.c ****         {
 316:.\Generated_Source\PSoC4/BLE_eventHandler.c ****             (void)CyBle_GattsWriteRsp(eventParam->connHandle);
 317:.\Generated_Source\PSoC4/BLE_eventHandler.c ****         }
 318:.\Generated_Source\PSoC4/BLE_eventHandler.c ****     }
 319:.\Generated_Source\PSoC4/BLE_eventHandler.c **** }
 320:.\Generated_Source\PSoC4/BLE_eventHandler.c **** 
 321:.\Generated_Source\PSoC4/BLE_eventHandler.c **** 
 322:.\Generated_Source\PSoC4/BLE_eventHandler.c **** /****************************************************************************** 
 323:.\Generated_Source\PSoC4/BLE_eventHandler.c **** ##Function Name: CyBle_ValueConfirmation
 324:.\Generated_Source\PSoC4/BLE_eventHandler.c **** *******************************************************************************
 325:.\Generated_Source\PSoC4/BLE_eventHandler.c **** 
 326:.\Generated_Source\PSoC4/BLE_eventHandler.c **** Summary:
 327:.\Generated_Source\PSoC4/BLE_eventHandler.c ****  Handles the Value Confirmation request event from the BLE stack.
 328:.\Generated_Source\PSoC4/BLE_eventHandler.c **** 
 329:.\Generated_Source\PSoC4/BLE_eventHandler.c **** Parameters:
 330:.\Generated_Source\PSoC4/BLE_eventHandler.c ****  CYBLE_CONN_HANDLE_T *eventParam - Pointer to a structure
 331:.\Generated_Source\PSoC4/BLE_eventHandler.c ****     of type 'CYBLE_CONN_HANDLE_T'
 332:.\Generated_Source\PSoC4/BLE_eventHandler.c **** 
 333:.\Generated_Source\PSoC4/BLE_eventHandler.c **** Return:
 334:.\Generated_Source\PSoC4/BLE_eventHandler.c ****  None
 335:.\Generated_Source\PSoC4/BLE_eventHandler.c **** 
 336:.\Generated_Source\PSoC4/BLE_eventHandler.c **** ******************************************************************************/
 337:.\Generated_Source\PSoC4/BLE_eventHandler.c **** static void CyBle_ValueConfirmation(const CYBLE_CONN_HANDLE_T *eventParam)
 338:.\Generated_Source\PSoC4/BLE_eventHandler.c **** {
 339:.\Generated_Source\PSoC4/BLE_eventHandler.c ****     if(eventParam != NULL)
 340:.\Generated_Source\PSoC4/BLE_eventHandler.c ****     {
 341:.\Generated_Source\PSoC4/BLE_eventHandler.c ****     #ifdef CYBLE_BLS_SERVER
ARM GAS  C:\Users\Zachary\AppData\Local\Temp\ccmvMQUz.s 			page 8


 342:.\Generated_Source\PSoC4/BLE_eventHandler.c ****         CyBle_BlssConfirmationEventHandler(eventParam);
 343:.\Generated_Source\PSoC4/BLE_eventHandler.c ****     #endif /* CYBLE_BLS_SERVER */
 344:.\Generated_Source\PSoC4/BLE_eventHandler.c ****     
 345:.\Generated_Source\PSoC4/BLE_eventHandler.c ****     #ifdef CYBLE_CPS_SERVER
 346:.\Generated_Source\PSoC4/BLE_eventHandler.c ****         if((cyBle_eventHandlerFlag & CYBLE_CALLBACK) != 0u)
 347:.\Generated_Source\PSoC4/BLE_eventHandler.c ****         {
 348:.\Generated_Source\PSoC4/BLE_eventHandler.c ****             CyBle_CpssConfirmationEventHandler(eventParam);
 349:.\Generated_Source\PSoC4/BLE_eventHandler.c ****         }
 350:.\Generated_Source\PSoC4/BLE_eventHandler.c ****     #endif /* CYBLE_CPS_SERVER */
 351:.\Generated_Source\PSoC4/BLE_eventHandler.c ****     
 352:.\Generated_Source\PSoC4/BLE_eventHandler.c ****     #ifdef CYBLE_CSCS_SERVER
 353:.\Generated_Source\PSoC4/BLE_eventHandler.c ****         if((cyBle_eventHandlerFlag & CYBLE_CALLBACK) != 0u)
 354:.\Generated_Source\PSoC4/BLE_eventHandler.c ****         {
 355:.\Generated_Source\PSoC4/BLE_eventHandler.c ****             CyBle_CscssConfirmationEventHandler(eventParam);
 356:.\Generated_Source\PSoC4/BLE_eventHandler.c ****         }
 357:.\Generated_Source\PSoC4/BLE_eventHandler.c ****     #endif /* CYBLE_CSCS_SERVER */
 358:.\Generated_Source\PSoC4/BLE_eventHandler.c ****     
 359:.\Generated_Source\PSoC4/BLE_eventHandler.c ****     #ifdef CYBLE_GLS_SERVER
 360:.\Generated_Source\PSoC4/BLE_eventHandler.c ****         if((cyBle_eventHandlerFlag & CYBLE_CALLBACK) != 0u)
 361:.\Generated_Source\PSoC4/BLE_eventHandler.c ****         {
 362:.\Generated_Source\PSoC4/BLE_eventHandler.c ****             CyBle_GlssConfirmationEventHandler(eventParam);
 363:.\Generated_Source\PSoC4/BLE_eventHandler.c ****         }
 364:.\Generated_Source\PSoC4/BLE_eventHandler.c ****     #endif /* CYBLE_GLS_SERVER */
 365:.\Generated_Source\PSoC4/BLE_eventHandler.c ****     
 366:.\Generated_Source\PSoC4/BLE_eventHandler.c ****     #ifdef CYBLE_HTS_SERVER
 367:.\Generated_Source\PSoC4/BLE_eventHandler.c ****         if((cyBle_eventHandlerFlag & CYBLE_CALLBACK) != 0u)
 368:.\Generated_Source\PSoC4/BLE_eventHandler.c ****         {
 369:.\Generated_Source\PSoC4/BLE_eventHandler.c ****             CyBle_HtssConfirmationEventHandler(eventParam);
 370:.\Generated_Source\PSoC4/BLE_eventHandler.c ****         }
 371:.\Generated_Source\PSoC4/BLE_eventHandler.c ****     #endif /* CYBLE_HTS_SERVER */
 372:.\Generated_Source\PSoC4/BLE_eventHandler.c **** 
 373:.\Generated_Source\PSoC4/BLE_eventHandler.c ****     #ifdef CYBLE_LNS_SERVER
 374:.\Generated_Source\PSoC4/BLE_eventHandler.c ****         if((cyBle_eventHandlerFlag & CYBLE_CALLBACK) != 0u)
 375:.\Generated_Source\PSoC4/BLE_eventHandler.c ****         {
 376:.\Generated_Source\PSoC4/BLE_eventHandler.c ****             CyBle_LnssConfirmationEventHandler(eventParam);
 377:.\Generated_Source\PSoC4/BLE_eventHandler.c ****         }
 378:.\Generated_Source\PSoC4/BLE_eventHandler.c ****     #endif /* CYBLE_LNS_SERVER */
 379:.\Generated_Source\PSoC4/BLE_eventHandler.c ****     
 380:.\Generated_Source\PSoC4/BLE_eventHandler.c ****     #ifdef CYBLE_RSCS_SERVER
 381:.\Generated_Source\PSoC4/BLE_eventHandler.c ****         if((cyBle_eventHandlerFlag & CYBLE_CALLBACK) != 0u)
 382:.\Generated_Source\PSoC4/BLE_eventHandler.c ****         {
 383:.\Generated_Source\PSoC4/BLE_eventHandler.c ****             CyBle_RscssConfirmationEventHandler(eventParam);
 384:.\Generated_Source\PSoC4/BLE_eventHandler.c ****         }
 385:.\Generated_Source\PSoC4/BLE_eventHandler.c ****     #endif /* CYBLE_RSCS_SERVER */
 386:.\Generated_Source\PSoC4/BLE_eventHandler.c ****     
 387:.\Generated_Source\PSoC4/BLE_eventHandler.c ****     #ifdef CYBLE_UDS_SERVER
 388:.\Generated_Source\PSoC4/BLE_eventHandler.c ****         if((cyBle_eventHandlerFlag & CYBLE_CALLBACK) != 0u)
 389:.\Generated_Source\PSoC4/BLE_eventHandler.c ****         {
 390:.\Generated_Source\PSoC4/BLE_eventHandler.c ****             CyBle_UdssConfirmationEventHandler(eventParam);
 391:.\Generated_Source\PSoC4/BLE_eventHandler.c ****         }
 392:.\Generated_Source\PSoC4/BLE_eventHandler.c ****     #endif /* CYBLE_UDS_SERVER */
 393:.\Generated_Source\PSoC4/BLE_eventHandler.c ****     }
 394:.\Generated_Source\PSoC4/BLE_eventHandler.c **** }
 395:.\Generated_Source\PSoC4/BLE_eventHandler.c **** 
 396:.\Generated_Source\PSoC4/BLE_eventHandler.c **** #endif /* CYBLE_GATT_ROLE_SERVER */
 397:.\Generated_Source\PSoC4/BLE_eventHandler.c **** 
 398:.\Generated_Source\PSoC4/BLE_eventHandler.c **** 
ARM GAS  C:\Users\Zachary\AppData\Local\Temp\ccmvMQUz.s 			page 9


 399:.\Generated_Source\PSoC4/BLE_eventHandler.c **** #if (CYBLE_GATT_ROLE_CLIENT)
 400:.\Generated_Source\PSoC4/BLE_eventHandler.c **** 
 401:.\Generated_Source\PSoC4/BLE_eventHandler.c **** /****************************************************************************** 
 402:.\Generated_Source\PSoC4/BLE_eventHandler.c **** ##Function Name: CyBle_GattcWriteResponseEventHandler
 403:.\Generated_Source\PSoC4/BLE_eventHandler.c **** *******************************************************************************
 404:.\Generated_Source\PSoC4/BLE_eventHandler.c **** 
 405:.\Generated_Source\PSoC4/BLE_eventHandler.c **** Summary:
 406:.\Generated_Source\PSoC4/BLE_eventHandler.c ****  Handles the Write response event from the BLE stack.
 407:.\Generated_Source\PSoC4/BLE_eventHandler.c **** 
 408:.\Generated_Source\PSoC4/BLE_eventHandler.c **** Parameters:
 409:.\Generated_Source\PSoC4/BLE_eventHandler.c ****  CYBLE_CONN_HANDLE_T *eventParam - Pointer to a structure
 410:.\Generated_Source\PSoC4/BLE_eventHandler.c ****     of type 'CYBLE_CONN_HANDLE_T'
 411:.\Generated_Source\PSoC4/BLE_eventHandler.c **** 
 412:.\Generated_Source\PSoC4/BLE_eventHandler.c **** Return:
 413:.\Generated_Source\PSoC4/BLE_eventHandler.c ****  None
 414:.\Generated_Source\PSoC4/BLE_eventHandler.c **** 
 415:.\Generated_Source\PSoC4/BLE_eventHandler.c **** ******************************************************************************/
 416:.\Generated_Source\PSoC4/BLE_eventHandler.c **** static void CyBle_GattcWriteResponseEventHandler(const CYBLE_CONN_HANDLE_T *eventParam)
 417:.\Generated_Source\PSoC4/BLE_eventHandler.c **** {
  59              		.loc 1 417 0
  60              		.cfi_startproc
  61 0000 80B5     		push	{r7, lr}
  62              		.cfi_def_cfa_offset 8
  63              		.cfi_offset 7, -8
  64              		.cfi_offset 14, -4
  65 0002 82B0     		sub	sp, sp, #8
  66              		.cfi_def_cfa_offset 16
  67 0004 00AF     		add	r7, sp, #0
  68              		.cfi_def_cfa_register 7
  69 0006 7860     		str	r0, [r7, #4]
 418:.\Generated_Source\PSoC4/BLE_eventHandler.c **** #ifdef CYBLE_ANS_CLIENT
 419:.\Generated_Source\PSoC4/BLE_eventHandler.c ****     CyBle_AnscWriteResponseEventHandler(eventParam);
 420:.\Generated_Source\PSoC4/BLE_eventHandler.c **** #endif /* CYBLE_ANS_CLIENT */
 421:.\Generated_Source\PSoC4/BLE_eventHandler.c **** 
 422:.\Generated_Source\PSoC4/BLE_eventHandler.c **** #ifdef CYBLE_BAS_CLIENT
 423:.\Generated_Source\PSoC4/BLE_eventHandler.c ****     if((cyBle_eventHandlerFlag & CYBLE_CALLBACK) != 0u)
 424:.\Generated_Source\PSoC4/BLE_eventHandler.c ****     {
 425:.\Generated_Source\PSoC4/BLE_eventHandler.c ****         CyBle_BascWriteResponseEventHandler(eventParam);
 426:.\Generated_Source\PSoC4/BLE_eventHandler.c ****     }
 427:.\Generated_Source\PSoC4/BLE_eventHandler.c **** #endif /* CYBLE_BAS_CLIENT */
 428:.\Generated_Source\PSoC4/BLE_eventHandler.c **** 
 429:.\Generated_Source\PSoC4/BLE_eventHandler.c **** #ifdef CYBLE_BLS_CLIENT
 430:.\Generated_Source\PSoC4/BLE_eventHandler.c ****     if((cyBle_eventHandlerFlag & CYBLE_CALLBACK) != 0u)
 431:.\Generated_Source\PSoC4/BLE_eventHandler.c ****     {
 432:.\Generated_Source\PSoC4/BLE_eventHandler.c ****         CyBle_BlscWriteResponseEventHandler(eventParam);
 433:.\Generated_Source\PSoC4/BLE_eventHandler.c ****     }
 434:.\Generated_Source\PSoC4/BLE_eventHandler.c **** #endif /* CYBLE_BLS_CLIENT */
 435:.\Generated_Source\PSoC4/BLE_eventHandler.c **** 
 436:.\Generated_Source\PSoC4/BLE_eventHandler.c **** #ifdef CYBLE_CGMS_CLIENT
 437:.\Generated_Source\PSoC4/BLE_eventHandler.c ****     if((cyBle_eventHandlerFlag & CYBLE_CALLBACK) != 0u)
 438:.\Generated_Source\PSoC4/BLE_eventHandler.c ****     {
 439:.\Generated_Source\PSoC4/BLE_eventHandler.c ****         CyBle_CgmscWriteResponseEventHandler(eventParam);
 440:.\Generated_Source\PSoC4/BLE_eventHandler.c ****     }
 441:.\Generated_Source\PSoC4/BLE_eventHandler.c **** #endif /* CYBLE_CGMS_CLIENT */
 442:.\Generated_Source\PSoC4/BLE_eventHandler.c **** 
 443:.\Generated_Source\PSoC4/BLE_eventHandler.c **** #ifdef CYBLE_CPS_CLIENT
 444:.\Generated_Source\PSoC4/BLE_eventHandler.c ****     if((cyBle_eventHandlerFlag & CYBLE_CALLBACK) != 0u)
ARM GAS  C:\Users\Zachary\AppData\Local\Temp\ccmvMQUz.s 			page 10


 445:.\Generated_Source\PSoC4/BLE_eventHandler.c ****     {
 446:.\Generated_Source\PSoC4/BLE_eventHandler.c ****         CyBle_CpscWriteResponseEventHandler(eventParam);
 447:.\Generated_Source\PSoC4/BLE_eventHandler.c ****     }
 448:.\Generated_Source\PSoC4/BLE_eventHandler.c **** #endif /* CYBLE_CPS_CLIENT */
 449:.\Generated_Source\PSoC4/BLE_eventHandler.c **** 
 450:.\Generated_Source\PSoC4/BLE_eventHandler.c **** #ifdef CYBLE_CSCS_CLIENT
 451:.\Generated_Source\PSoC4/BLE_eventHandler.c ****     if((cyBle_eventHandlerFlag & CYBLE_CALLBACK) != 0u)
 452:.\Generated_Source\PSoC4/BLE_eventHandler.c ****     {
 453:.\Generated_Source\PSoC4/BLE_eventHandler.c ****         CyBle_CscscWriteResponseEventHandler(eventParam);
 454:.\Generated_Source\PSoC4/BLE_eventHandler.c ****     }
 455:.\Generated_Source\PSoC4/BLE_eventHandler.c **** #endif /* CYBLE_CSCS_CLIENT */
 456:.\Generated_Source\PSoC4/BLE_eventHandler.c **** 
 457:.\Generated_Source\PSoC4/BLE_eventHandler.c **** #ifdef CYBLE_CTS_CLIENT
 458:.\Generated_Source\PSoC4/BLE_eventHandler.c ****     if((cyBle_eventHandlerFlag & CYBLE_CALLBACK) != 0u)
 459:.\Generated_Source\PSoC4/BLE_eventHandler.c ****     {
 460:.\Generated_Source\PSoC4/BLE_eventHandler.c ****         CyBle_CtscWriteResponseEventHandler(eventParam);
 461:.\Generated_Source\PSoC4/BLE_eventHandler.c ****     }
 462:.\Generated_Source\PSoC4/BLE_eventHandler.c **** #endif /* CYBLE_CTS_CLIENT */
 463:.\Generated_Source\PSoC4/BLE_eventHandler.c **** 
 464:.\Generated_Source\PSoC4/BLE_eventHandler.c **** #ifdef CYBLE_GLS_CLIENT
 465:.\Generated_Source\PSoC4/BLE_eventHandler.c ****     if((cyBle_eventHandlerFlag & CYBLE_CALLBACK) != 0u)
 466:.\Generated_Source\PSoC4/BLE_eventHandler.c ****     {
 467:.\Generated_Source\PSoC4/BLE_eventHandler.c ****         CyBle_GlscWriteResponseEventHandler(eventParam);
 468:.\Generated_Source\PSoC4/BLE_eventHandler.c ****     }
 469:.\Generated_Source\PSoC4/BLE_eventHandler.c **** #endif /* CYBLE_GLS_CLIENT */
 470:.\Generated_Source\PSoC4/BLE_eventHandler.c **** 
 471:.\Generated_Source\PSoC4/BLE_eventHandler.c **** #ifdef CYBLE_HIDS_CLIENT
 472:.\Generated_Source\PSoC4/BLE_eventHandler.c ****     if((cyBle_eventHandlerFlag & CYBLE_CALLBACK) != 0u)
 473:.\Generated_Source\PSoC4/BLE_eventHandler.c ****     {
 474:.\Generated_Source\PSoC4/BLE_eventHandler.c ****         CyBle_HidscWriteResponseEventHandler(eventParam);
 475:.\Generated_Source\PSoC4/BLE_eventHandler.c ****     }
 476:.\Generated_Source\PSoC4/BLE_eventHandler.c **** #endif /* CYBLE_HIDS_CLIENT */
 477:.\Generated_Source\PSoC4/BLE_eventHandler.c **** 
 478:.\Generated_Source\PSoC4/BLE_eventHandler.c **** #ifdef CYBLE_HRS_CLIENT
 479:.\Generated_Source\PSoC4/BLE_eventHandler.c ****     if((cyBle_eventHandlerFlag & CYBLE_CALLBACK) != 0u)
 480:.\Generated_Source\PSoC4/BLE_eventHandler.c ****     {
 481:.\Generated_Source\PSoC4/BLE_eventHandler.c ****         CyBle_HrscWriteResponseEventHandler(eventParam);
 482:.\Generated_Source\PSoC4/BLE_eventHandler.c ****     }
 483:.\Generated_Source\PSoC4/BLE_eventHandler.c **** #endif /* CYBLE_HRS_CLIENT */
 484:.\Generated_Source\PSoC4/BLE_eventHandler.c **** 
 485:.\Generated_Source\PSoC4/BLE_eventHandler.c **** #ifdef CYBLE_HTS_CLIENT
 486:.\Generated_Source\PSoC4/BLE_eventHandler.c ****     if((cyBle_eventHandlerFlag & CYBLE_CALLBACK) != 0u)
 487:.\Generated_Source\PSoC4/BLE_eventHandler.c ****     {
 488:.\Generated_Source\PSoC4/BLE_eventHandler.c ****         CyBle_HtscWriteResponseEventHandler(eventParam);
 489:.\Generated_Source\PSoC4/BLE_eventHandler.c ****     }
 490:.\Generated_Source\PSoC4/BLE_eventHandler.c **** #endif /* CYBLE_HTS_CLIENT */
 491:.\Generated_Source\PSoC4/BLE_eventHandler.c **** 
 492:.\Generated_Source\PSoC4/BLE_eventHandler.c **** #ifdef CYBLE_LLS_CLIENT
 493:.\Generated_Source\PSoC4/BLE_eventHandler.c ****     if((cyBle_eventHandlerFlag & CYBLE_CALLBACK) != 0u)
 494:.\Generated_Source\PSoC4/BLE_eventHandler.c ****     {
 495:.\Generated_Source\PSoC4/BLE_eventHandler.c ****         CyBle_LlscWriteResponseEventHandler(eventParam);
 496:.\Generated_Source\PSoC4/BLE_eventHandler.c ****     }
 497:.\Generated_Source\PSoC4/BLE_eventHandler.c **** #endif /* CYBLE_LLS_CLIENT */
 498:.\Generated_Source\PSoC4/BLE_eventHandler.c **** 
 499:.\Generated_Source\PSoC4/BLE_eventHandler.c **** #ifdef CYBLE_LNS_CLIENT
 500:.\Generated_Source\PSoC4/BLE_eventHandler.c ****     if((cyBle_eventHandlerFlag & CYBLE_CALLBACK) != 0u)
 501:.\Generated_Source\PSoC4/BLE_eventHandler.c ****     {
ARM GAS  C:\Users\Zachary\AppData\Local\Temp\ccmvMQUz.s 			page 11


 502:.\Generated_Source\PSoC4/BLE_eventHandler.c ****         CyBle_LnscWriteResponseEventHandler(eventParam);
 503:.\Generated_Source\PSoC4/BLE_eventHandler.c ****     }
 504:.\Generated_Source\PSoC4/BLE_eventHandler.c **** #endif /* CYBLE_LNS_CLIENT */
 505:.\Generated_Source\PSoC4/BLE_eventHandler.c **** 
 506:.\Generated_Source\PSoC4/BLE_eventHandler.c **** #ifdef CYBLE_PASS_CLIENT
 507:.\Generated_Source\PSoC4/BLE_eventHandler.c ****     if((cyBle_eventHandlerFlag & CYBLE_CALLBACK) != 0u)
 508:.\Generated_Source\PSoC4/BLE_eventHandler.c ****     {
 509:.\Generated_Source\PSoC4/BLE_eventHandler.c ****         CyBle_PasscWriteResponseEventHandler(eventParam);
 510:.\Generated_Source\PSoC4/BLE_eventHandler.c ****     }
 511:.\Generated_Source\PSoC4/BLE_eventHandler.c **** #endif /* CYBLE_PASS_CLIENT */
 512:.\Generated_Source\PSoC4/BLE_eventHandler.c **** 
 513:.\Generated_Source\PSoC4/BLE_eventHandler.c **** #ifdef CYBLE_RSCS_CLIENT
 514:.\Generated_Source\PSoC4/BLE_eventHandler.c ****     if((cyBle_eventHandlerFlag & CYBLE_CALLBACK) != 0u)
 515:.\Generated_Source\PSoC4/BLE_eventHandler.c ****     {
 516:.\Generated_Source\PSoC4/BLE_eventHandler.c ****         CyBle_RscscWriteResponseEventHandler(eventParam);
 517:.\Generated_Source\PSoC4/BLE_eventHandler.c ****     }
 518:.\Generated_Source\PSoC4/BLE_eventHandler.c **** #endif /* CYBLE_RSCS_CLIENT */
 519:.\Generated_Source\PSoC4/BLE_eventHandler.c **** 
 520:.\Generated_Source\PSoC4/BLE_eventHandler.c **** #ifdef CYBLE_SCPS_CLIENT
 521:.\Generated_Source\PSoC4/BLE_eventHandler.c ****     if((cyBle_eventHandlerFlag & CYBLE_CALLBACK) != 0u)
 522:.\Generated_Source\PSoC4/BLE_eventHandler.c ****     {
 523:.\Generated_Source\PSoC4/BLE_eventHandler.c ****         CyBle_ScpscWriteResponseEventHandler(eventParam);
 524:.\Generated_Source\PSoC4/BLE_eventHandler.c ****     }
 525:.\Generated_Source\PSoC4/BLE_eventHandler.c **** #endif /* CYBLE_SCPS_CLIENT */
 526:.\Generated_Source\PSoC4/BLE_eventHandler.c **** 
 527:.\Generated_Source\PSoC4/BLE_eventHandler.c **** #ifdef CYBLE_TPS_CLIENT
 528:.\Generated_Source\PSoC4/BLE_eventHandler.c ****     if((cyBle_eventHandlerFlag & CYBLE_CALLBACK) != 0u)
 529:.\Generated_Source\PSoC4/BLE_eventHandler.c ****     {
 530:.\Generated_Source\PSoC4/BLE_eventHandler.c ****         CyBle_TpscWriteResponseEventHandler(eventParam);
 531:.\Generated_Source\PSoC4/BLE_eventHandler.c ****     }
 532:.\Generated_Source\PSoC4/BLE_eventHandler.c **** #endif /* CYBLE_TPS_CLIENT */
 533:.\Generated_Source\PSoC4/BLE_eventHandler.c **** 
 534:.\Generated_Source\PSoC4/BLE_eventHandler.c **** #ifdef CYBLE_UDS_CLIENT
 535:.\Generated_Source\PSoC4/BLE_eventHandler.c ****     if((cyBle_eventHandlerFlag & CYBLE_CALLBACK) != 0u)
 536:.\Generated_Source\PSoC4/BLE_eventHandler.c ****     {
 537:.\Generated_Source\PSoC4/BLE_eventHandler.c ****         CyBle_UdscWriteResponseEventHandler(eventParam);
 538:.\Generated_Source\PSoC4/BLE_eventHandler.c ****     }
 539:.\Generated_Source\PSoC4/BLE_eventHandler.c **** #endif /* CYBLE_UDS_CLIENT */
 540:.\Generated_Source\PSoC4/BLE_eventHandler.c **** }
  70              		.loc 1 540 0
  71 0008 BD46     		mov	sp, r7
  72 000a 02B0     		add	sp, sp, #8
  73              		@ sp needed
  74 000c 80BD     		pop	{r7, pc}
  75              		.cfi_endproc
  76              	.LFE2:
  77              		.size	CyBle_GattcWriteResponseEventHandler, .-CyBle_GattcWriteResponseEventHandler
  78 000e C046     		.section	.text.CyBle_NotificationEventHandler,"ax",%progbits
  79              		.align	2
  80              		.code	16
  81              		.thumb_func
  82              		.type	CyBle_NotificationEventHandler, %function
  83              	CyBle_NotificationEventHandler:
  84              	.LFB3:
 541:.\Generated_Source\PSoC4/BLE_eventHandler.c **** 
 542:.\Generated_Source\PSoC4/BLE_eventHandler.c **** 
 543:.\Generated_Source\PSoC4/BLE_eventHandler.c **** /******************************************************************************    
ARM GAS  C:\Users\Zachary\AppData\Local\Temp\ccmvMQUz.s 			page 12


 544:.\Generated_Source\PSoC4/BLE_eventHandler.c **** ##Function Name: CyBle_NotificationEventHandler
 545:.\Generated_Source\PSoC4/BLE_eventHandler.c **** *******************************************************************************
 546:.\Generated_Source\PSoC4/BLE_eventHandler.c **** 
 547:.\Generated_Source\PSoC4/BLE_eventHandler.c **** Summary:
 548:.\Generated_Source\PSoC4/BLE_eventHandler.c ****  Handles the Notification event from BLE stack.
 549:.\Generated_Source\PSoC4/BLE_eventHandler.c **** 
 550:.\Generated_Source\PSoC4/BLE_eventHandler.c **** Parameters:
 551:.\Generated_Source\PSoC4/BLE_eventHandler.c ****  CYBLE_GATTC_HANDLE_VALUE_NTF_PARAM_T * eventParam - event parameter
 552:.\Generated_Source\PSoC4/BLE_eventHandler.c **** 
 553:.\Generated_Source\PSoC4/BLE_eventHandler.c **** Return:
 554:.\Generated_Source\PSoC4/BLE_eventHandler.c ****  None
 555:.\Generated_Source\PSoC4/BLE_eventHandler.c **** 
 556:.\Generated_Source\PSoC4/BLE_eventHandler.c **** ******************************************************************************/
 557:.\Generated_Source\PSoC4/BLE_eventHandler.c **** static void CyBle_NotificationEventHandler(CYBLE_GATTC_HANDLE_VALUE_NTF_PARAM_T *eventParam)
 558:.\Generated_Source\PSoC4/BLE_eventHandler.c **** {
  85              		.loc 1 558 0
  86              		.cfi_startproc
  87 0000 80B5     		push	{r7, lr}
  88              		.cfi_def_cfa_offset 8
  89              		.cfi_offset 7, -8
  90              		.cfi_offset 14, -4
  91 0002 82B0     		sub	sp, sp, #8
  92              		.cfi_def_cfa_offset 16
  93 0004 00AF     		add	r7, sp, #0
  94              		.cfi_def_cfa_register 7
  95 0006 7860     		str	r0, [r7, #4]
 559:.\Generated_Source\PSoC4/BLE_eventHandler.c **** #ifdef CYBLE_ANS_CLIENT
 560:.\Generated_Source\PSoC4/BLE_eventHandler.c ****     CyBle_AnscNotificationEventHandler(eventParam);
 561:.\Generated_Source\PSoC4/BLE_eventHandler.c **** #endif /* CYBLE_ANS_CLIENT */
 562:.\Generated_Source\PSoC4/BLE_eventHandler.c **** #ifdef CYBLE_BAS_CLIENT
 563:.\Generated_Source\PSoC4/BLE_eventHandler.c ****     if((cyBle_eventHandlerFlag & CYBLE_CALLBACK) != 0u)
 564:.\Generated_Source\PSoC4/BLE_eventHandler.c ****     {
 565:.\Generated_Source\PSoC4/BLE_eventHandler.c ****         CyBle_BascNotificationEventHandler(eventParam);
 566:.\Generated_Source\PSoC4/BLE_eventHandler.c ****     }
 567:.\Generated_Source\PSoC4/BLE_eventHandler.c **** #endif /* CYBLE_BAS_CLIENT */
 568:.\Generated_Source\PSoC4/BLE_eventHandler.c **** #ifdef CYBLE_BLS_CLIENT
 569:.\Generated_Source\PSoC4/BLE_eventHandler.c ****     if((cyBle_eventHandlerFlag & CYBLE_CALLBACK) != 0u)
 570:.\Generated_Source\PSoC4/BLE_eventHandler.c ****     {
 571:.\Generated_Source\PSoC4/BLE_eventHandler.c ****         CyBle_BlscNotificationEventHandler(eventParam);
 572:.\Generated_Source\PSoC4/BLE_eventHandler.c ****     }
 573:.\Generated_Source\PSoC4/BLE_eventHandler.c **** #endif /* CYBLE_BLS_CLIENT */
 574:.\Generated_Source\PSoC4/BLE_eventHandler.c **** #ifdef CYBLE_CGMS_CLIENT
 575:.\Generated_Source\PSoC4/BLE_eventHandler.c ****     if((cyBle_eventHandlerFlag & CYBLE_CALLBACK) != 0u)
 576:.\Generated_Source\PSoC4/BLE_eventHandler.c ****     {
 577:.\Generated_Source\PSoC4/BLE_eventHandler.c ****         CyBle_CgmscNotificationEventHandler(eventParam);
 578:.\Generated_Source\PSoC4/BLE_eventHandler.c ****     }
 579:.\Generated_Source\PSoC4/BLE_eventHandler.c **** #endif /* CYBLE_CGMS_CLIENT */
 580:.\Generated_Source\PSoC4/BLE_eventHandler.c **** #ifdef CYBLE_CPS_CLIENT
 581:.\Generated_Source\PSoC4/BLE_eventHandler.c ****     if((cyBle_eventHandlerFlag & CYBLE_CALLBACK) != 0u)
 582:.\Generated_Source\PSoC4/BLE_eventHandler.c ****     {
 583:.\Generated_Source\PSoC4/BLE_eventHandler.c ****         CyBle_CpscNotificationEventHandler(eventParam);
 584:.\Generated_Source\PSoC4/BLE_eventHandler.c ****     }
 585:.\Generated_Source\PSoC4/BLE_eventHandler.c **** #endif /* CYBLE_CPS_CLIENT */
 586:.\Generated_Source\PSoC4/BLE_eventHandler.c **** #ifdef CYBLE_CSCS_CLIENT
 587:.\Generated_Source\PSoC4/BLE_eventHandler.c ****     if((cyBle_eventHandlerFlag & CYBLE_CALLBACK) != 0u)
 588:.\Generated_Source\PSoC4/BLE_eventHandler.c ****     {
 589:.\Generated_Source\PSoC4/BLE_eventHandler.c ****         CyBle_CscscNotificationEventHandler(eventParam);
ARM GAS  C:\Users\Zachary\AppData\Local\Temp\ccmvMQUz.s 			page 13


 590:.\Generated_Source\PSoC4/BLE_eventHandler.c ****     }
 591:.\Generated_Source\PSoC4/BLE_eventHandler.c **** #endif /* CYBLE_CSCS_CLIENT */
 592:.\Generated_Source\PSoC4/BLE_eventHandler.c **** #ifdef CYBLE_CTS_CLIENT
 593:.\Generated_Source\PSoC4/BLE_eventHandler.c ****     if((cyBle_eventHandlerFlag & CYBLE_CALLBACK) != 0u)
 594:.\Generated_Source\PSoC4/BLE_eventHandler.c ****     {
 595:.\Generated_Source\PSoC4/BLE_eventHandler.c ****         CyBle_CtscNotificationEventHandler(eventParam);
 596:.\Generated_Source\PSoC4/BLE_eventHandler.c ****     }
 597:.\Generated_Source\PSoC4/BLE_eventHandler.c **** #endif /* CYBLE_CTS_CLIENT */
 598:.\Generated_Source\PSoC4/BLE_eventHandler.c **** #ifdef CYBLE_GLS_CLIENT
 599:.\Generated_Source\PSoC4/BLE_eventHandler.c ****     if((cyBle_eventHandlerFlag & CYBLE_CALLBACK) != 0u)
 600:.\Generated_Source\PSoC4/BLE_eventHandler.c ****     {
 601:.\Generated_Source\PSoC4/BLE_eventHandler.c ****         CyBle_GlscNotificationEventHandler(eventParam);
 602:.\Generated_Source\PSoC4/BLE_eventHandler.c ****     }
 603:.\Generated_Source\PSoC4/BLE_eventHandler.c **** #endif /* CYBLE_GLS_CLIENT */
 604:.\Generated_Source\PSoC4/BLE_eventHandler.c **** #ifdef CYBLE_HIDS_CLIENT
 605:.\Generated_Source\PSoC4/BLE_eventHandler.c ****     if((cyBle_eventHandlerFlag & CYBLE_CALLBACK) != 0u)
 606:.\Generated_Source\PSoC4/BLE_eventHandler.c ****     {
 607:.\Generated_Source\PSoC4/BLE_eventHandler.c ****         CyBle_HidscNotificationEventHandler(eventParam);
 608:.\Generated_Source\PSoC4/BLE_eventHandler.c ****     }
 609:.\Generated_Source\PSoC4/BLE_eventHandler.c **** #endif /* CYBLE_HIDS_CLIENT */
 610:.\Generated_Source\PSoC4/BLE_eventHandler.c **** #ifdef CYBLE_HRS_CLIENT
 611:.\Generated_Source\PSoC4/BLE_eventHandler.c ****     if((cyBle_eventHandlerFlag & CYBLE_CALLBACK) != 0u)
 612:.\Generated_Source\PSoC4/BLE_eventHandler.c ****     {
 613:.\Generated_Source\PSoC4/BLE_eventHandler.c ****         CyBle_HrscNotificationEventHandler(eventParam);
 614:.\Generated_Source\PSoC4/BLE_eventHandler.c ****     }
 615:.\Generated_Source\PSoC4/BLE_eventHandler.c **** #endif /* CYBLE_HRS_CLIENT */
 616:.\Generated_Source\PSoC4/BLE_eventHandler.c **** #ifdef CYBLE_HTS_CLIENT
 617:.\Generated_Source\PSoC4/BLE_eventHandler.c ****     if((cyBle_eventHandlerFlag & CYBLE_CALLBACK) != 0u)
 618:.\Generated_Source\PSoC4/BLE_eventHandler.c ****     {
 619:.\Generated_Source\PSoC4/BLE_eventHandler.c ****         CyBle_HtscNotificationEventHandler(eventParam);
 620:.\Generated_Source\PSoC4/BLE_eventHandler.c ****     }
 621:.\Generated_Source\PSoC4/BLE_eventHandler.c **** #endif /* CYBLE_HTS_CLIENT */
 622:.\Generated_Source\PSoC4/BLE_eventHandler.c **** #ifdef CYBLE_LNS_CLIENT
 623:.\Generated_Source\PSoC4/BLE_eventHandler.c ****     if((cyBle_eventHandlerFlag & CYBLE_CALLBACK) != 0u)
 624:.\Generated_Source\PSoC4/BLE_eventHandler.c ****     {
 625:.\Generated_Source\PSoC4/BLE_eventHandler.c ****         CyBle_LnscNotificationEventHandler(eventParam);
 626:.\Generated_Source\PSoC4/BLE_eventHandler.c ****     }
 627:.\Generated_Source\PSoC4/BLE_eventHandler.c **** #endif /* CYBLE_LNS_CLIENT */
 628:.\Generated_Source\PSoC4/BLE_eventHandler.c **** #ifdef CYBLE_PASS_CLIENT
 629:.\Generated_Source\PSoC4/BLE_eventHandler.c ****     if((cyBle_eventHandlerFlag & CYBLE_CALLBACK) != 0u)
 630:.\Generated_Source\PSoC4/BLE_eventHandler.c ****     {
 631:.\Generated_Source\PSoC4/BLE_eventHandler.c ****         CyBle_PasscNotificationEventHandler(eventParam);
 632:.\Generated_Source\PSoC4/BLE_eventHandler.c ****     }
 633:.\Generated_Source\PSoC4/BLE_eventHandler.c **** #endif /* CYBLE_PASS_CLIENT */
 634:.\Generated_Source\PSoC4/BLE_eventHandler.c **** #ifdef CYBLE_RSCS_CLIENT
 635:.\Generated_Source\PSoC4/BLE_eventHandler.c ****     if((cyBle_eventHandlerFlag & CYBLE_CALLBACK) != 0u)
 636:.\Generated_Source\PSoC4/BLE_eventHandler.c ****     {
 637:.\Generated_Source\PSoC4/BLE_eventHandler.c ****         CyBle_RscscNotificationEventHandler(eventParam);
 638:.\Generated_Source\PSoC4/BLE_eventHandler.c ****     }
 639:.\Generated_Source\PSoC4/BLE_eventHandler.c **** #endif /* CYBLE_RSCS_CLIENT */
 640:.\Generated_Source\PSoC4/BLE_eventHandler.c **** #ifdef CYBLE_SCPS_CLIENT
 641:.\Generated_Source\PSoC4/BLE_eventHandler.c ****     if((cyBle_eventHandlerFlag & CYBLE_CALLBACK) != 0u)
 642:.\Generated_Source\PSoC4/BLE_eventHandler.c ****     {
 643:.\Generated_Source\PSoC4/BLE_eventHandler.c ****         CyBle_ScpscNotificationEventHandler(eventParam);
 644:.\Generated_Source\PSoC4/BLE_eventHandler.c ****     }
 645:.\Generated_Source\PSoC4/BLE_eventHandler.c **** #endif /* CYBLE_SCPS_CLIENT */
 646:.\Generated_Source\PSoC4/BLE_eventHandler.c **** #ifdef CYBLE_TPS_CLIENT
ARM GAS  C:\Users\Zachary\AppData\Local\Temp\ccmvMQUz.s 			page 14


 647:.\Generated_Source\PSoC4/BLE_eventHandler.c ****     if((cyBle_eventHandlerFlag & CYBLE_CALLBACK) != 0u)
 648:.\Generated_Source\PSoC4/BLE_eventHandler.c ****     {
 649:.\Generated_Source\PSoC4/BLE_eventHandler.c ****         CyBle_TpscNotificationEventHandler(eventParam);
 650:.\Generated_Source\PSoC4/BLE_eventHandler.c ****     }
 651:.\Generated_Source\PSoC4/BLE_eventHandler.c **** #endif /* CYBLE_TPS_CLIENT */
 652:.\Generated_Source\PSoC4/BLE_eventHandler.c **** #ifdef CYBLE_UDS_CLIENT
 653:.\Generated_Source\PSoC4/BLE_eventHandler.c ****     if((cyBle_eventHandlerFlag & CYBLE_CALLBACK) != 0u)
 654:.\Generated_Source\PSoC4/BLE_eventHandler.c ****     {
 655:.\Generated_Source\PSoC4/BLE_eventHandler.c ****         CyBle_UdscNotificationEventHandler(eventParam);
 656:.\Generated_Source\PSoC4/BLE_eventHandler.c ****     }
 657:.\Generated_Source\PSoC4/BLE_eventHandler.c **** #endif /* CYBLE_UDS_CLIENT */
 658:.\Generated_Source\PSoC4/BLE_eventHandler.c **** }
  96              		.loc 1 658 0
  97 0008 BD46     		mov	sp, r7
  98 000a 02B0     		add	sp, sp, #8
  99              		@ sp needed
 100 000c 80BD     		pop	{r7, pc}
 101              		.cfi_endproc
 102              	.LFE3:
 103              		.size	CyBle_NotificationEventHandler, .-CyBle_NotificationEventHandler
 104              		.section	.text.CyBle_IndicationEventHandler,"ax",%progbits
 105              		.align	2
 106              		.code	16
 107              		.thumb_func
 108              		.type	CyBle_IndicationEventHandler, %function
 109              	CyBle_IndicationEventHandler:
 110              	.LFB4:
 659:.\Generated_Source\PSoC4/BLE_eventHandler.c **** 
 660:.\Generated_Source\PSoC4/BLE_eventHandler.c **** 
 661:.\Generated_Source\PSoC4/BLE_eventHandler.c **** /******************************************************************************    
 662:.\Generated_Source\PSoC4/BLE_eventHandler.c **** ##Function Name: CyBle_IndicationEventHandler
 663:.\Generated_Source\PSoC4/BLE_eventHandler.c **** *******************************************************************************
 664:.\Generated_Source\PSoC4/BLE_eventHandler.c **** 
 665:.\Generated_Source\PSoC4/BLE_eventHandler.c **** Summary:
 666:.\Generated_Source\PSoC4/BLE_eventHandler.c ****  Handles the Indication event from BLE stack.
 667:.\Generated_Source\PSoC4/BLE_eventHandler.c **** 
 668:.\Generated_Source\PSoC4/BLE_eventHandler.c **** Parameters:
 669:.\Generated_Source\PSoC4/BLE_eventHandler.c ****  CYBLE_GATTC_HANDLE_VALUE_IND_PARAM_T * eventParam - event parameter
 670:.\Generated_Source\PSoC4/BLE_eventHandler.c **** 
 671:.\Generated_Source\PSoC4/BLE_eventHandler.c **** Return:
 672:.\Generated_Source\PSoC4/BLE_eventHandler.c ****  None
 673:.\Generated_Source\PSoC4/BLE_eventHandler.c **** 
 674:.\Generated_Source\PSoC4/BLE_eventHandler.c **** ******************************************************************************/
 675:.\Generated_Source\PSoC4/BLE_eventHandler.c **** static void CyBle_IndicationEventHandler(CYBLE_GATTC_HANDLE_VALUE_IND_PARAM_T *eventParam)
 676:.\Generated_Source\PSoC4/BLE_eventHandler.c **** {
 111              		.loc 1 676 0
 112              		.cfi_startproc
 113 0000 80B5     		push	{r7, lr}
 114              		.cfi_def_cfa_offset 8
 115              		.cfi_offset 7, -8
 116              		.cfi_offset 14, -4
 117 0002 82B0     		sub	sp, sp, #8
 118              		.cfi_def_cfa_offset 16
 119 0004 00AF     		add	r7, sp, #0
 120              		.cfi_def_cfa_register 7
 121 0006 7860     		str	r0, [r7, #4]
 677:.\Generated_Source\PSoC4/BLE_eventHandler.c **** #ifdef CYBLE_BLS_CLIENT
ARM GAS  C:\Users\Zachary\AppData\Local\Temp\ccmvMQUz.s 			page 15


 678:.\Generated_Source\PSoC4/BLE_eventHandler.c ****     if((cyBle_eventHandlerFlag & CYBLE_CALLBACK) != 0u)
 679:.\Generated_Source\PSoC4/BLE_eventHandler.c ****     {
 680:.\Generated_Source\PSoC4/BLE_eventHandler.c ****         CyBle_BlscIndicationEventHandler(eventParam);
 681:.\Generated_Source\PSoC4/BLE_eventHandler.c ****     }
 682:.\Generated_Source\PSoC4/BLE_eventHandler.c **** #endif /* CYBLE_BLS_CLIENT */
 683:.\Generated_Source\PSoC4/BLE_eventHandler.c **** #ifdef CYBLE_CGMS_CLIENT
 684:.\Generated_Source\PSoC4/BLE_eventHandler.c ****     if((cyBle_eventHandlerFlag & CYBLE_CALLBACK) != 0u)
 685:.\Generated_Source\PSoC4/BLE_eventHandler.c ****     {
 686:.\Generated_Source\PSoC4/BLE_eventHandler.c ****         CyBle_CgmscIndicationEventHandler(eventParam);
 687:.\Generated_Source\PSoC4/BLE_eventHandler.c ****     }
 688:.\Generated_Source\PSoC4/BLE_eventHandler.c **** #endif /* CYBLE_CGMS_CLIENT */
 689:.\Generated_Source\PSoC4/BLE_eventHandler.c **** #ifdef CYBLE_CPS_CLIENT
 690:.\Generated_Source\PSoC4/BLE_eventHandler.c ****     if((cyBle_eventHandlerFlag & CYBLE_CALLBACK) != 0u)
 691:.\Generated_Source\PSoC4/BLE_eventHandler.c ****     {
 692:.\Generated_Source\PSoC4/BLE_eventHandler.c ****         CyBle_CpscIndicationEventHandler(eventParam);
 693:.\Generated_Source\PSoC4/BLE_eventHandler.c ****     }
 694:.\Generated_Source\PSoC4/BLE_eventHandler.c **** #endif /* CYBLE_CPS_CLIENT */
 695:.\Generated_Source\PSoC4/BLE_eventHandler.c **** #ifdef CYBLE_CSCS_CLIENT
 696:.\Generated_Source\PSoC4/BLE_eventHandler.c ****     if((cyBle_eventHandlerFlag & CYBLE_CALLBACK) != 0u)
 697:.\Generated_Source\PSoC4/BLE_eventHandler.c ****     {
 698:.\Generated_Source\PSoC4/BLE_eventHandler.c ****         CyBle_CscscIndicationEventHandler(eventParam);
 699:.\Generated_Source\PSoC4/BLE_eventHandler.c ****     }
 700:.\Generated_Source\PSoC4/BLE_eventHandler.c **** #endif /* CYBLE_CSCS_CLIENT */
 701:.\Generated_Source\PSoC4/BLE_eventHandler.c **** #ifdef CYBLE_GLS_CLIENT
 702:.\Generated_Source\PSoC4/BLE_eventHandler.c ****     if((cyBle_eventHandlerFlag & CYBLE_CALLBACK) != 0u)
 703:.\Generated_Source\PSoC4/BLE_eventHandler.c ****     {
 704:.\Generated_Source\PSoC4/BLE_eventHandler.c ****         CyBle_GlscIndicationEventHandler(eventParam);
 705:.\Generated_Source\PSoC4/BLE_eventHandler.c ****     }
 706:.\Generated_Source\PSoC4/BLE_eventHandler.c **** #endif /* CYBLE_GLS_CLIENT */
 707:.\Generated_Source\PSoC4/BLE_eventHandler.c **** #ifdef CYBLE_HTS_CLIENT
 708:.\Generated_Source\PSoC4/BLE_eventHandler.c ****     if((cyBle_eventHandlerFlag & CYBLE_CALLBACK) != 0u)
 709:.\Generated_Source\PSoC4/BLE_eventHandler.c ****     {
 710:.\Generated_Source\PSoC4/BLE_eventHandler.c ****         CyBle_HtscIndicationEventHandler(eventParam);
 711:.\Generated_Source\PSoC4/BLE_eventHandler.c ****     }
 712:.\Generated_Source\PSoC4/BLE_eventHandler.c **** #endif /* CYBLE_HTS_CLIENT */
 713:.\Generated_Source\PSoC4/BLE_eventHandler.c **** #ifdef CYBLE_LNS_CLIENT
 714:.\Generated_Source\PSoC4/BLE_eventHandler.c ****     if((cyBle_eventHandlerFlag & CYBLE_CALLBACK) != 0u)
 715:.\Generated_Source\PSoC4/BLE_eventHandler.c ****     {
 716:.\Generated_Source\PSoC4/BLE_eventHandler.c ****         CyBle_LnscIndicationEventHandler(eventParam);
 717:.\Generated_Source\PSoC4/BLE_eventHandler.c ****     }
 718:.\Generated_Source\PSoC4/BLE_eventHandler.c **** #endif /* CYBLE_LNS_CLIENT */
 719:.\Generated_Source\PSoC4/BLE_eventHandler.c **** #ifdef CYBLE_RSCS_CLIENT
 720:.\Generated_Source\PSoC4/BLE_eventHandler.c ****     if((cyBle_eventHandlerFlag & CYBLE_CALLBACK) != 0u)
 721:.\Generated_Source\PSoC4/BLE_eventHandler.c ****     {
 722:.\Generated_Source\PSoC4/BLE_eventHandler.c ****         CyBle_RscscIndicationEventHandler(eventParam);
 723:.\Generated_Source\PSoC4/BLE_eventHandler.c ****     }
 724:.\Generated_Source\PSoC4/BLE_eventHandler.c **** #endif /* CYBLE_RSCS_CLIENT */
 725:.\Generated_Source\PSoC4/BLE_eventHandler.c **** #ifdef CYBLE_UDS_CLIENT
 726:.\Generated_Source\PSoC4/BLE_eventHandler.c ****     if((cyBle_eventHandlerFlag & CYBLE_CALLBACK) != 0u)
 727:.\Generated_Source\PSoC4/BLE_eventHandler.c ****     {
 728:.\Generated_Source\PSoC4/BLE_eventHandler.c ****         CyBle_UdscIndicationEventHandler(eventParam);
 729:.\Generated_Source\PSoC4/BLE_eventHandler.c ****     }
 730:.\Generated_Source\PSoC4/BLE_eventHandler.c **** #endif /* CYBLE_UDS_CLIENT */
 731:.\Generated_Source\PSoC4/BLE_eventHandler.c **** }
 122              		.loc 1 731 0
 123 0008 BD46     		mov	sp, r7
 124 000a 02B0     		add	sp, sp, #8
ARM GAS  C:\Users\Zachary\AppData\Local\Temp\ccmvMQUz.s 			page 16


 125              		@ sp needed
 126 000c 80BD     		pop	{r7, pc}
 127              		.cfi_endproc
 128              	.LFE4:
 129              		.size	CyBle_IndicationEventHandler, .-CyBle_IndicationEventHandler
 130              		.section	.text.CyBle_ReadResponseEventHandler,"ax",%progbits
 131              		.align	2
 132              		.code	16
 133              		.thumb_func
 134              		.type	CyBle_ReadResponseEventHandler, %function
 135              	CyBle_ReadResponseEventHandler:
 136              	.LFB5:
 732:.\Generated_Source\PSoC4/BLE_eventHandler.c **** 
 733:.\Generated_Source\PSoC4/BLE_eventHandler.c **** 
 734:.\Generated_Source\PSoC4/BLE_eventHandler.c **** 
 735:.\Generated_Source\PSoC4/BLE_eventHandler.c **** /******************************************************************************    
 736:.\Generated_Source\PSoC4/BLE_eventHandler.c **** ##Function Name: CyBle_ReadResponseEventHandler
 737:.\Generated_Source\PSoC4/BLE_eventHandler.c **** *******************************************************************************
 738:.\Generated_Source\PSoC4/BLE_eventHandler.c **** 
 739:.\Generated_Source\PSoC4/BLE_eventHandler.c **** Summary:
 740:.\Generated_Source\PSoC4/BLE_eventHandler.c ****  Handles the Read Response event from BLE stack.
 741:.\Generated_Source\PSoC4/BLE_eventHandler.c **** 
 742:.\Generated_Source\PSoC4/BLE_eventHandler.c **** Parameters:
 743:.\Generated_Source\PSoC4/BLE_eventHandler.c ****  CYBLE_GATTC_READ_RSP_PARAM_T * eventParam - event parameter
 744:.\Generated_Source\PSoC4/BLE_eventHandler.c **** 
 745:.\Generated_Source\PSoC4/BLE_eventHandler.c **** Return:
 746:.\Generated_Source\PSoC4/BLE_eventHandler.c ****  None
 747:.\Generated_Source\PSoC4/BLE_eventHandler.c **** 
 748:.\Generated_Source\PSoC4/BLE_eventHandler.c **** ******************************************************************************/
 749:.\Generated_Source\PSoC4/BLE_eventHandler.c **** static void CyBle_ReadResponseEventHandler(CYBLE_GATTC_READ_RSP_PARAM_T *eventParam)
 750:.\Generated_Source\PSoC4/BLE_eventHandler.c **** {
 137              		.loc 1 750 0
 138              		.cfi_startproc
 139 0000 80B5     		push	{r7, lr}
 140              		.cfi_def_cfa_offset 8
 141              		.cfi_offset 7, -8
 142              		.cfi_offset 14, -4
 143 0002 82B0     		sub	sp, sp, #8
 144              		.cfi_def_cfa_offset 16
 145 0004 00AF     		add	r7, sp, #0
 146              		.cfi_def_cfa_register 7
 147 0006 7860     		str	r0, [r7, #4]
 751:.\Generated_Source\PSoC4/BLE_eventHandler.c **** #ifdef CYBLE_ANS_CLIENT
 752:.\Generated_Source\PSoC4/BLE_eventHandler.c ****     CyBle_AnscReadResponseEventHandler(eventParam);
 753:.\Generated_Source\PSoC4/BLE_eventHandler.c **** #endif /* CYBLE_ANS_CLIENT */
 754:.\Generated_Source\PSoC4/BLE_eventHandler.c **** #ifdef CYBLE_BAS_CLIENT
 755:.\Generated_Source\PSoC4/BLE_eventHandler.c ****     if((cyBle_eventHandlerFlag & CYBLE_CALLBACK) != 0u)
 756:.\Generated_Source\PSoC4/BLE_eventHandler.c ****     {
 757:.\Generated_Source\PSoC4/BLE_eventHandler.c ****         CyBle_BascReadResponseEventHandler(eventParam);
 758:.\Generated_Source\PSoC4/BLE_eventHandler.c ****     }
 759:.\Generated_Source\PSoC4/BLE_eventHandler.c **** #endif /* CYBLE_BAS_CLIENT */
 760:.\Generated_Source\PSoC4/BLE_eventHandler.c **** #ifdef CYBLE_BLS_CLIENT
 761:.\Generated_Source\PSoC4/BLE_eventHandler.c ****     if((cyBle_eventHandlerFlag & CYBLE_CALLBACK) != 0u)
 762:.\Generated_Source\PSoC4/BLE_eventHandler.c ****     {
 763:.\Generated_Source\PSoC4/BLE_eventHandler.c ****         CyBle_BlscReadResponseEventHandler(eventParam);
 764:.\Generated_Source\PSoC4/BLE_eventHandler.c ****     }
 765:.\Generated_Source\PSoC4/BLE_eventHandler.c **** #endif /* CYBLE_BLS_CLIENT */
ARM GAS  C:\Users\Zachary\AppData\Local\Temp\ccmvMQUz.s 			page 17


 766:.\Generated_Source\PSoC4/BLE_eventHandler.c **** #ifdef CYBLE_CGMS_CLIENT
 767:.\Generated_Source\PSoC4/BLE_eventHandler.c ****     if((cyBle_eventHandlerFlag & CYBLE_CALLBACK) != 0u)
 768:.\Generated_Source\PSoC4/BLE_eventHandler.c ****     {
 769:.\Generated_Source\PSoC4/BLE_eventHandler.c ****         CyBle_CgmscReadResponseEventHandler(eventParam);
 770:.\Generated_Source\PSoC4/BLE_eventHandler.c ****     }
 771:.\Generated_Source\PSoC4/BLE_eventHandler.c **** #endif /* CYBLE_CGMS_CLIENT */
 772:.\Generated_Source\PSoC4/BLE_eventHandler.c **** #ifdef CYBLE_CPS_CLIENT
 773:.\Generated_Source\PSoC4/BLE_eventHandler.c ****     if((cyBle_eventHandlerFlag & CYBLE_CALLBACK) != 0u)
 774:.\Generated_Source\PSoC4/BLE_eventHandler.c ****     {
 775:.\Generated_Source\PSoC4/BLE_eventHandler.c ****         CyBle_CpscReadResponseEventHandler(eventParam);
 776:.\Generated_Source\PSoC4/BLE_eventHandler.c ****     }
 777:.\Generated_Source\PSoC4/BLE_eventHandler.c **** #endif /* CYBLE_CPS_CLIENT */
 778:.\Generated_Source\PSoC4/BLE_eventHandler.c **** #ifdef CYBLE_CSCS_CLIENT
 779:.\Generated_Source\PSoC4/BLE_eventHandler.c ****     if((cyBle_eventHandlerFlag & CYBLE_CALLBACK) != 0u)
 780:.\Generated_Source\PSoC4/BLE_eventHandler.c ****     {
 781:.\Generated_Source\PSoC4/BLE_eventHandler.c ****         CyBle_CscscReadResponseEventHandler(eventParam);
 782:.\Generated_Source\PSoC4/BLE_eventHandler.c ****     }
 783:.\Generated_Source\PSoC4/BLE_eventHandler.c **** #endif /* CYBLE_CSCS_CLIENT */
 784:.\Generated_Source\PSoC4/BLE_eventHandler.c **** #ifdef CYBLE_CTS_CLIENT
 785:.\Generated_Source\PSoC4/BLE_eventHandler.c ****     if((cyBle_eventHandlerFlag & CYBLE_CALLBACK) != 0u)
 786:.\Generated_Source\PSoC4/BLE_eventHandler.c ****     {
 787:.\Generated_Source\PSoC4/BLE_eventHandler.c ****         CyBle_CtscReadResponseEventHandler(eventParam);
 788:.\Generated_Source\PSoC4/BLE_eventHandler.c ****     }
 789:.\Generated_Source\PSoC4/BLE_eventHandler.c **** #endif /* CYBLE_BAS_CLIENT */
 790:.\Generated_Source\PSoC4/BLE_eventHandler.c **** #ifdef CYBLE_DIS_CLIENT
 791:.\Generated_Source\PSoC4/BLE_eventHandler.c ****     if((cyBle_eventHandlerFlag & CYBLE_CALLBACK) != 0u)
 792:.\Generated_Source\PSoC4/BLE_eventHandler.c ****     {
 793:.\Generated_Source\PSoC4/BLE_eventHandler.c ****         CyBle_DiscReadResponseEventHandler(eventParam);
 794:.\Generated_Source\PSoC4/BLE_eventHandler.c ****     }
 795:.\Generated_Source\PSoC4/BLE_eventHandler.c **** #endif /* CYBLE_DIS_CLIENT */
 796:.\Generated_Source\PSoC4/BLE_eventHandler.c **** #ifdef CYBLE_GLS_CLIENT
 797:.\Generated_Source\PSoC4/BLE_eventHandler.c ****     if((cyBle_eventHandlerFlag & CYBLE_CALLBACK) != 0u)
 798:.\Generated_Source\PSoC4/BLE_eventHandler.c ****     {
 799:.\Generated_Source\PSoC4/BLE_eventHandler.c ****         CyBle_GlscReadResponseEventHandler(eventParam);
 800:.\Generated_Source\PSoC4/BLE_eventHandler.c ****     }
 801:.\Generated_Source\PSoC4/BLE_eventHandler.c **** #endif /* CYBLE_GLS_CLIENT */
 802:.\Generated_Source\PSoC4/BLE_eventHandler.c **** #ifdef CYBLE_HIDS_CLIENT
 803:.\Generated_Source\PSoC4/BLE_eventHandler.c ****     if((cyBle_eventHandlerFlag & CYBLE_CALLBACK) != 0u)
 804:.\Generated_Source\PSoC4/BLE_eventHandler.c ****     {
 805:.\Generated_Source\PSoC4/BLE_eventHandler.c ****         CyBle_HidscReadResponseEventHandler(eventParam);
 806:.\Generated_Source\PSoC4/BLE_eventHandler.c ****     }
 807:.\Generated_Source\PSoC4/BLE_eventHandler.c **** #endif /* CYBLE_HIDS_CLIENT */
 808:.\Generated_Source\PSoC4/BLE_eventHandler.c **** #ifdef CYBLE_HRS_CLIENT
 809:.\Generated_Source\PSoC4/BLE_eventHandler.c ****     if((cyBle_eventHandlerFlag & CYBLE_CALLBACK) != 0u)
 810:.\Generated_Source\PSoC4/BLE_eventHandler.c ****     {
 811:.\Generated_Source\PSoC4/BLE_eventHandler.c ****         CyBle_HrscReadResponseEventHandler(eventParam);
 812:.\Generated_Source\PSoC4/BLE_eventHandler.c ****     }
 813:.\Generated_Source\PSoC4/BLE_eventHandler.c **** #endif /* CYBLE_HRS_CLIENT */
 814:.\Generated_Source\PSoC4/BLE_eventHandler.c **** #ifdef CYBLE_HTS_CLIENT
 815:.\Generated_Source\PSoC4/BLE_eventHandler.c ****     if((cyBle_eventHandlerFlag & CYBLE_CALLBACK) != 0u)
 816:.\Generated_Source\PSoC4/BLE_eventHandler.c ****     {
 817:.\Generated_Source\PSoC4/BLE_eventHandler.c ****         CyBle_HtscReadResponseEventHandler(eventParam);
 818:.\Generated_Source\PSoC4/BLE_eventHandler.c ****     }
 819:.\Generated_Source\PSoC4/BLE_eventHandler.c **** #endif /* CYBLE_HTS_CLIENT */
 820:.\Generated_Source\PSoC4/BLE_eventHandler.c **** #ifdef CYBLE_LLS_CLIENT
 821:.\Generated_Source\PSoC4/BLE_eventHandler.c ****     if((cyBle_eventHandlerFlag & CYBLE_CALLBACK) != 0u)
 822:.\Generated_Source\PSoC4/BLE_eventHandler.c ****     {
ARM GAS  C:\Users\Zachary\AppData\Local\Temp\ccmvMQUz.s 			page 18


 823:.\Generated_Source\PSoC4/BLE_eventHandler.c ****         CyBle_LlscReadResponseEventHandler(eventParam);
 824:.\Generated_Source\PSoC4/BLE_eventHandler.c ****     }
 825:.\Generated_Source\PSoC4/BLE_eventHandler.c **** #endif /* CYBLE_LLS_CLIENT */
 826:.\Generated_Source\PSoC4/BLE_eventHandler.c **** #ifdef CYBLE_LNS_CLIENT
 827:.\Generated_Source\PSoC4/BLE_eventHandler.c ****     if((cyBle_eventHandlerFlag & CYBLE_CALLBACK) != 0u)
 828:.\Generated_Source\PSoC4/BLE_eventHandler.c ****     {
 829:.\Generated_Source\PSoC4/BLE_eventHandler.c ****         CyBle_LnscReadResponseEventHandler(eventParam);
 830:.\Generated_Source\PSoC4/BLE_eventHandler.c ****     }
 831:.\Generated_Source\PSoC4/BLE_eventHandler.c **** #endif /* CYBLE_LNS_CLIENT */
 832:.\Generated_Source\PSoC4/BLE_eventHandler.c **** #ifdef CYBLE_NDCS_CLIENT
 833:.\Generated_Source\PSoC4/BLE_eventHandler.c ****     if((cyBle_eventHandlerFlag & CYBLE_CALLBACK) != 0u)
 834:.\Generated_Source\PSoC4/BLE_eventHandler.c ****     {
 835:.\Generated_Source\PSoC4/BLE_eventHandler.c ****         CyBle_NdcscReadResponseEventHandler(eventParam);
 836:.\Generated_Source\PSoC4/BLE_eventHandler.c ****     }
 837:.\Generated_Source\PSoC4/BLE_eventHandler.c **** #endif /* CYBLE_NDCS_CLIENT */
 838:.\Generated_Source\PSoC4/BLE_eventHandler.c **** #ifdef CYBLE_PASS_CLIENT
 839:.\Generated_Source\PSoC4/BLE_eventHandler.c ****     if((cyBle_eventHandlerFlag & CYBLE_CALLBACK) != 0u)
 840:.\Generated_Source\PSoC4/BLE_eventHandler.c ****     {
 841:.\Generated_Source\PSoC4/BLE_eventHandler.c ****         CyBle_PasscReadResponseEventHandler(eventParam);
 842:.\Generated_Source\PSoC4/BLE_eventHandler.c ****     }
 843:.\Generated_Source\PSoC4/BLE_eventHandler.c **** #endif /* CYBLE_PASS_CLIENT */
 844:.\Generated_Source\PSoC4/BLE_eventHandler.c **** #ifdef CYBLE_RSCS_CLIENT
 845:.\Generated_Source\PSoC4/BLE_eventHandler.c ****     if((cyBle_eventHandlerFlag & CYBLE_CALLBACK) != 0u)
 846:.\Generated_Source\PSoC4/BLE_eventHandler.c ****     {
 847:.\Generated_Source\PSoC4/BLE_eventHandler.c ****         CyBle_RscscReadResponseEventHandler(eventParam);
 848:.\Generated_Source\PSoC4/BLE_eventHandler.c ****     }
 849:.\Generated_Source\PSoC4/BLE_eventHandler.c **** #endif /* CYBLE_RSCS_CLIENT */
 850:.\Generated_Source\PSoC4/BLE_eventHandler.c **** #ifdef CYBLE_RTUS_CLIENT
 851:.\Generated_Source\PSoC4/BLE_eventHandler.c ****     if((cyBle_eventHandlerFlag & CYBLE_CALLBACK) != 0u)
 852:.\Generated_Source\PSoC4/BLE_eventHandler.c ****     {
 853:.\Generated_Source\PSoC4/BLE_eventHandler.c ****         CyBle_RtuscReadResponseEventHandler(eventParam);
 854:.\Generated_Source\PSoC4/BLE_eventHandler.c ****     }
 855:.\Generated_Source\PSoC4/BLE_eventHandler.c **** #endif /* CYBLE_RTUS_CLIENT */
 856:.\Generated_Source\PSoC4/BLE_eventHandler.c **** #ifdef CYBLE_SCPS_CLIENT
 857:.\Generated_Source\PSoC4/BLE_eventHandler.c ****     if((cyBle_eventHandlerFlag & CYBLE_CALLBACK) != 0u)
 858:.\Generated_Source\PSoC4/BLE_eventHandler.c ****     {
 859:.\Generated_Source\PSoC4/BLE_eventHandler.c ****         CyBle_ScpscReadResponseEventHandler(eventParam);
 860:.\Generated_Source\PSoC4/BLE_eventHandler.c ****     }
 861:.\Generated_Source\PSoC4/BLE_eventHandler.c **** #endif /* CYBLE_SCPS_CLIENT */
 862:.\Generated_Source\PSoC4/BLE_eventHandler.c **** #ifdef CYBLE_TPS_CLIENT
 863:.\Generated_Source\PSoC4/BLE_eventHandler.c ****     if((cyBle_eventHandlerFlag & CYBLE_CALLBACK) != 0u)
 864:.\Generated_Source\PSoC4/BLE_eventHandler.c ****     {
 865:.\Generated_Source\PSoC4/BLE_eventHandler.c ****         CyBle_TpscReadResponseEventHandler(eventParam);
 866:.\Generated_Source\PSoC4/BLE_eventHandler.c ****     }
 867:.\Generated_Source\PSoC4/BLE_eventHandler.c **** #endif /* CYBLE_TPS_CLIENT */
 868:.\Generated_Source\PSoC4/BLE_eventHandler.c **** #ifdef CYBLE_UDS_CLIENT
 869:.\Generated_Source\PSoC4/BLE_eventHandler.c ****     if((cyBle_eventHandlerFlag & CYBLE_CALLBACK) != 0u)
 870:.\Generated_Source\PSoC4/BLE_eventHandler.c ****     {
 871:.\Generated_Source\PSoC4/BLE_eventHandler.c ****         CyBle_UdscReadResponseEventHandler(eventParam);
 872:.\Generated_Source\PSoC4/BLE_eventHandler.c ****     }
 873:.\Generated_Source\PSoC4/BLE_eventHandler.c **** #endif /* CYBLE_UDS_CLIENT */
 874:.\Generated_Source\PSoC4/BLE_eventHandler.c **** }
 148              		.loc 1 874 0
 149 0008 BD46     		mov	sp, r7
 150 000a 02B0     		add	sp, sp, #8
 151              		@ sp needed
 152 000c 80BD     		pop	{r7, pc}
ARM GAS  C:\Users\Zachary\AppData\Local\Temp\ccmvMQUz.s 			page 19


 153              		.cfi_endproc
 154              	.LFE5:
 155              		.size	CyBle_ReadResponseEventHandler, .-CyBle_ReadResponseEventHandler
 156              		.section	.text.CyBle_GattDisconnectEventHandler,"ax",%progbits
 157              		.align	2
 158              		.code	16
 159              		.thumb_func
 160              		.type	CyBle_GattDisconnectEventHandler, %function
 161              	CyBle_GattDisconnectEventHandler:
 162              	.LFB6:
 875:.\Generated_Source\PSoC4/BLE_eventHandler.c **** #endif /* CYBLE_GATT_ROLE_CLIENT */
 876:.\Generated_Source\PSoC4/BLE_eventHandler.c **** 
 877:.\Generated_Source\PSoC4/BLE_eventHandler.c **** 
 878:.\Generated_Source\PSoC4/BLE_eventHandler.c **** /****************************************************************************** 
 879:.\Generated_Source\PSoC4/BLE_eventHandler.c **** ##Function Name: CyBle_DisconnectEventHandler
 880:.\Generated_Source\PSoC4/BLE_eventHandler.c **** *******************************************************************************
 881:.\Generated_Source\PSoC4/BLE_eventHandler.c **** 
 882:.\Generated_Source\PSoC4/BLE_eventHandler.c **** Summary:
 883:.\Generated_Source\PSoC4/BLE_eventHandler.c ****  Handles the GATT Disconnection event from the BLE stack.
 884:.\Generated_Source\PSoC4/BLE_eventHandler.c **** 
 885:.\Generated_Source\PSoC4/BLE_eventHandler.c **** Parameters:
 886:.\Generated_Source\PSoC4/BLE_eventHandler.c ****  None
 887:.\Generated_Source\PSoC4/BLE_eventHandler.c **** 
 888:.\Generated_Source\PSoC4/BLE_eventHandler.c **** Return:
 889:.\Generated_Source\PSoC4/BLE_eventHandler.c ****  None
 890:.\Generated_Source\PSoC4/BLE_eventHandler.c **** 
 891:.\Generated_Source\PSoC4/BLE_eventHandler.c **** ******************************************************************************/
 892:.\Generated_Source\PSoC4/BLE_eventHandler.c **** static void CyBle_GattDisconnectEventHandler(void)
 893:.\Generated_Source\PSoC4/BLE_eventHandler.c **** {
 163              		.loc 1 893 0
 164              		.cfi_startproc
 165 0000 80B5     		push	{r7, lr}
 166              		.cfi_def_cfa_offset 8
 167              		.cfi_offset 7, -8
 168              		.cfi_offset 14, -4
 169 0002 00AF     		add	r7, sp, #0
 170              		.cfi_def_cfa_register 7
 894:.\Generated_Source\PSoC4/BLE_eventHandler.c ****     cyBle_connHandle.attId = 0u;
 171              		.loc 1 894 0
 172 0004 094B     		ldr	r3, .L8
 173 0006 0022     		mov	r2, #0
 174 0008 5A70     		strb	r2, [r3, #1]
 895:.\Generated_Source\PSoC4/BLE_eventHandler.c ****     cyBle_connHandle.bdHandle = 0u;
 175              		.loc 1 895 0
 176 000a 084B     		ldr	r3, .L8
 177 000c 0022     		mov	r2, #0
 178 000e 1A70     		strb	r2, [r3]
 896:.\Generated_Source\PSoC4/BLE_eventHandler.c ****     
 897:.\Generated_Source\PSoC4/BLE_eventHandler.c ****     #if (CYBLE_GATT_ROLE_CLIENT)
 898:.\Generated_Source\PSoC4/BLE_eventHandler.c ****         if(CYBLE_CLIENT_STATE_DISCOVERED == CyBle_GetClientState())
 179              		.loc 1 898 0
 180 0010 074B     		ldr	r3, .L8+4
 181 0012 1B78     		ldrb	r3, [r3]
 182 0014 052B     		cmp	r3, #5
 183 0016 03D1     		bne	.L6
 899:.\Generated_Source\PSoC4/BLE_eventHandler.c ****         {
 900:.\Generated_Source\PSoC4/BLE_eventHandler.c ****             CyBle_SetClientState(CYBLE_CLIENT_STATE_DISCONNECTED_DISCOVERED);
ARM GAS  C:\Users\Zachary\AppData\Local\Temp\ccmvMQUz.s 			page 20


 184              		.loc 1 900 0
 185 0018 054B     		ldr	r3, .L8+4
 186 001a 0722     		mov	r2, #7
 187 001c 1A70     		strb	r2, [r3]
 188 001e 02E0     		b	.L5
 189              	.L6:
 901:.\Generated_Source\PSoC4/BLE_eventHandler.c ****         }
 902:.\Generated_Source\PSoC4/BLE_eventHandler.c ****         else
 903:.\Generated_Source\PSoC4/BLE_eventHandler.c ****         {
 904:.\Generated_Source\PSoC4/BLE_eventHandler.c ****             CyBle_SetClientState(CYBLE_CLIENT_STATE_DISCONNECTED);
 190              		.loc 1 904 0
 191 0020 034B     		ldr	r3, .L8+4
 192 0022 0822     		mov	r2, #8
 193 0024 1A70     		strb	r2, [r3]
 194              	.L5:
 905:.\Generated_Source\PSoC4/BLE_eventHandler.c ****         }
 906:.\Generated_Source\PSoC4/BLE_eventHandler.c ****     #endif /* CYBLE_GATT_ROLE_CLIENT */
 907:.\Generated_Source\PSoC4/BLE_eventHandler.c ****         
 908:.\Generated_Source\PSoC4/BLE_eventHandler.c ****     #ifdef CYBLE_CPS_SERVER
 909:.\Generated_Source\PSoC4/BLE_eventHandler.c ****         #if CYBLE_GAP_ROLE_BROADCASTER
 910:.\Generated_Source\PSoC4/BLE_eventHandler.c ****             CyBle_CpssDisconnectEventHandler();
 911:.\Generated_Source\PSoC4/BLE_eventHandler.c ****         #endif /* CYBLE_GAP_ROLE_BROADCASTER */
 912:.\Generated_Source\PSoC4/BLE_eventHandler.c ****     #endif /* CYBLE_CPS_SERVER */
 913:.\Generated_Source\PSoC4/BLE_eventHandler.c **** 
 914:.\Generated_Source\PSoC4/BLE_eventHandler.c ****     #ifdef CYBLE_CPS_CLIENT
 915:.\Generated_Source\PSoC4/BLE_eventHandler.c ****         CyBle_CpscDisconnectEventHandler();
 916:.\Generated_Source\PSoC4/BLE_eventHandler.c ****     #endif /* CYBLE_CPS_CLIENT */
 917:.\Generated_Source\PSoC4/BLE_eventHandler.c **** 
 918:.\Generated_Source\PSoC4/BLE_eventHandler.c ****     #ifdef CYBLE_IAS_SERVER
 919:.\Generated_Source\PSoC4/BLE_eventHandler.c ****         CyBle_IassDisconnectEventHandler();
 920:.\Generated_Source\PSoC4/BLE_eventHandler.c ****     #endif /* CYBLE_IAS_SERVER */
 921:.\Generated_Source\PSoC4/BLE_eventHandler.c ****     
 922:.\Generated_Source\PSoC4/BLE_eventHandler.c ****     #ifdef CYBLE_GLS_SERVER
 923:.\Generated_Source\PSoC4/BLE_eventHandler.c ****         CyBle_GlsInit();
 924:.\Generated_Source\PSoC4/BLE_eventHandler.c ****     #endif /* CYBLE_GLS_SERVER */
 925:.\Generated_Source\PSoC4/BLE_eventHandler.c ****     
 926:.\Generated_Source\PSoC4/BLE_eventHandler.c ****     #ifdef CYBLE_LNS_SERVER
 927:.\Generated_Source\PSoC4/BLE_eventHandler.c ****         CyBle_LnsInit();
 928:.\Generated_Source\PSoC4/BLE_eventHandler.c ****     #endif /* CYBLE_LNS_SERVER */
 929:.\Generated_Source\PSoC4/BLE_eventHandler.c ****     
 930:.\Generated_Source\PSoC4/BLE_eventHandler.c ****     #ifdef CYBLE_UDS_SERVER
 931:.\Generated_Source\PSoC4/BLE_eventHandler.c ****         CyBle_UdsInit();
 932:.\Generated_Source\PSoC4/BLE_eventHandler.c ****     #endif /* CYBLE_UDS_SERVER */
 933:.\Generated_Source\PSoC4/BLE_eventHandler.c **** }
 195              		.loc 1 933 0
 196 0026 BD46     		mov	sp, r7
 197              		@ sp needed
 198 0028 80BD     		pop	{r7, pc}
 199              	.L9:
 200 002a C046     		.align	2
 201              	.L8:
 202 002c 00000000 		.word	cyBle_connHandle
 203 0030 00000000 		.word	cyBle_clientState
 204              		.cfi_endproc
 205              	.LFE6:
 206              		.size	CyBle_GattDisconnectEventHandler, .-CyBle_GattDisconnectEventHandler
 207              		.section	.text.CyBle_TimeOutEventHandler,"ax",%progbits
ARM GAS  C:\Users\Zachary\AppData\Local\Temp\ccmvMQUz.s 			page 21


 208              		.align	2
 209              		.code	16
 210              		.thumb_func
 211              		.type	CyBle_TimeOutEventHandler, %function
 212              	CyBle_TimeOutEventHandler:
 213              	.LFB7:
 934:.\Generated_Source\PSoC4/BLE_eventHandler.c **** 
 935:.\Generated_Source\PSoC4/BLE_eventHandler.c **** 
 936:.\Generated_Source\PSoC4/BLE_eventHandler.c **** /****************************************************************************** 
 937:.\Generated_Source\PSoC4/BLE_eventHandler.c **** ##Function Name: CyBle_TimeOutEventHandler
 938:.\Generated_Source\PSoC4/BLE_eventHandler.c **** *******************************************************************************
 939:.\Generated_Source\PSoC4/BLE_eventHandler.c **** 
 940:.\Generated_Source\PSoC4/BLE_eventHandler.c **** Summary:
 941:.\Generated_Source\PSoC4/BLE_eventHandler.c ****  Handles the CYBLE_EVT_TIMEOUT event from the BLE stack.
 942:.\Generated_Source\PSoC4/BLE_eventHandler.c **** 
 943:.\Generated_Source\PSoC4/BLE_eventHandler.c **** Parameters:
 944:.\Generated_Source\PSoC4/BLE_eventHandler.c ****  *eventParam - The pointer to a structure of type CYBLE_TO_REASON_CODE_T.
 945:.\Generated_Source\PSoC4/BLE_eventHandler.c **** 
 946:.\Generated_Source\PSoC4/BLE_eventHandler.c **** Return:
 947:.\Generated_Source\PSoC4/BLE_eventHandler.c ****  None
 948:.\Generated_Source\PSoC4/BLE_eventHandler.c **** 
 949:.\Generated_Source\PSoC4/BLE_eventHandler.c **** ******************************************************************************/
 950:.\Generated_Source\PSoC4/BLE_eventHandler.c **** static void CyBle_TimeOutEventHandler(const CYBLE_TO_REASON_CODE_T *eventParam)
 951:.\Generated_Source\PSoC4/BLE_eventHandler.c **** {
 214              		.loc 1 951 0
 215              		.cfi_startproc
 216 0000 80B5     		push	{r7, lr}
 217              		.cfi_def_cfa_offset 8
 218              		.cfi_offset 7, -8
 219              		.cfi_offset 14, -4
 220 0002 82B0     		sub	sp, sp, #8
 221              		.cfi_def_cfa_offset 16
 222 0004 00AF     		add	r7, sp, #0
 223              		.cfi_def_cfa_register 7
 224 0006 7860     		str	r0, [r7, #4]
 952:.\Generated_Source\PSoC4/BLE_eventHandler.c ****     if(*eventParam == CYBLE_GATT_RSP_TO)
 225              		.loc 1 952 0
 226 0008 7B68     		ldr	r3, [r7, #4]
 227 000a 1B78     		ldrb	r3, [r3]
 228 000c 032B     		cmp	r3, #3
 229 000e 3ED1     		bne	.L11
 953:.\Generated_Source\PSoC4/BLE_eventHandler.c ****     {
 954:.\Generated_Source\PSoC4/BLE_eventHandler.c ****     #if (CYBLE_GATT_ROLE_CLIENT)
 955:.\Generated_Source\PSoC4/BLE_eventHandler.c ****         if(0u != (cyBle_eventHandlerFlag & CYBLE_AUTO_DISCOVERY))
 230              		.loc 1 955 0
 231 0010 254B     		ldr	r3, .L20
 232 0012 1B78     		ldrb	r3, [r3]
 233 0014 DBB2     		uxtb	r3, r3
 234 0016 1A1C     		mov	r2, r3
 235 0018 0223     		mov	r3, #2
 236 001a 1340     		and	r3, r2
 237 001c 37D0     		beq	.L11
 956:.\Generated_Source\PSoC4/BLE_eventHandler.c ****         {
 957:.\Generated_Source\PSoC4/BLE_eventHandler.c ****             switch(CyBle_GetClientState())
 238              		.loc 1 957 0
 239 001e 234B     		ldr	r3, .L20+4
 240 0020 1B78     		ldrb	r3, [r3]
ARM GAS  C:\Users\Zachary\AppData\Local\Temp\ccmvMQUz.s 			page 22


 241 0022 022B     		cmp	r3, #2
 242 0024 10D0     		beq	.L13
 243 0026 02DC     		bgt	.L14
 244 0028 012B     		cmp	r3, #1
 245 002a 05D0     		beq	.L15
 958:.\Generated_Source\PSoC4/BLE_eventHandler.c ****             {
 959:.\Generated_Source\PSoC4/BLE_eventHandler.c ****                 case CYBLE_CLIENT_STATE_SRVC_DISCOVERING:
 960:.\Generated_Source\PSoC4/BLE_eventHandler.c ****                     CyBle_ApplCallback(CYBLE_EVT_GATTC_SRVC_DISCOVERY_FAILED, NULL);
 961:.\Generated_Source\PSoC4/BLE_eventHandler.c ****                     break;
 962:.\Generated_Source\PSoC4/BLE_eventHandler.c ****                 case CYBLE_CLIENT_STATE_INCL_DISCOVERING:
 963:.\Generated_Source\PSoC4/BLE_eventHandler.c ****                     CyBle_ApplCallback(CYBLE_EVT_GATTC_INCL_DISCOVERY_FAILED, NULL);
 964:.\Generated_Source\PSoC4/BLE_eventHandler.c ****                     break;
 965:.\Generated_Source\PSoC4/BLE_eventHandler.c ****                 case CYBLE_CLIENT_STATE_CHAR_DISCOVERING:
 966:.\Generated_Source\PSoC4/BLE_eventHandler.c ****                     CyBle_ApplCallback(CYBLE_EVT_GATTC_CHAR_DISCOVERY_FAILED, NULL);
 967:.\Generated_Source\PSoC4/BLE_eventHandler.c ****                     break;
 968:.\Generated_Source\PSoC4/BLE_eventHandler.c ****                 case CYBLE_CLIENT_STATE_DESCR_DISCOVERING:
 969:.\Generated_Source\PSoC4/BLE_eventHandler.c ****                     CyBle_ApplCallback(CYBLE_EVT_GATTC_DESCR_DISCOVERY_FAILED, NULL);
 970:.\Generated_Source\PSoC4/BLE_eventHandler.c ****                     break;
 971:.\Generated_Source\PSoC4/BLE_eventHandler.c ****                 default:        /* Other states should not be set in Auto discovery mode */
 972:.\Generated_Source\PSoC4/BLE_eventHandler.c ****                     break;
 246              		.loc 1 972 0
 247 002c 24E0     		b	.L18
 248              	.L14:
 957:.\Generated_Source\PSoC4/BLE_eventHandler.c ****             switch(CyBle_GetClientState())
 249              		.loc 1 957 0
 250 002e 032B     		cmp	r3, #3
 251 0030 12D0     		beq	.L16
 252 0032 042B     		cmp	r3, #4
 253 0034 18D0     		beq	.L17
 254              		.loc 1 972 0
 255 0036 1FE0     		b	.L18
 256              	.L15:
 960:.\Generated_Source\PSoC4/BLE_eventHandler.c ****                     CyBle_ApplCallback(CYBLE_EVT_GATTC_SRVC_DISCOVERY_FAILED, NULL);
 257              		.loc 1 960 0
 258 0038 1D4B     		ldr	r3, .L20+8
 259 003a 1B68     		ldr	r3, [r3]
 260 003c 0822     		mov	r2, #8
 261 003e FF32     		add	r2, r2, #255
 262 0040 101C     		mov	r0, r2
 263 0042 0021     		mov	r1, #0
 264 0044 9847     		blx	r3
 961:.\Generated_Source\PSoC4/BLE_eventHandler.c ****                     break;
 265              		.loc 1 961 0
 266 0046 17E0     		b	.L18
 267              	.L13:
 963:.\Generated_Source\PSoC4/BLE_eventHandler.c ****                     CyBle_ApplCallback(CYBLE_EVT_GATTC_INCL_DISCOVERY_FAILED, NULL);
 268              		.loc 1 963 0
 269 0048 194B     		ldr	r3, .L20+8
 270 004a 1B68     		ldr	r3, [r3]
 271 004c 8422     		mov	r2, #132
 272 004e 5200     		lsl	r2, r2, #1
 273 0050 101C     		mov	r0, r2
 274 0052 0021     		mov	r1, #0
 275 0054 9847     		blx	r3
 964:.\Generated_Source\PSoC4/BLE_eventHandler.c ****                     break;
 276              		.loc 1 964 0
 277 0056 0FE0     		b	.L18
ARM GAS  C:\Users\Zachary\AppData\Local\Temp\ccmvMQUz.s 			page 23


 278              	.L16:
 966:.\Generated_Source\PSoC4/BLE_eventHandler.c ****                     CyBle_ApplCallback(CYBLE_EVT_GATTC_CHAR_DISCOVERY_FAILED, NULL);
 279              		.loc 1 966 0
 280 0058 154B     		ldr	r3, .L20+8
 281 005a 1B68     		ldr	r3, [r3]
 282 005c 0A22     		mov	r2, #10
 283 005e FF32     		add	r2, r2, #255
 284 0060 101C     		mov	r0, r2
 285 0062 0021     		mov	r1, #0
 286 0064 9847     		blx	r3
 967:.\Generated_Source\PSoC4/BLE_eventHandler.c ****                     break;
 287              		.loc 1 967 0
 288 0066 07E0     		b	.L18
 289              	.L17:
 969:.\Generated_Source\PSoC4/BLE_eventHandler.c ****                     CyBle_ApplCallback(CYBLE_EVT_GATTC_DESCR_DISCOVERY_FAILED, NULL);
 290              		.loc 1 969 0
 291 0068 114B     		ldr	r3, .L20+8
 292 006a 1B68     		ldr	r3, [r3]
 293 006c 8522     		mov	r2, #133
 294 006e 5200     		lsl	r2, r2, #1
 295 0070 101C     		mov	r0, r2
 296 0072 0021     		mov	r1, #0
 297 0074 9847     		blx	r3
 970:.\Generated_Source\PSoC4/BLE_eventHandler.c ****                     break;
 298              		.loc 1 970 0
 299 0076 C046     		mov	r8, r8
 300              	.L18:
 973:.\Generated_Source\PSoC4/BLE_eventHandler.c ****             }
 974:.\Generated_Source\PSoC4/BLE_eventHandler.c ****             cyBle_eventHandlerFlag &= (uint8)~CYBLE_AUTO_DISCOVERY;
 301              		.loc 1 974 0
 302 0078 0B4B     		ldr	r3, .L20
 303 007a 1B78     		ldrb	r3, [r3]
 304 007c DBB2     		uxtb	r3, r3
 305 007e 0222     		mov	r2, #2
 306 0080 9343     		bic	r3, r2
 307 0082 DAB2     		uxtb	r2, r3
 308 0084 084B     		ldr	r3, .L20
 309 0086 1A70     		strb	r2, [r3]
 975:.\Generated_Source\PSoC4/BLE_eventHandler.c ****             CyBle_SetClientState(CYBLE_CLIENT_STATE_CONNECTED);
 310              		.loc 1 975 0
 311 0088 084B     		ldr	r3, .L20+4
 312 008a 0022     		mov	r2, #0
 313 008c 1A70     		strb	r2, [r3]
 314              	.L11:
 976:.\Generated_Source\PSoC4/BLE_eventHandler.c ****         }
 977:.\Generated_Source\PSoC4/BLE_eventHandler.c ****     #endif /* CYBLE_GATT_ROLE_CLIENT */
 978:.\Generated_Source\PSoC4/BLE_eventHandler.c ****     #ifdef CYBLE_CPS_SERVER
 979:.\Generated_Source\PSoC4/BLE_eventHandler.c ****         CyBle_CpssTimeOutEventHandler();
 980:.\Generated_Source\PSoC4/BLE_eventHandler.c ****     #endif /* CYBLE_CPS_SERVER */
 981:.\Generated_Source\PSoC4/BLE_eventHandler.c ****     }
 982:.\Generated_Source\PSoC4/BLE_eventHandler.c ****     
 983:.\Generated_Source\PSoC4/BLE_eventHandler.c ****     /* Connection procedure timeout */
 984:.\Generated_Source\PSoC4/BLE_eventHandler.c ****     if(*eventParam == CYBLE_GENERIC_TO)
 315              		.loc 1 984 0
 316 008e 7B68     		ldr	r3, [r7, #4]
 317 0090 1B78     		ldrb	r3, [r3]
 318 0092 042B     		cmp	r3, #4
ARM GAS  C:\Users\Zachary\AppData\Local\Temp\ccmvMQUz.s 			page 24


 319 0094 05D1     		bne	.L10
 985:.\Generated_Source\PSoC4/BLE_eventHandler.c ****     {
 986:.\Generated_Source\PSoC4/BLE_eventHandler.c ****     #if(CYBLE_GAP_ROLE_CENTRAL)
 987:.\Generated_Source\PSoC4/BLE_eventHandler.c ****         if(CYBLE_STATE_CONNECTING == CyBle_GetState())
 320              		.loc 1 987 0
 321 0096 074B     		ldr	r3, .L20+12
 322 0098 1B78     		ldrb	r3, [r3]
 323 009a 042B     		cmp	r3, #4
 324 009c 01D1     		bne	.L10
 988:.\Generated_Source\PSoC4/BLE_eventHandler.c ****         {
 989:.\Generated_Source\PSoC4/BLE_eventHandler.c ****             (void)CyBle_GapcCancelDeviceConnection();
 325              		.loc 1 989 0
 326 009e FFF7FEFF 		bl	CyBle_GapcCancelDeviceConnection
 327              	.L10:
 990:.\Generated_Source\PSoC4/BLE_eventHandler.c ****         }
 991:.\Generated_Source\PSoC4/BLE_eventHandler.c ****     #endif /* CYBLE_GAP_ROLE_CENTRAL */
 992:.\Generated_Source\PSoC4/BLE_eventHandler.c ****     }
 993:.\Generated_Source\PSoC4/BLE_eventHandler.c **** }
 328              		.loc 1 993 0
 329 00a2 BD46     		mov	sp, r7
 330 00a4 02B0     		add	sp, sp, #8
 331              		@ sp needed
 332 00a6 80BD     		pop	{r7, pc}
 333              	.L21:
 334              		.align	2
 335              	.L20:
 336 00a8 00000000 		.word	cyBle_eventHandlerFlag
 337 00ac 00000000 		.word	cyBle_clientState
 338 00b0 00000000 		.word	CyBle_ApplCallback
 339 00b4 00000000 		.word	cyBle_state
 340              		.cfi_endproc
 341              	.LFE7:
 342              		.size	CyBle_TimeOutEventHandler, .-CyBle_TimeOutEventHandler
 343              		.section	.text.CyBle_GattConnectReqHandler,"ax",%progbits
 344              		.align	2
 345              		.code	16
 346              		.thumb_func
 347              		.type	CyBle_GattConnectReqHandler, %function
 348              	CyBle_GattConnectReqHandler:
 349              	.LFB8:
 994:.\Generated_Source\PSoC4/BLE_eventHandler.c **** 
 995:.\Generated_Source\PSoC4/BLE_eventHandler.c **** 
 996:.\Generated_Source\PSoC4/BLE_eventHandler.c **** /****************************************************************************** 
 997:.\Generated_Source\PSoC4/BLE_eventHandler.c **** ##Function Name: CyBle_GattConnectReqHandler
 998:.\Generated_Source\PSoC4/BLE_eventHandler.c **** *******************************************************************************
 999:.\Generated_Source\PSoC4/BLE_eventHandler.c **** 
1000:.\Generated_Source\PSoC4/BLE_eventHandler.c **** Summary:
1001:.\Generated_Source\PSoC4/BLE_eventHandler.c ****  Handles the GATT connect event from the BLE stack.
1002:.\Generated_Source\PSoC4/BLE_eventHandler.c **** 
1003:.\Generated_Source\PSoC4/BLE_eventHandler.c **** Parameters:
1004:.\Generated_Source\PSoC4/BLE_eventHandler.c ****  None
1005:.\Generated_Source\PSoC4/BLE_eventHandler.c **** 
1006:.\Generated_Source\PSoC4/BLE_eventHandler.c **** Return:
1007:.\Generated_Source\PSoC4/BLE_eventHandler.c ****  None
1008:.\Generated_Source\PSoC4/BLE_eventHandler.c **** 
1009:.\Generated_Source\PSoC4/BLE_eventHandler.c **** ******************************************************************************/
1010:.\Generated_Source\PSoC4/BLE_eventHandler.c **** static void CyBle_GattConnectReqHandler(void)
ARM GAS  C:\Users\Zachary\AppData\Local\Temp\ccmvMQUz.s 			page 25


1011:.\Generated_Source\PSoC4/BLE_eventHandler.c **** {
 350              		.loc 1 1011 0
 351              		.cfi_startproc
 352 0000 80B5     		push	{r7, lr}
 353              		.cfi_def_cfa_offset 8
 354              		.cfi_offset 7, -8
 355              		.cfi_offset 14, -4
 356 0002 00AF     		add	r7, sp, #0
 357              		.cfi_def_cfa_register 7
1012:.\Generated_Source\PSoC4/BLE_eventHandler.c ****     #ifdef CYBLE_CPS_SERVER
1013:.\Generated_Source\PSoC4/BLE_eventHandler.c ****         CyBle_CpssConnectEventHandler();
1014:.\Generated_Source\PSoC4/BLE_eventHandler.c ****     #endif /* CYBLE_CPS_SERVER */
1015:.\Generated_Source\PSoC4/BLE_eventHandler.c ****     
1016:.\Generated_Source\PSoC4/BLE_eventHandler.c ****     #ifdef CYBLE_CSCS_SERVER
1017:.\Generated_Source\PSoC4/BLE_eventHandler.c ****             CyBle_CscsInit();
1018:.\Generated_Source\PSoC4/BLE_eventHandler.c ****     #endif /* CYBLE_CSCS_SERVER */
1019:.\Generated_Source\PSoC4/BLE_eventHandler.c ****     
1020:.\Generated_Source\PSoC4/BLE_eventHandler.c ****     #ifdef CYBLE_LLS_SERVER
1021:.\Generated_Source\PSoC4/BLE_eventHandler.c ****         CyBle_LlssConnectEventHandler();
1022:.\Generated_Source\PSoC4/BLE_eventHandler.c ****     #endif /* CYBLE_LLS_SERVER */
1023:.\Generated_Source\PSoC4/BLE_eventHandler.c ****     
1024:.\Generated_Source\PSoC4/BLE_eventHandler.c ****     #ifdef CYBLE_HIDS_SERVER
1025:.\Generated_Source\PSoC4/BLE_eventHandler.c ****         CyBle_HidssOnDeviceConnected();
1026:.\Generated_Source\PSoC4/BLE_eventHandler.c ****     #endif /* CYBLE_HIDS_SERVER */
1027:.\Generated_Source\PSoC4/BLE_eventHandler.c **** 
1028:.\Generated_Source\PSoC4/BLE_eventHandler.c ****     #ifdef CYBLE_RSCS_SERVER
1029:.\Generated_Source\PSoC4/BLE_eventHandler.c ****         CyBle_RscsInit();
1030:.\Generated_Source\PSoC4/BLE_eventHandler.c ****     #endif /* CYBLE_RSCS_SERVER */
1031:.\Generated_Source\PSoC4/BLE_eventHandler.c **** }
 358              		.loc 1 1031 0
 359 0004 BD46     		mov	sp, r7
 360              		@ sp needed
 361 0006 80BD     		pop	{r7, pc}
 362              		.cfi_endproc
 363              	.LFE8:
 364              		.size	CyBle_GattConnectReqHandler, .-CyBle_GattConnectReqHandler
 365              		.section	.text.CyBle_IsDeviceAddressValid,"ax",%progbits
 366              		.align	2
 367              		.code	16
 368              		.thumb_func
 369              		.type	CyBle_IsDeviceAddressValid, %function
 370              	CyBle_IsDeviceAddressValid:
 371              	.LFB9:
1032:.\Generated_Source\PSoC4/BLE_eventHandler.c **** 
1033:.\Generated_Source\PSoC4/BLE_eventHandler.c **** 
1034:.\Generated_Source\PSoC4/BLE_eventHandler.c **** #if (CYBLE_GATT_ROLE_SERVER || CYBLE_GATT_ROLE_CLIENT)
1035:.\Generated_Source\PSoC4/BLE_eventHandler.c **** 
1036:.\Generated_Source\PSoC4/BLE_eventHandler.c **** /****************************************************************************** 
1037:.\Generated_Source\PSoC4/BLE_eventHandler.c **** ##Function Name: CyBle_IsDeviceAddressValid
1038:.\Generated_Source\PSoC4/BLE_eventHandler.c **** *******************************************************************************
1039:.\Generated_Source\PSoC4/BLE_eventHandler.c **** 
1040:.\Generated_Source\PSoC4/BLE_eventHandler.c **** Summary:
1041:.\Generated_Source\PSoC4/BLE_eventHandler.c ****  This function verifies that BLE public address has been programmed to SFLASH 
1042:.\Generated_Source\PSoC4/BLE_eventHandler.c ****  during manufacture.
1043:.\Generated_Source\PSoC4/BLE_eventHandler.c **** 
1044:.\Generated_Source\PSoC4/BLE_eventHandler.c **** Parameters:
1045:.\Generated_Source\PSoC4/BLE_eventHandler.c ****  CYBLE_GAP_BD_ADDR_T *sflashDeviceAddress: the pointer to the BD address of 
ARM GAS  C:\Users\Zachary\AppData\Local\Temp\ccmvMQUz.s 			page 26


1046:.\Generated_Source\PSoC4/BLE_eventHandler.c ****                                            type CYBLE_GAP_BD_ADDR_T. 
1047:.\Generated_Source\PSoC4/BLE_eventHandler.c **** 
1048:.\Generated_Source\PSoC4/BLE_eventHandler.c **** Return:
1049:.\Generated_Source\PSoC4/BLE_eventHandler.c ****  Non zero value when a device address differs from the default SFLASH content.
1050:.\Generated_Source\PSoC4/BLE_eventHandler.c **** 
1051:.\Generated_Source\PSoC4/BLE_eventHandler.c **** ******************************************************************************/
1052:.\Generated_Source\PSoC4/BLE_eventHandler.c **** static uint8 CyBle_IsDeviceAddressValid(const CYBLE_GAP_BD_ADDR_T *sflashDeviceAddress)
1053:.\Generated_Source\PSoC4/BLE_eventHandler.c **** {
 372              		.loc 1 1053 0
 373              		.cfi_startproc
 374 0000 80B5     		push	{r7, lr}
 375              		.cfi_def_cfa_offset 8
 376              		.cfi_offset 7, -8
 377              		.cfi_offset 14, -4
 378 0002 84B0     		sub	sp, sp, #16
 379              		.cfi_def_cfa_offset 24
 380 0004 00AF     		add	r7, sp, #0
 381              		.cfi_def_cfa_register 7
 382 0006 7860     		str	r0, [r7, #4]
1054:.\Generated_Source\PSoC4/BLE_eventHandler.c ****     uint8 i;
1055:.\Generated_Source\PSoC4/BLE_eventHandler.c ****     uint8 sflashAddressValid = 0u;
 383              		.loc 1 1055 0
 384 0008 3B1C     		mov	r3, r7
 385 000a 0E33     		add	r3, r3, #14
 386 000c 0022     		mov	r2, #0
 387 000e 1A70     		strb	r2, [r3]
1056:.\Generated_Source\PSoC4/BLE_eventHandler.c ****     
1057:.\Generated_Source\PSoC4/BLE_eventHandler.c ****     if(sflashDeviceAddress -> type == CYBLE_GAP_ADDR_TYPE_PUBLIC)  
 388              		.loc 1 1057 0
 389 0010 7B68     		ldr	r3, [r7, #4]
 390 0012 9B79     		ldrb	r3, [r3, #6]
 391 0014 002B     		cmp	r3, #0
 392 0016 1CD1     		bne	.L24
1058:.\Generated_Source\PSoC4/BLE_eventHandler.c ****     {
1059:.\Generated_Source\PSoC4/BLE_eventHandler.c ****         for(i = 0u; i < CYBLE_GAP_BD_ADDR_SIZE; i++)
 393              		.loc 1 1059 0
 394 0018 3B1C     		mov	r3, r7
 395 001a 0F33     		add	r3, r3, #15
 396 001c 0022     		mov	r2, #0
 397 001e 1A70     		strb	r2, [r3]
 398 0020 12E0     		b	.L25
 399              	.L27:
1060:.\Generated_Source\PSoC4/BLE_eventHandler.c ****         {
1061:.\Generated_Source\PSoC4/BLE_eventHandler.c ****             if(sflashDeviceAddress->bdAddr[i] != 0u)
 400              		.loc 1 1061 0
 401 0022 3B1C     		mov	r3, r7
 402 0024 0F33     		add	r3, r3, #15
 403 0026 1B78     		ldrb	r3, [r3]
 404 0028 7A68     		ldr	r2, [r7, #4]
 405 002a D35C     		ldrb	r3, [r2, r3]
 406 002c 002B     		cmp	r3, #0
 407 002e 04D0     		beq	.L26
1062:.\Generated_Source\PSoC4/BLE_eventHandler.c ****             {
1063:.\Generated_Source\PSoC4/BLE_eventHandler.c ****                 sflashAddressValid = 1u;
 408              		.loc 1 1063 0
 409 0030 3B1C     		mov	r3, r7
 410 0032 0E33     		add	r3, r3, #14
ARM GAS  C:\Users\Zachary\AppData\Local\Temp\ccmvMQUz.s 			page 27


 411 0034 0122     		mov	r2, #1
 412 0036 1A70     		strb	r2, [r3]
1064:.\Generated_Source\PSoC4/BLE_eventHandler.c ****                 break;
 413              		.loc 1 1064 0
 414 0038 0BE0     		b	.L24
 415              	.L26:
1059:.\Generated_Source\PSoC4/BLE_eventHandler.c ****         for(i = 0u; i < CYBLE_GAP_BD_ADDR_SIZE; i++)
 416              		.loc 1 1059 0
 417 003a 3B1C     		mov	r3, r7
 418 003c 0F33     		add	r3, r3, #15
 419 003e 1A78     		ldrb	r2, [r3]
 420 0040 3B1C     		mov	r3, r7
 421 0042 0F33     		add	r3, r3, #15
 422 0044 0132     		add	r2, r2, #1
 423 0046 1A70     		strb	r2, [r3]
 424              	.L25:
1059:.\Generated_Source\PSoC4/BLE_eventHandler.c ****         for(i = 0u; i < CYBLE_GAP_BD_ADDR_SIZE; i++)
 425              		.loc 1 1059 0 is_stmt 0 discriminator 1
 426 0048 3B1C     		mov	r3, r7
 427 004a 0F33     		add	r3, r3, #15
 428 004c 1B78     		ldrb	r3, [r3]
 429 004e 052B     		cmp	r3, #5
 430 0050 E7D9     		bls	.L27
 431              	.L24:
1065:.\Generated_Source\PSoC4/BLE_eventHandler.c ****             }
1066:.\Generated_Source\PSoC4/BLE_eventHandler.c ****         }
1067:.\Generated_Source\PSoC4/BLE_eventHandler.c ****     }
1068:.\Generated_Source\PSoC4/BLE_eventHandler.c ****     return (sflashAddressValid);
 432              		.loc 1 1068 0 is_stmt 1
 433 0052 3B1C     		mov	r3, r7
 434 0054 0E33     		add	r3, r3, #14
 435 0056 1B78     		ldrb	r3, [r3]
1069:.\Generated_Source\PSoC4/BLE_eventHandler.c **** }
 436              		.loc 1 1069 0
 437 0058 181C     		mov	r0, r3
 438 005a BD46     		mov	sp, r7
 439 005c 04B0     		add	sp, sp, #16
 440              		@ sp needed
 441 005e 80BD     		pop	{r7, pc}
 442              		.cfi_endproc
 443              	.LFE9:
 444              		.size	CyBle_IsDeviceAddressValid, .-CyBle_IsDeviceAddressValid
 445              		.section	.text.CyBle_L2Cap_ConnParamUpdateRspEventHandler,"ax",%progbits
 446              		.align	2
 447              		.code	16
 448              		.thumb_func
 449              		.type	CyBle_L2Cap_ConnParamUpdateRspEventHandler, %function
 450              	CyBle_L2Cap_ConnParamUpdateRspEventHandler:
 451              	.LFB10:
1070:.\Generated_Source\PSoC4/BLE_eventHandler.c **** #endif /* CYBLE_GATT_ROLE_SERVER || CYBLE_GATT_ROLE_CLIENT */
1071:.\Generated_Source\PSoC4/BLE_eventHandler.c **** 
1072:.\Generated_Source\PSoC4/BLE_eventHandler.c **** 
1073:.\Generated_Source\PSoC4/BLE_eventHandler.c **** /****************************************************************************** 
1074:.\Generated_Source\PSoC4/BLE_eventHandler.c **** ##Function Name: CyBle_L2Cap_ConnParamUpdateRspHandler
1075:.\Generated_Source\PSoC4/BLE_eventHandler.c **** *******************************************************************************
1076:.\Generated_Source\PSoC4/BLE_eventHandler.c **** 
1077:.\Generated_Source\PSoC4/BLE_eventHandler.c **** Summary:
ARM GAS  C:\Users\Zachary\AppData\Local\Temp\ccmvMQUz.s 			page 28


1078:.\Generated_Source\PSoC4/BLE_eventHandler.c ****  Handles the L2CAP connection parameter response event from
1079:.\Generated_Source\PSoC4/BLE_eventHandler.c ****  the BLE stack.
1080:.\Generated_Source\PSoC4/BLE_eventHandler.c **** 
1081:.\Generated_Source\PSoC4/BLE_eventHandler.c **** Parameters:
1082:.\Generated_Source\PSoC4/BLE_eventHandler.c ****  uint16 response:
1083:.\Generated_Source\PSoC4/BLE_eventHandler.c ****      * Accepted = 0x0000
1084:.\Generated_Source\PSoC4/BLE_eventHandler.c ****      * Rejected = 0x0001
1085:.\Generated_Source\PSoC4/BLE_eventHandler.c **** 
1086:.\Generated_Source\PSoC4/BLE_eventHandler.c **** Return:
1087:.\Generated_Source\PSoC4/BLE_eventHandler.c ****  None
1088:.\Generated_Source\PSoC4/BLE_eventHandler.c **** 
1089:.\Generated_Source\PSoC4/BLE_eventHandler.c **** ******************************************************************************/
1090:.\Generated_Source\PSoC4/BLE_eventHandler.c **** static void CyBle_L2Cap_ConnParamUpdateRspEventHandler(uint16 response)
1091:.\Generated_Source\PSoC4/BLE_eventHandler.c **** {
 452              		.loc 1 1091 0
 453              		.cfi_startproc
 454 0000 80B5     		push	{r7, lr}
 455              		.cfi_def_cfa_offset 8
 456              		.cfi_offset 7, -8
 457              		.cfi_offset 14, -4
 458 0002 82B0     		sub	sp, sp, #8
 459              		.cfi_def_cfa_offset 16
 460 0004 00AF     		add	r7, sp, #0
 461              		.cfi_def_cfa_register 7
 462 0006 021C     		mov	r2, r0
 463 0008 BB1D     		add	r3, r7, #6
 464 000a 1A80     		strh	r2, [r3]
1092:.\Generated_Source\PSoC4/BLE_eventHandler.c ****     #ifdef CYBLE_CPS_SERVER
1093:.\Generated_Source\PSoC4/BLE_eventHandler.c ****         CyBle_CpssConnParamUpdateRspEventHandler(response);
1094:.\Generated_Source\PSoC4/BLE_eventHandler.c ****     #endif /* CYBLE_CPS_SERVER */
1095:.\Generated_Source\PSoC4/BLE_eventHandler.c ****     
1096:.\Generated_Source\PSoC4/BLE_eventHandler.c ****     /* Unreferenced variable warning workaround */
1097:.\Generated_Source\PSoC4/BLE_eventHandler.c ****     if(response != 0u)
1098:.\Generated_Source\PSoC4/BLE_eventHandler.c ****     {
1099:.\Generated_Source\PSoC4/BLE_eventHandler.c ****     }
1100:.\Generated_Source\PSoC4/BLE_eventHandler.c **** }
 465              		.loc 1 1100 0
 466 000c BD46     		mov	sp, r7
 467 000e 02B0     		add	sp, sp, #8
 468              		@ sp needed
 469 0010 80BD     		pop	{r7, pc}
 470              		.cfi_endproc
 471              	.LFE10:
 472              		.size	CyBle_L2Cap_ConnParamUpdateRspEventHandler, .-CyBle_L2Cap_ConnParamUpdateRspEventHandler
 473 0012 C046     		.section	.text.CyBle_GapConnUpdateCompleteEventHandler,"ax",%progbits
 474              		.align	2
 475              		.code	16
 476              		.thumb_func
 477              		.type	CyBle_GapConnUpdateCompleteEventHandler, %function
 478              	CyBle_GapConnUpdateCompleteEventHandler:
 479              	.LFB11:
1101:.\Generated_Source\PSoC4/BLE_eventHandler.c **** 
1102:.\Generated_Source\PSoC4/BLE_eventHandler.c **** 
1103:.\Generated_Source\PSoC4/BLE_eventHandler.c **** /****************************************************************************** 
1104:.\Generated_Source\PSoC4/BLE_eventHandler.c **** ##Function Name: CyBle_GapConnUpdateCompleteEventHandler
1105:.\Generated_Source\PSoC4/BLE_eventHandler.c **** *******************************************************************************
1106:.\Generated_Source\PSoC4/BLE_eventHandler.c **** 
ARM GAS  C:\Users\Zachary\AppData\Local\Temp\ccmvMQUz.s 			page 29


1107:.\Generated_Source\PSoC4/BLE_eventHandler.c **** Summary:
1108:.\Generated_Source\PSoC4/BLE_eventHandler.c ****  Handles the CYBLE_EVT_GAP_CONNECTION_UPDATE_COMPLETE event from
1109:.\Generated_Source\PSoC4/BLE_eventHandler.c ****  the BLE stack.
1110:.\Generated_Source\PSoC4/BLE_eventHandler.c **** 
1111:.\Generated_Source\PSoC4/BLE_eventHandler.c **** Parameters:
1112:.\Generated_Source\PSoC4/BLE_eventHandler.c ****  *eventParam: The pointer to the data structure specified by the event.
1113:.\Generated_Source\PSoC4/BLE_eventHandler.c **** 
1114:.\Generated_Source\PSoC4/BLE_eventHandler.c **** Return:
1115:.\Generated_Source\PSoC4/BLE_eventHandler.c ****  None
1116:.\Generated_Source\PSoC4/BLE_eventHandler.c **** 
1117:.\Generated_Source\PSoC4/BLE_eventHandler.c **** ******************************************************************************/
1118:.\Generated_Source\PSoC4/BLE_eventHandler.c **** static void CyBle_GapConnUpdateCompleteEventHandler(const CYBLE_GAP_CONN_PARAM_UPDATED_IN_CONTROLLE
1119:.\Generated_Source\PSoC4/BLE_eventHandler.c **** {
 480              		.loc 1 1119 0
 481              		.cfi_startproc
 482 0000 80B5     		push	{r7, lr}
 483              		.cfi_def_cfa_offset 8
 484              		.cfi_offset 7, -8
 485              		.cfi_offset 14, -4
 486 0002 82B0     		sub	sp, sp, #8
 487              		.cfi_def_cfa_offset 16
 488 0004 00AF     		add	r7, sp, #0
 489              		.cfi_def_cfa_register 7
 490 0006 7860     		str	r0, [r7, #4]
1120:.\Generated_Source\PSoC4/BLE_eventHandler.c ****     #ifdef CYBLE_CPS_SERVER
1121:.\Generated_Source\PSoC4/BLE_eventHandler.c ****         CyBle_CpssConnUpdateCompleteEventHandler(eventParam);
1122:.\Generated_Source\PSoC4/BLE_eventHandler.c ****     #endif /* CYBLE_CPS_SERVER */
1123:.\Generated_Source\PSoC4/BLE_eventHandler.c ****     
1124:.\Generated_Source\PSoC4/BLE_eventHandler.c ****     /* Unreferenced variable warning workaround */
1125:.\Generated_Source\PSoC4/BLE_eventHandler.c ****     if(eventParam != 0u)
1126:.\Generated_Source\PSoC4/BLE_eventHandler.c ****     {
1127:.\Generated_Source\PSoC4/BLE_eventHandler.c ****     }
1128:.\Generated_Source\PSoC4/BLE_eventHandler.c **** }
 491              		.loc 1 1128 0
 492 0008 BD46     		mov	sp, r7
 493 000a 02B0     		add	sp, sp, #8
 494              		@ sp needed
 495 000c 80BD     		pop	{r7, pc}
 496              		.cfi_endproc
 497              	.LFE11:
 498              		.size	CyBle_GapConnUpdateCompleteEventHandler, .-CyBle_GapConnUpdateCompleteEventHandler
 499              		.section	.text.CyBle_EventHandler,"ax",%progbits
 500              		.align	2
 501              		.global	CyBle_EventHandler
 502              		.code	16
 503              		.thumb_func
 504              		.type	CyBle_EventHandler, %function
 505              	CyBle_EventHandler:
 506              	.LFB12:
1129:.\Generated_Source\PSoC4/BLE_eventHandler.c **** 
1130:.\Generated_Source\PSoC4/BLE_eventHandler.c **** 
1131:.\Generated_Source\PSoC4/BLE_eventHandler.c **** /****************************************************************************** 
1132:.\Generated_Source\PSoC4/BLE_eventHandler.c **** ##Function Name: CyBle_EventHandler
1133:.\Generated_Source\PSoC4/BLE_eventHandler.c **** *******************************************************************************
1134:.\Generated_Source\PSoC4/BLE_eventHandler.c **** 
1135:.\Generated_Source\PSoC4/BLE_eventHandler.c **** Summary:
1136:.\Generated_Source\PSoC4/BLE_eventHandler.c ****  Handles the events from the BLE stack
ARM GAS  C:\Users\Zachary\AppData\Local\Temp\ccmvMQUz.s 			page 30


1137:.\Generated_Source\PSoC4/BLE_eventHandler.c **** 
1138:.\Generated_Source\PSoC4/BLE_eventHandler.c **** Parameters:
1139:.\Generated_Source\PSoC4/BLE_eventHandler.c ****  eventCode:    the event code
1140:.\Generated_Source\PSoC4/BLE_eventHandler.c ****  *eventParam:  the event parameters
1141:.\Generated_Source\PSoC4/BLE_eventHandler.c **** 
1142:.\Generated_Source\PSoC4/BLE_eventHandler.c **** Return:
1143:.\Generated_Source\PSoC4/BLE_eventHandler.c ****  None.
1144:.\Generated_Source\PSoC4/BLE_eventHandler.c **** 
1145:.\Generated_Source\PSoC4/BLE_eventHandler.c **** ******************************************************************************/
1146:.\Generated_Source\PSoC4/BLE_eventHandler.c **** void CyBle_EventHandler(uint8 eventCode, void *eventParam)
1147:.\Generated_Source\PSoC4/BLE_eventHandler.c **** {
 507              		.loc 1 1147 0
 508              		.cfi_startproc
 509 0000 80B5     		push	{r7, lr}
 510              		.cfi_def_cfa_offset 8
 511              		.cfi_offset 7, -8
 512              		.cfi_offset 14, -4
 513 0002 84B0     		sub	sp, sp, #16
 514              		.cfi_def_cfa_offset 24
 515 0004 00AF     		add	r7, sp, #0
 516              		.cfi_def_cfa_register 7
 517 0006 021C     		mov	r2, r0
 518 0008 3960     		str	r1, [r7]
 519 000a FB1D     		add	r3, r7, #7
 520 000c 1A70     		strb	r2, [r3]
1148:.\Generated_Source\PSoC4/BLE_eventHandler.c ****     cyBle_eventHandlerFlag |= CYBLE_CALLBACK;
 521              		.loc 1 1148 0
 522 000e A64B     		ldr	r3, .L69
 523 0010 1B78     		ldrb	r3, [r3]
 524 0012 DBB2     		uxtb	r3, r3
 525 0014 0122     		mov	r2, #1
 526 0016 1343     		orr	r3, r2
 527 0018 DAB2     		uxtb	r2, r3
 528 001a A34B     		ldr	r3, .L69
 529 001c 1A70     		strb	r2, [r3]
1149:.\Generated_Source\PSoC4/BLE_eventHandler.c **** 
1150:.\Generated_Source\PSoC4/BLE_eventHandler.c ****     /* Common Profile event handling */
1151:.\Generated_Source\PSoC4/BLE_eventHandler.c ****     switch(eventCode)
 530              		.loc 1 1151 0
 531 001e FB1D     		add	r3, r7, #7
 532 0020 1B78     		ldrb	r3, [r3]
 533 0022 712B     		cmp	r3, #113
 534 0024 00D9     		bls	.LCB436
 535 0026 24E1     		b	.L68	@long jump
 536              	.LCB436:
 537 0028 9A00     		lsl	r2, r3, #2
 538 002a A04B     		ldr	r3, .L69+4
 539 002c D318     		add	r3, r2, r3
 540 002e 1B68     		ldr	r3, [r3]
 541 0030 9F46     		mov	pc, r3
 542              		.section	.rodata
 543              		.align	2
 544              	.L34:
 545 0000 72020000 		.word	.L68
 546 0004 32000000 		.word	.L33
 547 0008 B0000000 		.word	.L35
 548 000c 72020000 		.word	.L68
ARM GAS  C:\Users\Zachary\AppData\Local\Temp\ccmvMQUz.s 			page 31


 549 0010 72020000 		.word	.L68
 550 0014 BA000000 		.word	.L36
 551 0018 72020000 		.word	.L68
 552 001c 72020000 		.word	.L68
 553 0020 72020000 		.word	.L68
 554 0024 72020000 		.word	.L68
 555 0028 72020000 		.word	.L68
 556 002c 72020000 		.word	.L68
 557 0030 72020000 		.word	.L68
 558 0034 72020000 		.word	.L68
 559 0038 72020000 		.word	.L68
 560 003c 72020000 		.word	.L68
 561 0040 72020000 		.word	.L68
 562 0044 72020000 		.word	.L68
 563 0048 72020000 		.word	.L68
 564 004c 72020000 		.word	.L68
 565 0050 72020000 		.word	.L68
 566 0054 72020000 		.word	.L68
 567 0058 72020000 		.word	.L68
 568 005c 72020000 		.word	.L68
 569 0060 72020000 		.word	.L68
 570 0064 72020000 		.word	.L68
 571 0068 72020000 		.word	.L68
 572 006c 72020000 		.word	.L68
 573 0070 72020000 		.word	.L68
 574 0074 72020000 		.word	.L68
 575 0078 72020000 		.word	.L68
 576 007c 72020000 		.word	.L68
 577 0080 72020000 		.word	.L68
 578 0084 C4000000 		.word	.L38
 579 0088 72020000 		.word	.L68
 580 008c 72020000 		.word	.L68
 581 0090 72020000 		.word	.L68
 582 0094 72020000 		.word	.L68
 583 0098 72020000 		.word	.L68
 584 009c FC000000 		.word	.L39
 585 00a0 18010000 		.word	.L40
 586 00a4 72020000 		.word	.L68
 587 00a8 F2000000 		.word	.L41
 588 00ac 20010000 		.word	.L42
 589 00b0 72020000 		.word	.L68
 590 00b4 72020000 		.word	.L68
 591 00b8 72020000 		.word	.L68
 592 00bc 72020000 		.word	.L68
 593 00c0 72020000 		.word	.L68
 594 00c4 72020000 		.word	.L68
 595 00c8 72020000 		.word	.L68
 596 00cc 72020000 		.word	.L68
 597 00d0 72020000 		.word	.L68
 598 00d4 72020000 		.word	.L68
 599 00d8 72020000 		.word	.L68
 600 00dc 72020000 		.word	.L68
 601 00e0 72020000 		.word	.L68
 602 00e4 72020000 		.word	.L68
 603 00e8 72020000 		.word	.L68
 604 00ec 72020000 		.word	.L68
 605 00f0 72020000 		.word	.L68
ARM GAS  C:\Users\Zachary\AppData\Local\Temp\ccmvMQUz.s 			page 32


 606 00f4 72020000 		.word	.L68
 607 00f8 72020000 		.word	.L68
 608 00fc 72020000 		.word	.L68
 609 0100 20020000 		.word	.L43
 610 0104 A0010000 		.word	.L44
 611 0108 C0010000 		.word	.L45
 612 010c C6010000 		.word	.L46
 613 0110 72020000 		.word	.L68
 614 0114 02020000 		.word	.L47
 615 0118 0C020000 		.word	.L48
 616 011c 16020000 		.word	.L49
 617 0120 72020000 		.word	.L68
 618 0124 5E020000 		.word	.L50
 619 0128 72020000 		.word	.L68
 620 012c 72020000 		.word	.L68
 621 0130 72020000 		.word	.L68
 622 0134 68020000 		.word	.L51
 623 0138 72020000 		.word	.L68
 624 013c 72020000 		.word	.L68
 625 0140 72020000 		.word	.L68
 626 0144 72020000 		.word	.L68
 627 0148 2A020000 		.word	.L52
 628 014c 34020000 		.word	.L53
 629 0150 72020000 		.word	.L68
 630 0154 72020000 		.word	.L68
 631 0158 72020000 		.word	.L68
 632 015c 72020000 		.word	.L68
 633 0160 72020000 		.word	.L68
 634 0164 72020000 		.word	.L68
 635 0168 72020000 		.word	.L68
 636 016c 72020000 		.word	.L68
 637 0170 72020000 		.word	.L68
 638 0174 72020000 		.word	.L68
 639 0178 72020000 		.word	.L68
 640 017c 72020000 		.word	.L68
 641 0180 72020000 		.word	.L68
 642 0184 72020000 		.word	.L68
 643 0188 72020000 		.word	.L68
 644 018c 72020000 		.word	.L68
 645 0190 72020000 		.word	.L68
 646 0194 72020000 		.word	.L68
 647 0198 72020000 		.word	.L68
 648 019c 72020000 		.word	.L68
 649 01a0 72020000 		.word	.L68
 650 01a4 72020000 		.word	.L68
 651 01a8 72020000 		.word	.L68
 652 01ac 72020000 		.word	.L68
 653 01b0 72020000 		.word	.L68
 654 01b4 72020000 		.word	.L68
 655 01b8 72020000 		.word	.L68
 656 01bc 72020000 		.word	.L68
 657 01c0 72020000 		.word	.L68
 658 01c4 94010000 		.word	.L54
 659              		.section	.text.CyBle_EventHandler
 660              	.L33:
 661              	.LBB2:
1152:.\Generated_Source\PSoC4/BLE_eventHandler.c ****     {
ARM GAS  C:\Users\Zachary\AppData\Local\Temp\ccmvMQUz.s 			page 33


1153:.\Generated_Source\PSoC4/BLE_eventHandler.c ****         /**********************************************************
1154:.\Generated_Source\PSoC4/BLE_eventHandler.c ****         ##General events
1155:.\Generated_Source\PSoC4/BLE_eventHandler.c ****         ***********************************************************/
1156:.\Generated_Source\PSoC4/BLE_eventHandler.c ****         case CYBLE_EVT_STACK_ON:
1157:.\Generated_Source\PSoC4/BLE_eventHandler.c ****         #if(CYBLE_MODE_PROFILE)
1158:.\Generated_Source\PSoC4/BLE_eventHandler.c ****         {
1159:.\Generated_Source\PSoC4/BLE_eventHandler.c ****             CYBLE_BLESS_PWR_IN_DB_T bleSsPowerLevel;
1160:.\Generated_Source\PSoC4/BLE_eventHandler.c ****             
1161:.\Generated_Source\PSoC4/BLE_eventHandler.c ****             /* Set Tx Power Level for advertising and connection channels */
1162:.\Generated_Source\PSoC4/BLE_eventHandler.c ****             bleSsPowerLevel.blePwrLevelInDbm = CYBLE_TX_POWER_LEVEL;
 662              		.loc 1 1162 0
 663 0032 3B1C     		mov	r3, r7
 664 0034 0C33     		add	r3, r3, #12
 665 0036 0722     		mov	r2, #7
 666 0038 1A70     		strb	r2, [r3]
1163:.\Generated_Source\PSoC4/BLE_eventHandler.c ****             bleSsPowerLevel.bleSsChId = CYBLE_LL_ADV_CH_TYPE;
 667              		.loc 1 1163 0
 668 003a 3B1C     		mov	r3, r7
 669 003c 0C33     		add	r3, r3, #12
 670 003e 0022     		mov	r2, #0
 671 0040 5A70     		strb	r2, [r3, #1]
1164:.\Generated_Source\PSoC4/BLE_eventHandler.c ****             (void) CyBle_SetTxPowerLevel (&bleSsPowerLevel);
 672              		.loc 1 1164 0
 673 0042 3B1C     		mov	r3, r7
 674 0044 0C33     		add	r3, r3, #12
 675 0046 181C     		mov	r0, r3
 676 0048 FFF7FEFF 		bl	CyBle_SetTxPowerLevel
1165:.\Generated_Source\PSoC4/BLE_eventHandler.c ****             bleSsPowerLevel.blePwrLevelInDbm = CYBLE_TX_POWER_LEVEL;
 677              		.loc 1 1165 0
 678 004c 3B1C     		mov	r3, r7
 679 004e 0C33     		add	r3, r3, #12
 680 0050 0722     		mov	r2, #7
 681 0052 1A70     		strb	r2, [r3]
1166:.\Generated_Source\PSoC4/BLE_eventHandler.c ****             bleSsPowerLevel.bleSsChId = CYBLE_LL_CONN_CH_TYPE;
 682              		.loc 1 1166 0
 683 0054 3B1C     		mov	r3, r7
 684 0056 0C33     		add	r3, r3, #12
 685 0058 0122     		mov	r2, #1
 686 005a 5A70     		strb	r2, [r3, #1]
1167:.\Generated_Source\PSoC4/BLE_eventHandler.c ****             (void) CyBle_SetTxPowerLevel (&bleSsPowerLevel);
 687              		.loc 1 1167 0
 688 005c 3B1C     		mov	r3, r7
 689 005e 0C33     		add	r3, r3, #12
 690 0060 181C     		mov	r0, r3
 691 0062 FFF7FEFF 		bl	CyBle_SetTxPowerLevel
 692              	.LBE2:
1168:.\Generated_Source\PSoC4/BLE_eventHandler.c ****         }
1169:.\Generated_Source\PSoC4/BLE_eventHandler.c ****         #endif /* CYBLE_MODE_PROFILE */
1170:.\Generated_Source\PSoC4/BLE_eventHandler.c ****         #if (CYBLE_GATT_ROLE_SERVER || CYBLE_GATT_ROLE_CLIENT)
1171:.\Generated_Source\PSoC4/BLE_eventHandler.c ****             /* Set device Address  */
1172:.\Generated_Source\PSoC4/BLE_eventHandler.c ****             if(CyBle_IsDeviceAddressValid(cyBle_sflashDeviceAddress) != 0u)
 693              		.loc 1 1172 0
 694 0066 924B     		ldr	r3, .L69+8
 695 0068 1B68     		ldr	r3, [r3]
 696 006a 181C     		mov	r0, r3
 697 006c FFF7FEFF 		bl	CyBle_IsDeviceAddressValid
 698 0070 031C     		mov	r3, r0
ARM GAS  C:\Users\Zachary\AppData\Local\Temp\ccmvMQUz.s 			page 34


 699 0072 002B     		cmp	r3, #0
 700 0074 05D0     		beq	.L55
1173:.\Generated_Source\PSoC4/BLE_eventHandler.c ****             {
1174:.\Generated_Source\PSoC4/BLE_eventHandler.c ****                 (void) CyBle_SetDeviceAddress(cyBle_sflashDeviceAddress);
 701              		.loc 1 1174 0
 702 0076 8E4B     		ldr	r3, .L69+8
 703 0078 1B68     		ldr	r3, [r3]
 704 007a 181C     		mov	r0, r3
 705 007c FFF7FEFF 		bl	CyBle_SetDeviceAddress
 706 0080 0FE0     		b	.L56
 707              	.L55:
1175:.\Generated_Source\PSoC4/BLE_eventHandler.c ****                 #if(CYBLE_GAP_ROLE_PERIPHERAL || CYBLE_GAP_ROLE_BROADCASTER)
1176:.\Generated_Source\PSoC4/BLE_eventHandler.c ****                     CyBle_ChangeAdDeviceAddress(cyBle_sflashDeviceAddress, 0u);
1177:.\Generated_Source\PSoC4/BLE_eventHandler.c ****                     CyBle_ChangeAdDeviceAddress(cyBle_sflashDeviceAddress, 1u);
1178:.\Generated_Source\PSoC4/BLE_eventHandler.c ****                 #endif /* CYBLE_GAP_ROLE_PERIPHERAL || CYBLE_GAP_ROLE_BROADCASTER */    
1179:.\Generated_Source\PSoC4/BLE_eventHandler.c ****             }
1180:.\Generated_Source\PSoC4/BLE_eventHandler.c ****             else
1181:.\Generated_Source\PSoC4/BLE_eventHandler.c ****             {
1182:.\Generated_Source\PSoC4/BLE_eventHandler.c ****             #if (SILICON_GENERATED_DEVICE_ADDRESS != 0u)
1183:.\Generated_Source\PSoC4/BLE_eventHandler.c ****                 cyBle_deviceAddress.bdAddr[0] = CYBLE_SFLASH_DIE_X_REG;
 708              		.loc 1 1183 0
 709 0082 8C4B     		ldr	r3, .L69+12
 710 0084 1A78     		ldrb	r2, [r3]
 711 0086 8C4B     		ldr	r3, .L69+16
 712 0088 1A70     		strb	r2, [r3]
1184:.\Generated_Source\PSoC4/BLE_eventHandler.c ****                 cyBle_deviceAddress.bdAddr[1] = CYBLE_SFLASH_DIE_Y_REG;
 713              		.loc 1 1184 0
 714 008a 8C4B     		ldr	r3, .L69+20
 715 008c 1A78     		ldrb	r2, [r3]
 716 008e 8A4B     		ldr	r3, .L69+16
 717 0090 5A70     		strb	r2, [r3, #1]
1185:.\Generated_Source\PSoC4/BLE_eventHandler.c ****                 cyBle_deviceAddress.bdAddr[2] = CYBLE_SFLASH_DIE_WAFER_REG;
 718              		.loc 1 1185 0
 719 0092 8B4B     		ldr	r3, .L69+24
 720 0094 1A78     		ldrb	r2, [r3]
 721 0096 884B     		ldr	r3, .L69+16
 722 0098 9A70     		strb	r2, [r3, #2]
1186:.\Generated_Source\PSoC4/BLE_eventHandler.c ****             #endif /* SILICON_GENERATED_DEVICE_ADDRESS != 0u */
1187:.\Generated_Source\PSoC4/BLE_eventHandler.c ****                 (void) CyBle_SetDeviceAddress(&cyBle_deviceAddress);
 723              		.loc 1 1187 0
 724 009a 874B     		ldr	r3, .L69+16
 725 009c 181C     		mov	r0, r3
 726 009e FFF7FEFF 		bl	CyBle_SetDeviceAddress
 727              	.L56:
1188:.\Generated_Source\PSoC4/BLE_eventHandler.c ****                 #if(CYBLE_GAP_ROLE_PERIPHERAL || CYBLE_GAP_ROLE_BROADCASTER)
1189:.\Generated_Source\PSoC4/BLE_eventHandler.c ****                     CyBle_ChangeAdDeviceAddress(&cyBle_deviceAddress, 0u);
1190:.\Generated_Source\PSoC4/BLE_eventHandler.c ****                     CyBle_ChangeAdDeviceAddress(&cyBle_deviceAddress, 1u);
1191:.\Generated_Source\PSoC4/BLE_eventHandler.c ****                 #endif /* CYBLE_GAP_ROLE_PERIPHERAL || CYBLE_GAP_ROLE_BROADCASTER */    
1192:.\Generated_Source\PSoC4/BLE_eventHandler.c ****             }
1193:.\Generated_Source\PSoC4/BLE_eventHandler.c ****             /* Set device IO Capability  */
1194:.\Generated_Source\PSoC4/BLE_eventHandler.c ****             (void) CyBle_GapSetIoCap(CYBLE_IO_CAPABILITY);    
 728              		.loc 1 1194 0
 729 00a2 0320     		mov	r0, #3
 730 00a4 FFF7FEFF 		bl	CyBle_GapSetIoCap
1195:.\Generated_Source\PSoC4/BLE_eventHandler.c ****         #endif /* CYBLE_GATT_ROLE_SERVER || CYBLE_GATT_ROLE_CLIENT */
1196:.\Generated_Source\PSoC4/BLE_eventHandler.c ****             CyBle_SetState(CYBLE_STATE_DISCONNECTED);
 731              		.loc 1 1196 0
ARM GAS  C:\Users\Zachary\AppData\Local\Temp\ccmvMQUz.s 			page 35


 732 00a8 864B     		ldr	r3, .L69+28
 733 00aa 0522     		mov	r2, #5
 734 00ac 1A70     		strb	r2, [r3]
1197:.\Generated_Source\PSoC4/BLE_eventHandler.c ****             break;
 735              		.loc 1 1197 0
 736 00ae E1E0     		b	.L57
 737              	.L35:
1198:.\Generated_Source\PSoC4/BLE_eventHandler.c ****         case CYBLE_EVT_TIMEOUT:
1199:.\Generated_Source\PSoC4/BLE_eventHandler.c ****             CyBle_TimeOutEventHandler((CYBLE_TO_REASON_CODE_T *)eventParam);
 738              		.loc 1 1199 0
 739 00b0 3B68     		ldr	r3, [r7]
 740 00b2 181C     		mov	r0, r3
 741 00b4 FFF7FEFF 		bl	CyBle_TimeOutEventHandler
1200:.\Generated_Source\PSoC4/BLE_eventHandler.c ****             break;
 742              		.loc 1 1200 0
 743 00b8 DCE0     		b	.L57
 744              	.L36:
1201:.\Generated_Source\PSoC4/BLE_eventHandler.c ****     	case CYBLE_EVT_STACK_BUSY_STATUS:
1202:.\Generated_Source\PSoC4/BLE_eventHandler.c ****             cyBle_busyStatus = *(uint8 *)eventParam;
 745              		.loc 1 1202 0
 746 00ba 3B68     		ldr	r3, [r7]
 747 00bc 1A78     		ldrb	r2, [r3]
 748 00be 824B     		ldr	r3, .L69+32
 749 00c0 1A70     		strb	r2, [r3]
1203:.\Generated_Source\PSoC4/BLE_eventHandler.c ****             break;
 750              		.loc 1 1203 0
 751 00c2 D7E0     		b	.L57
 752              	.L38:
1204:.\Generated_Source\PSoC4/BLE_eventHandler.c **** 
1205:.\Generated_Source\PSoC4/BLE_eventHandler.c ****         /**********************************************************
1206:.\Generated_Source\PSoC4/BLE_eventHandler.c ****         ##GAP events
1207:.\Generated_Source\PSoC4/BLE_eventHandler.c ****         ***********************************************************/
1208:.\Generated_Source\PSoC4/BLE_eventHandler.c ****         case CYBLE_EVT_GAP_AUTH_REQ:
1209:.\Generated_Source\PSoC4/BLE_eventHandler.c ****         #if(CYBLE_MODE_PROFILE)
1210:.\Generated_Source\PSoC4/BLE_eventHandler.c ****             if(0u == (cyBle_eventHandlerFlag & CYBLE_DISABLE_AUTOMATIC_AUTH))
 753              		.loc 1 1210 0
 754 00c4 784B     		ldr	r3, .L69
 755 00c6 1B78     		ldrb	r3, [r3]
 756 00c8 DBB2     		uxtb	r3, r3
 757 00ca 1A1C     		mov	r2, r3
 758 00cc 2023     		mov	r3, #32
 759 00ce 1340     		and	r3, r2
 760 00d0 0ED1     		bne	.L58
1211:.\Generated_Source\PSoC4/BLE_eventHandler.c ****             {
1212:.\Generated_Source\PSoC4/BLE_eventHandler.c ****                 /* If the responding device does not support pairing then the responding 
1213:.\Generated_Source\PSoC4/BLE_eventHandler.c ****                    device shall respond using the Pairing Failed message with the error 
1214:.\Generated_Source\PSoC4/BLE_eventHandler.c ****                    code "Pairing Not Supported" otherwise it responds with a Pairing 
1215:.\Generated_Source\PSoC4/BLE_eventHandler.c ****                    Response message.
1216:.\Generated_Source\PSoC4/BLE_eventHandler.c ****                 */
1217:.\Generated_Source\PSoC4/BLE_eventHandler.c ****                 if(cyBle_authInfo.security == (CYBLE_GAP_SEC_MODE_1 | CYBLE_GAP_SEC_LEVEL_1))
 761              		.loc 1 1217 0
 762 00d2 7E4B     		ldr	r3, .L69+36
 763 00d4 1B78     		ldrb	r3, [r3]
 764 00d6 102B     		cmp	r3, #16
 765 00d8 02D1     		bne	.L59
1218:.\Generated_Source\PSoC4/BLE_eventHandler.c ****                 {
1219:.\Generated_Source\PSoC4/BLE_eventHandler.c ****                     cyBle_authInfo.authErr = CYBLE_GAP_AUTH_ERROR_PAIRING_NOT_SUPPORTED;
ARM GAS  C:\Users\Zachary\AppData\Local\Temp\ccmvMQUz.s 			page 36


 766              		.loc 1 1219 0
 767 00da 7C4B     		ldr	r3, .L69+36
 768 00dc 0522     		mov	r2, #5
 769 00de DA70     		strb	r2, [r3, #3]
 770              	.L59:
1220:.\Generated_Source\PSoC4/BLE_eventHandler.c ****                 }    
1221:.\Generated_Source\PSoC4/BLE_eventHandler.c ****             #if(CYBLE_GAP_ROLE_PERIPHERAL)
1222:.\Generated_Source\PSoC4/BLE_eventHandler.c ****                 (void)CyBle_GappAuthReqReply(cyBle_connHandle.bdHandle, &cyBle_authInfo);
1223:.\Generated_Source\PSoC4/BLE_eventHandler.c ****             #endif /* CYBLE_GAP_ROLE_PERIPHERAL */
1224:.\Generated_Source\PSoC4/BLE_eventHandler.c ****             #if (CYBLE_GAP_ROLE_CENTRAL)
1225:.\Generated_Source\PSoC4/BLE_eventHandler.c ****                 (void)CyBle_GapAuthReq(cyBle_connHandle.bdHandle, &cyBle_authInfo);
 771              		.loc 1 1225 0
 772 00e0 7B4B     		ldr	r3, .L69+40
 773 00e2 1A78     		ldrb	r2, [r3]
 774 00e4 794B     		ldr	r3, .L69+36
 775 00e6 101C     		mov	r0, r2
 776 00e8 191C     		mov	r1, r3
 777 00ea FFF7FEFF 		bl	CyBle_GapAuthReq
1226:.\Generated_Source\PSoC4/BLE_eventHandler.c ****             #endif /* CYBLE_GAP_ROLE_CENTRAL */
1227:.\Generated_Source\PSoC4/BLE_eventHandler.c ****             }
1228:.\Generated_Source\PSoC4/BLE_eventHandler.c ****         #endif /* CYBLE_MODE_PROFILE */
1229:.\Generated_Source\PSoC4/BLE_eventHandler.c ****             break;
 778              		.loc 1 1229 0
 779 00ee C1E0     		b	.L57
 780              	.L58:
 781 00f0 C0E0     		b	.L57
 782              	.L41:
1230:.\Generated_Source\PSoC4/BLE_eventHandler.c **** 
1231:.\Generated_Source\PSoC4/BLE_eventHandler.c ****         case CYBLE_EVT_GAP_CONNECTION_UPDATE_COMPLETE:
1232:.\Generated_Source\PSoC4/BLE_eventHandler.c ****             CyBle_GapConnUpdateCompleteEventHandler((const CYBLE_GAP_CONN_PARAM_UPDATED_IN_CONTROLL
 783              		.loc 1 1232 0
 784 00f2 3B68     		ldr	r3, [r7]
 785 00f4 181C     		mov	r0, r3
 786 00f6 FFF7FEFF 		bl	CyBle_GapConnUpdateCompleteEventHandler
1233:.\Generated_Source\PSoC4/BLE_eventHandler.c ****             break;
 787              		.loc 1 1233 0
 788 00fa BBE0     		b	.L57
 789              	.L39:
1234:.\Generated_Source\PSoC4/BLE_eventHandler.c ****             
1235:.\Generated_Source\PSoC4/BLE_eventHandler.c ****         case CYBLE_EVT_GAP_DEVICE_CONNECTED:
1236:.\Generated_Source\PSoC4/BLE_eventHandler.c ****             CyBle_GapConnUpdateCompleteEventHandler((const CYBLE_GAP_CONN_PARAM_UPDATED_IN_CONTROLL
 790              		.loc 1 1236 0
 791 00fc 3B68     		ldr	r3, [r7]
 792 00fe 181C     		mov	r0, r3
 793 0100 FFF7FEFF 		bl	CyBle_GapConnUpdateCompleteEventHandler
1237:.\Generated_Source\PSoC4/BLE_eventHandler.c ****             #if(CYBLE_GAP_ROLE_CENTRAL)
1238:.\Generated_Source\PSoC4/BLE_eventHandler.c ****                 if(cyBle_connectingTimeout != 0u)
 794              		.loc 1 1238 0
 795 0104 734B     		ldr	r3, .L69+44
 796 0106 1B88     		ldrh	r3, [r3]
 797 0108 002B     		cmp	r3, #0
 798 010a 01D0     		beq	.L60
1239:.\Generated_Source\PSoC4/BLE_eventHandler.c ****                 {
1240:.\Generated_Source\PSoC4/BLE_eventHandler.c ****                    (void)CyBle_StopTimer();
 799              		.loc 1 1240 0
 800 010c FFF7FEFF 		bl	CyBle_StopTimer
 801              	.L60:
ARM GAS  C:\Users\Zachary\AppData\Local\Temp\ccmvMQUz.s 			page 37


1241:.\Generated_Source\PSoC4/BLE_eventHandler.c ****                 }
1242:.\Generated_Source\PSoC4/BLE_eventHandler.c ****             #endif /* CYBLE_GAP_ROLE_CENTRAL */
1243:.\Generated_Source\PSoC4/BLE_eventHandler.c ****             CyBle_SetState(CYBLE_STATE_CONNECTED);
 802              		.loc 1 1243 0
 803 0110 6C4B     		ldr	r3, .L69+28
 804 0112 0222     		mov	r2, #2
 805 0114 1A70     		strb	r2, [r3]
1244:.\Generated_Source\PSoC4/BLE_eventHandler.c ****             break;
 806              		.loc 1 1244 0
 807 0116 ADE0     		b	.L57
 808              	.L40:
1245:.\Generated_Source\PSoC4/BLE_eventHandler.c **** 
1246:.\Generated_Source\PSoC4/BLE_eventHandler.c ****         case CYBLE_EVT_GAP_DEVICE_DISCONNECTED:
1247:.\Generated_Source\PSoC4/BLE_eventHandler.c ****             CyBle_SetState(CYBLE_STATE_DISCONNECTED);
 809              		.loc 1 1247 0
 810 0118 6A4B     		ldr	r3, .L69+28
 811 011a 0522     		mov	r2, #5
 812 011c 1A70     		strb	r2, [r3]
1248:.\Generated_Source\PSoC4/BLE_eventHandler.c ****             break;
 813              		.loc 1 1248 0
 814 011e A9E0     		b	.L57
 815              	.L42:
1249:.\Generated_Source\PSoC4/BLE_eventHandler.c ****         #if(CYBLE_GAP_ROLE_PERIPHERAL || CYBLE_GAP_ROLE_BROADCASTER)
1250:.\Generated_Source\PSoC4/BLE_eventHandler.c ****             
1251:.\Generated_Source\PSoC4/BLE_eventHandler.c ****         case CYBLE_EVT_GAPP_ADVERTISEMENT_START_STOP:
1252:.\Generated_Source\PSoC4/BLE_eventHandler.c ****             #ifdef CYBLE_CPS_SERVER
1253:.\Generated_Source\PSoC4/BLE_eventHandler.c ****                 #if(CYBLE_GAP_ROLE_BROADCASTER)
1254:.\Generated_Source\PSoC4/BLE_eventHandler.c ****                     CyBle_CpssAdvertisementStartStopEventHandler();
1255:.\Generated_Source\PSoC4/BLE_eventHandler.c ****                 #endif /* CYBLE_GAP_ROLE_BROADCASTER */
1256:.\Generated_Source\PSoC4/BLE_eventHandler.c ****             #endif /* CYBLE_CPS_SERVER */
1257:.\Generated_Source\PSoC4/BLE_eventHandler.c ****             
1258:.\Generated_Source\PSoC4/BLE_eventHandler.c ****             if((CYBLE_STATE_CONNECTED != CyBle_GetState()) && ((cyBle_eventHandlerFlag & CYBLE_CALL
1259:.\Generated_Source\PSoC4/BLE_eventHandler.c ****             {
1260:.\Generated_Source\PSoC4/BLE_eventHandler.c ****                 /* After CyBle_GappStartAdvertisement first event indicates that advertising has be
1261:.\Generated_Source\PSoC4/BLE_eventHandler.c ****                 if(0u != (cyBle_eventHandlerFlag & CYBLE_START_FLAG))
1262:.\Generated_Source\PSoC4/BLE_eventHandler.c ****                 {
1263:.\Generated_Source\PSoC4/BLE_eventHandler.c ****                     CyBle_SetState(CYBLE_STATE_ADVERTISING);
1264:.\Generated_Source\PSoC4/BLE_eventHandler.c ****                     cyBle_eventHandlerFlag &= (uint8)~CYBLE_START_FLAG;
1265:.\Generated_Source\PSoC4/BLE_eventHandler.c ****                 }
1266:.\Generated_Source\PSoC4/BLE_eventHandler.c ****                 /* When application initiated stop advertisement */
1267:.\Generated_Source\PSoC4/BLE_eventHandler.c ****                 else if(0u != (cyBle_eventHandlerFlag & CYBLE_STOP_FLAG))
1268:.\Generated_Source\PSoC4/BLE_eventHandler.c ****                 {
1269:.\Generated_Source\PSoC4/BLE_eventHandler.c ****                     CyBle_SetState(CYBLE_STATE_DISCONNECTED);  
1270:.\Generated_Source\PSoC4/BLE_eventHandler.c ****                     cyBle_eventHandlerFlag &= (uint8)~CYBLE_STOP_FLAG;
1271:.\Generated_Source\PSoC4/BLE_eventHandler.c ****                 }
1272:.\Generated_Source\PSoC4/BLE_eventHandler.c ****                 else /* Following event indicates that advertising has been stopped */
1273:.\Generated_Source\PSoC4/BLE_eventHandler.c ****                 {
1274:.\Generated_Source\PSoC4/BLE_eventHandler.c ****                     if(CYBLE_STATE_ADVERTISING == CyBle_GetState())
1275:.\Generated_Source\PSoC4/BLE_eventHandler.c ****                     {
1276:.\Generated_Source\PSoC4/BLE_eventHandler.c ****                         CyBle_SetState(CYBLE_STATE_DISCONNECTED);
1277:.\Generated_Source\PSoC4/BLE_eventHandler.c ****                     #if (CYBLE_SLOW_ADV_ENABLED != 0u)
1278:.\Generated_Source\PSoC4/BLE_eventHandler.c ****                         if(cyBle_advertisingIntervalType == CYBLE_ADVERTISING_FAST)
1279:.\Generated_Source\PSoC4/BLE_eventHandler.c ****                         {
1280:.\Generated_Source\PSoC4/BLE_eventHandler.c ****                             /* When fast advertising time out occur: Start slow advertising */
1281:.\Generated_Source\PSoC4/BLE_eventHandler.c ****                             if(CYBLE_ERROR_OK == CyBle_GappStartAdvertisement(CYBLE_ADVERTISING_SLO
1282:.\Generated_Source\PSoC4/BLE_eventHandler.c ****                             {
1283:.\Generated_Source\PSoC4/BLE_eventHandler.c ****                                 CyBle_SetState(CYBLE_STATE_ADVERTISING);
ARM GAS  C:\Users\Zachary\AppData\Local\Temp\ccmvMQUz.s 			page 38


1284:.\Generated_Source\PSoC4/BLE_eventHandler.c ****                             }
1285:.\Generated_Source\PSoC4/BLE_eventHandler.c ****                         }
1286:.\Generated_Source\PSoC4/BLE_eventHandler.c ****                     #endif /* CYBLE_SLOW_ADV_ENABLED */
1287:.\Generated_Source\PSoC4/BLE_eventHandler.c ****                     }
1288:.\Generated_Source\PSoC4/BLE_eventHandler.c ****                 }
1289:.\Generated_Source\PSoC4/BLE_eventHandler.c ****             }
1290:.\Generated_Source\PSoC4/BLE_eventHandler.c ****             break;
1291:.\Generated_Source\PSoC4/BLE_eventHandler.c ****         #endif /* CYBLE_GAP_ROLE_PERIPHERAL || CYBLE_GAP_ROLE_BROADCASTER */
1292:.\Generated_Source\PSoC4/BLE_eventHandler.c ****         
1293:.\Generated_Source\PSoC4/BLE_eventHandler.c ****         #if(CYBLE_GAP_ROLE_CENTRAL || CYBLE_GAP_ROLE_OBSERVER)    
1294:.\Generated_Source\PSoC4/BLE_eventHandler.c ****         case CYBLE_EVT_GAPC_SCAN_START_STOP:
1295:.\Generated_Source\PSoC4/BLE_eventHandler.c ****             #ifdef CYBLE_CPS_CLIENT
1296:.\Generated_Source\PSoC4/BLE_eventHandler.c ****                 CyBle_CpscScanStartStopEventHandler();
1297:.\Generated_Source\PSoC4/BLE_eventHandler.c ****             #endif /* CYBLE_CPS_CLIENT */
1298:.\Generated_Source\PSoC4/BLE_eventHandler.c ****             
1299:.\Generated_Source\PSoC4/BLE_eventHandler.c ****             if((CYBLE_STATE_CONNECTED != CyBle_GetState()) && ((cyBle_eventHandlerFlag & CYBLE_CALL
 816              		.loc 1 1299 0
 817 0120 684B     		ldr	r3, .L69+28
 818 0122 1B78     		ldrb	r3, [r3]
 819 0124 022B     		cmp	r3, #2
 820 0126 34D0     		beq	.L61
 821              		.loc 1 1299 0 is_stmt 0 discriminator 1
 822 0128 5F4B     		ldr	r3, .L69
 823 012a 1B78     		ldrb	r3, [r3]
 824 012c DBB2     		uxtb	r3, r3
 825 012e 1A1C     		mov	r2, r3
 826 0130 0123     		mov	r3, #1
 827 0132 1340     		and	r3, r2
 828 0134 2DD0     		beq	.L61
1300:.\Generated_Source\PSoC4/BLE_eventHandler.c ****             {
1301:.\Generated_Source\PSoC4/BLE_eventHandler.c ****                 /* After CyBle_GapcStartScan first event indicates that scanning has been started *
1302:.\Generated_Source\PSoC4/BLE_eventHandler.c ****                 if(0u != (cyBle_eventHandlerFlag & CYBLE_START_FLAG))
 829              		.loc 1 1302 0 is_stmt 1
 830 0136 5C4B     		ldr	r3, .L69
 831 0138 1B78     		ldrb	r3, [r3]
 832 013a DBB2     		uxtb	r3, r3
 833 013c 1A1C     		mov	r2, r3
 834 013e 0423     		mov	r3, #4
 835 0140 1340     		and	r3, r2
 836 0142 0BD0     		beq	.L62
1303:.\Generated_Source\PSoC4/BLE_eventHandler.c ****                 {
1304:.\Generated_Source\PSoC4/BLE_eventHandler.c ****                     CyBle_SetState(CYBLE_STATE_SCANNING);
 837              		.loc 1 1304 0
 838 0144 5F4B     		ldr	r3, .L69+28
 839 0146 0322     		mov	r2, #3
 840 0148 1A70     		strb	r2, [r3]
1305:.\Generated_Source\PSoC4/BLE_eventHandler.c ****                     cyBle_eventHandlerFlag &= (uint8)~CYBLE_START_FLAG;
 841              		.loc 1 1305 0
 842 014a 574B     		ldr	r3, .L69
 843 014c 1B78     		ldrb	r3, [r3]
 844 014e DBB2     		uxtb	r3, r3
 845 0150 0422     		mov	r2, #4
 846 0152 9343     		bic	r3, r2
 847 0154 DAB2     		uxtb	r2, r3
 848 0156 544B     		ldr	r3, .L69
 849 0158 1A70     		strb	r2, [r3]
 850 015a 1AE0     		b	.L61
ARM GAS  C:\Users\Zachary\AppData\Local\Temp\ccmvMQUz.s 			page 39


 851              	.L62:
1306:.\Generated_Source\PSoC4/BLE_eventHandler.c ****                 }
1307:.\Generated_Source\PSoC4/BLE_eventHandler.c ****                 /* When application initiated stop scanning */
1308:.\Generated_Source\PSoC4/BLE_eventHandler.c ****                 else if(0u != (cyBle_eventHandlerFlag & CYBLE_STOP_FLAG))
 852              		.loc 1 1308 0
 853 015c 524B     		ldr	r3, .L69
 854 015e 1B78     		ldrb	r3, [r3]
 855 0160 DBB2     		uxtb	r3, r3
 856 0162 1A1C     		mov	r2, r3
 857 0164 0823     		mov	r3, #8
 858 0166 1340     		and	r3, r2
 859 0168 0BD0     		beq	.L63
1309:.\Generated_Source\PSoC4/BLE_eventHandler.c ****                 {
1310:.\Generated_Source\PSoC4/BLE_eventHandler.c ****                     CyBle_SetState(CYBLE_STATE_DISCONNECTED);  
 860              		.loc 1 1310 0
 861 016a 564B     		ldr	r3, .L69+28
 862 016c 0522     		mov	r2, #5
 863 016e 1A70     		strb	r2, [r3]
1311:.\Generated_Source\PSoC4/BLE_eventHandler.c ****                     cyBle_eventHandlerFlag &= (uint8)~CYBLE_STOP_FLAG;
 864              		.loc 1 1311 0
 865 0170 4D4B     		ldr	r3, .L69
 866 0172 1B78     		ldrb	r3, [r3]
 867 0174 DBB2     		uxtb	r3, r3
 868 0176 0822     		mov	r2, #8
 869 0178 9343     		bic	r3, r2
 870 017a DAB2     		uxtb	r2, r3
 871 017c 4A4B     		ldr	r3, .L69
 872 017e 1A70     		strb	r2, [r3]
 873 0180 07E0     		b	.L61
 874              	.L63:
1312:.\Generated_Source\PSoC4/BLE_eventHandler.c ****                 }
1313:.\Generated_Source\PSoC4/BLE_eventHandler.c ****                 else /* Following event indicates that scanning has been stopped by stack */
1314:.\Generated_Source\PSoC4/BLE_eventHandler.c ****                 {
1315:.\Generated_Source\PSoC4/BLE_eventHandler.c ****                     if(CYBLE_STATE_SCANNING == CyBle_GetState())
 875              		.loc 1 1315 0
 876 0182 504B     		ldr	r3, .L69+28
 877 0184 1B78     		ldrb	r3, [r3]
 878 0186 032B     		cmp	r3, #3
 879 0188 03D1     		bne	.L61
1316:.\Generated_Source\PSoC4/BLE_eventHandler.c ****                     {
1317:.\Generated_Source\PSoC4/BLE_eventHandler.c ****                         CyBle_SetState(CYBLE_STATE_DISCONNECTED);  
 880              		.loc 1 1317 0
 881 018a 4E4B     		ldr	r3, .L69+28
 882 018c 0522     		mov	r2, #5
 883 018e 1A70     		strb	r2, [r3]
1318:.\Generated_Source\PSoC4/BLE_eventHandler.c ****                     #if (CYBLE_SLOW_SCAN_ENABLED != 0u)
1319:.\Generated_Source\PSoC4/BLE_eventHandler.c ****                         if(cyBle_scanningIntervalType == CYBLE_SCANNING_FAST)
1320:.\Generated_Source\PSoC4/BLE_eventHandler.c ****                         {
1321:.\Generated_Source\PSoC4/BLE_eventHandler.c ****                             /* When fast scanning time out occur: Start slow scanning */
1322:.\Generated_Source\PSoC4/BLE_eventHandler.c ****                             if(CYBLE_ERROR_OK == CyBle_GapcStartScan(CYBLE_SCANNING_SLOW))
1323:.\Generated_Source\PSoC4/BLE_eventHandler.c ****                             {
1324:.\Generated_Source\PSoC4/BLE_eventHandler.c ****                                 CyBle_SetState(CYBLE_STATE_SCANNING);
1325:.\Generated_Source\PSoC4/BLE_eventHandler.c ****                             }
1326:.\Generated_Source\PSoC4/BLE_eventHandler.c ****                         }
1327:.\Generated_Source\PSoC4/BLE_eventHandler.c ****                     #endif /* CYBLE_SLOW_ADV_ENABLED */
1328:.\Generated_Source\PSoC4/BLE_eventHandler.c ****                     }
1329:.\Generated_Source\PSoC4/BLE_eventHandler.c ****                 }
ARM GAS  C:\Users\Zachary\AppData\Local\Temp\ccmvMQUz.s 			page 40


1330:.\Generated_Source\PSoC4/BLE_eventHandler.c ****             }
1331:.\Generated_Source\PSoC4/BLE_eventHandler.c ****             break;
 884              		.loc 1 1331 0
 885 0190 70E0     		b	.L57
 886              	.L61:
 887 0192 6FE0     		b	.L57
 888              	.L54:
1332:.\Generated_Source\PSoC4/BLE_eventHandler.c ****         #endif /* CYBLE_GAP_ROLE_CENTRAL || CYBLE_GAP_ROLE_OBSERVER */
1333:.\Generated_Source\PSoC4/BLE_eventHandler.c **** 
1334:.\Generated_Source\PSoC4/BLE_eventHandler.c ****         /**********************************************************
1335:.\Generated_Source\PSoC4/BLE_eventHandler.c ****         ##L2AP events 
1336:.\Generated_Source\PSoC4/BLE_eventHandler.c ****         ***********************************************************/
1337:.\Generated_Source\PSoC4/BLE_eventHandler.c ****         case CYBLE_EVT_L2CAP_CONN_PARAM_UPDATE_RSP:
1338:.\Generated_Source\PSoC4/BLE_eventHandler.c ****             CyBle_L2Cap_ConnParamUpdateRspEventHandler(*(uint16 *)eventParam);
 889              		.loc 1 1338 0
 890 0194 3B68     		ldr	r3, [r7]
 891 0196 1B88     		ldrh	r3, [r3]
 892 0198 181C     		mov	r0, r3
 893 019a FFF7FEFF 		bl	CyBle_L2Cap_ConnParamUpdateRspEventHandler
1339:.\Generated_Source\PSoC4/BLE_eventHandler.c ****             break;
 894              		.loc 1 1339 0
 895 019e 69E0     		b	.L57
 896              	.L44:
1340:.\Generated_Source\PSoC4/BLE_eventHandler.c ****         
1341:.\Generated_Source\PSoC4/BLE_eventHandler.c ****         /**********************************************************
1342:.\Generated_Source\PSoC4/BLE_eventHandler.c ****         ##GATT events
1343:.\Generated_Source\PSoC4/BLE_eventHandler.c ****         ***********************************************************/        
1344:.\Generated_Source\PSoC4/BLE_eventHandler.c ****         case CYBLE_EVT_GATT_CONNECT_IND:
1345:.\Generated_Source\PSoC4/BLE_eventHandler.c ****             cyBle_connHandle = *(CYBLE_CONN_HANDLE_T *)eventParam;
 897              		.loc 1 1345 0
 898 01a0 4B4A     		ldr	r2, .L69+40
 899 01a2 3B68     		ldr	r3, [r7]
 900 01a4 111C     		mov	r1, r2
 901 01a6 1A1C     		mov	r2, r3
 902 01a8 0223     		mov	r3, #2
 903 01aa 081C     		mov	r0, r1
 904 01ac 111C     		mov	r1, r2
 905 01ae 1A1C     		mov	r2, r3
 906 01b0 FFF7FEFF 		bl	memcpy
1346:.\Generated_Source\PSoC4/BLE_eventHandler.c ****             
1347:.\Generated_Source\PSoC4/BLE_eventHandler.c ****         #if((CYBLE_GATT_ROLE_SERVER) && (CYBLE_GATT_DB_CCCD_COUNT != 0u))
1348:.\Generated_Source\PSoC4/BLE_eventHandler.c ****             /* Init CCCD values in RAM */
1349:.\Generated_Source\PSoC4/BLE_eventHandler.c ****         	(void) memcpy (cyBle_attValuesCCCD, cyBle_attValuesCCCDFlashMemory[cyBle_connHandle.bdHand
1350:.\Generated_Source\PSoC4/BLE_eventHandler.c ****                             CYBLE_GATT_DB_CCCD_COUNT);
1351:.\Generated_Source\PSoC4/BLE_eventHandler.c ****         #endif /* CYBLE_GATT_ROLE_SERVER */
1352:.\Generated_Source\PSoC4/BLE_eventHandler.c ****         
1353:.\Generated_Source\PSoC4/BLE_eventHandler.c ****         #if (CYBLE_GATT_ROLE_CLIENT)
1354:.\Generated_Source\PSoC4/BLE_eventHandler.c ****             CyBle_SetClientState(CYBLE_CLIENT_STATE_CONNECTED);
 907              		.loc 1 1354 0
 908 01b4 484B     		ldr	r3, .L69+48
 909 01b6 0022     		mov	r2, #0
 910 01b8 1A70     		strb	r2, [r3]
1355:.\Generated_Source\PSoC4/BLE_eventHandler.c ****         #endif /* CYBLE_GATT_ROLE_CLIENT */
1356:.\Generated_Source\PSoC4/BLE_eventHandler.c ****         
1357:.\Generated_Source\PSoC4/BLE_eventHandler.c ****             CyBle_GattConnectReqHandler();
 911              		.loc 1 1357 0
 912 01ba FFF7FEFF 		bl	CyBle_GattConnectReqHandler
ARM GAS  C:\Users\Zachary\AppData\Local\Temp\ccmvMQUz.s 			page 41


1358:.\Generated_Source\PSoC4/BLE_eventHandler.c ****             break;
 913              		.loc 1 1358 0
 914 01be 59E0     		b	.L57
 915              	.L45:
1359:.\Generated_Source\PSoC4/BLE_eventHandler.c **** 
1360:.\Generated_Source\PSoC4/BLE_eventHandler.c ****         case CYBLE_EVT_GATT_DISCONNECT_IND:
1361:.\Generated_Source\PSoC4/BLE_eventHandler.c ****             CyBle_GattDisconnectEventHandler();
 916              		.loc 1 1361 0
 917 01c0 FFF7FEFF 		bl	CyBle_GattDisconnectEventHandler
1362:.\Generated_Source\PSoC4/BLE_eventHandler.c ****             break;
 918              		.loc 1 1362 0
 919 01c4 56E0     		b	.L57
 920              	.L46:
 921              	.LBB3:
1363:.\Generated_Source\PSoC4/BLE_eventHandler.c **** 
1364:.\Generated_Source\PSoC4/BLE_eventHandler.c ****     #if((CYBLE_GATT_ROLE_SERVER) || (CYBLE_GATT_ROLE_CLIENT))
1365:.\Generated_Source\PSoC4/BLE_eventHandler.c ****         case CYBLE_EVT_GATTS_XCNHG_MTU_REQ:
1366:.\Generated_Source\PSoC4/BLE_eventHandler.c ****             {
1367:.\Generated_Source\PSoC4/BLE_eventHandler.c ****                 uint16 cyBle_mtuSize;
1368:.\Generated_Source\PSoC4/BLE_eventHandler.c ****                 if(CYBLE_GATT_MTU > ((CYBLE_GATT_XCHG_MTU_PARAM_T *)eventParam)->mtu)
 922              		.loc 1 1368 0
 923 01c6 3B68     		ldr	r3, [r7]
 924 01c8 5B88     		ldrh	r3, [r3, #2]
 925 01ca 162B     		cmp	r3, #22
 926 01cc 05D8     		bhi	.L64
1369:.\Generated_Source\PSoC4/BLE_eventHandler.c ****                 {
1370:.\Generated_Source\PSoC4/BLE_eventHandler.c ****                     cyBle_mtuSize = ((CYBLE_GATT_XCHG_MTU_PARAM_T *)eventParam)->mtu;
 927              		.loc 1 1370 0
 928 01ce 3B1C     		mov	r3, r7
 929 01d0 0E33     		add	r3, r3, #14
 930 01d2 3A68     		ldr	r2, [r7]
 931 01d4 5288     		ldrh	r2, [r2, #2]
 932 01d6 1A80     		strh	r2, [r3]
 933 01d8 03E0     		b	.L65
 934              	.L64:
1371:.\Generated_Source\PSoC4/BLE_eventHandler.c ****                 }
1372:.\Generated_Source\PSoC4/BLE_eventHandler.c ****                 else
1373:.\Generated_Source\PSoC4/BLE_eventHandler.c ****                 {
1374:.\Generated_Source\PSoC4/BLE_eventHandler.c ****                     cyBle_mtuSize = CYBLE_GATT_MTU;
 935              		.loc 1 1374 0
 936 01da 3B1C     		mov	r3, r7
 937 01dc 0E33     		add	r3, r3, #14
 938 01de 1722     		mov	r2, #23
 939 01e0 1A80     		strh	r2, [r3]
 940              	.L65:
1375:.\Generated_Source\PSoC4/BLE_eventHandler.c ****                 }
1376:.\Generated_Source\PSoC4/BLE_eventHandler.c ****                 (void)CyBle_GattsExchangeMtuRsp(((CYBLE_GATT_XCHG_MTU_PARAM_T *)eventParam)->connHa
 941              		.loc 1 1376 0
 942 01e2 3B68     		ldr	r3, [r7]
 943 01e4 3A1C     		mov	r2, r7
 944 01e6 0E32     		add	r2, r2, #14
 945 01e8 1288     		ldrh	r2, [r2]
 946 01ea 1988     		ldrh	r1, [r3]
 947 01ec 0023     		mov	r3, #0
 948 01ee 0904     		lsl	r1, r1, #16
 949 01f0 090C     		lsr	r1, r1, #16
 950 01f2 1B0C     		lsr	r3, r3, #16
ARM GAS  C:\Users\Zachary\AppData\Local\Temp\ccmvMQUz.s 			page 42


 951 01f4 1B04     		lsl	r3, r3, #16
 952 01f6 0B43     		orr	r3, r1
 953 01f8 181C     		mov	r0, r3
 954 01fa 111C     		mov	r1, r2
 955 01fc FFF7FEFF 		bl	CyBle_GattsExchangeMtuRsp
 956              	.LBE3:
1377:.\Generated_Source\PSoC4/BLE_eventHandler.c ****             }
1378:.\Generated_Source\PSoC4/BLE_eventHandler.c ****             break;
 957              		.loc 1 1378 0
 958 0200 38E0     		b	.L57
 959              	.L47:
1379:.\Generated_Source\PSoC4/BLE_eventHandler.c ****     #endif /* CYBLE_GATT_ROLE_SERVER || CYBLE_GATT_ROLE_CLIENT */
1380:.\Generated_Source\PSoC4/BLE_eventHandler.c ****     
1381:.\Generated_Source\PSoC4/BLE_eventHandler.c ****     #if (CYBLE_GATT_ROLE_CLIENT)
1382:.\Generated_Source\PSoC4/BLE_eventHandler.c ****         case CYBLE_EVT_GAPC_SCAN_PROGRESS_RESULT:
1383:.\Generated_Source\PSoC4/BLE_eventHandler.c ****         #ifdef CYBLE_CPS_CLIENT
1384:.\Generated_Source\PSoC4/BLE_eventHandler.c ****                 CyBle_CpscScanProcessEventHandler((CYBLE_GAPC_ADV_REPORT_T *)eventParam);
1385:.\Generated_Source\PSoC4/BLE_eventHandler.c ****         #endif /* CYBLE_CPS_CLIENT */
1386:.\Generated_Source\PSoC4/BLE_eventHandler.c ****             break;
1387:.\Generated_Source\PSoC4/BLE_eventHandler.c ****     #endif /* CYBLE_GATT_ROLE_CLIENT */
1388:.\Generated_Source\PSoC4/BLE_eventHandler.c **** 
1389:.\Generated_Source\PSoC4/BLE_eventHandler.c ****     #if(CYBLE_GATT_ROLE_SERVER)
1390:.\Generated_Source\PSoC4/BLE_eventHandler.c ****         case CYBLE_EVT_GATTS_WRITE_REQ:
1391:.\Generated_Source\PSoC4/BLE_eventHandler.c ****             CyBle_WriteReqHandler((CYBLE_GATTS_WRITE_REQ_PARAM_T *)eventParam);
1392:.\Generated_Source\PSoC4/BLE_eventHandler.c ****             break;
1393:.\Generated_Source\PSoC4/BLE_eventHandler.c **** 
1394:.\Generated_Source\PSoC4/BLE_eventHandler.c ****         case CYBLE_EVT_GATTS_WRITE_CMD_REQ:
1395:.\Generated_Source\PSoC4/BLE_eventHandler.c ****         #ifdef CYBLE_IAS_SERVER
1396:.\Generated_Source\PSoC4/BLE_eventHandler.c ****             if((cyBle_eventHandlerFlag & CYBLE_CALLBACK) != 0u)
1397:.\Generated_Source\PSoC4/BLE_eventHandler.c ****             {
1398:.\Generated_Source\PSoC4/BLE_eventHandler.c ****                 (void)CyBle_IassWriteCmdEventHandler((CYBLE_GATTS_WRITE_REQ_PARAM_T *)eventParam);
1399:.\Generated_Source\PSoC4/BLE_eventHandler.c ****             }
1400:.\Generated_Source\PSoC4/BLE_eventHandler.c ****         #endif /* CYBLE_IAS_SERVER */
1401:.\Generated_Source\PSoC4/BLE_eventHandler.c ****         #ifdef CYBLE_HIDS_SERVER
1402:.\Generated_Source\PSoC4/BLE_eventHandler.c ****             if((cyBle_eventHandlerFlag & CYBLE_CALLBACK) != 0u)
1403:.\Generated_Source\PSoC4/BLE_eventHandler.c ****             {
1404:.\Generated_Source\PSoC4/BLE_eventHandler.c ****                 (void)CyBle_HidssWriteEventHandler((CYBLE_GATTS_WRITE_REQ_PARAM_T *)eventParam);
1405:.\Generated_Source\PSoC4/BLE_eventHandler.c ****             }
1406:.\Generated_Source\PSoC4/BLE_eventHandler.c ****         #endif /* CYBLE_HIDS_SERVER */
1407:.\Generated_Source\PSoC4/BLE_eventHandler.c ****         #ifdef CYBLE_PASS_SERVER
1408:.\Generated_Source\PSoC4/BLE_eventHandler.c ****             if((cyBle_eventHandlerFlag & CYBLE_CALLBACK) != 0u)
1409:.\Generated_Source\PSoC4/BLE_eventHandler.c ****             {
1410:.\Generated_Source\PSoC4/BLE_eventHandler.c ****                 (void)CyBle_PasssWriteCmdEventHandler((CYBLE_GATTS_WRITE_REQ_PARAM_T *)eventParam);
1411:.\Generated_Source\PSoC4/BLE_eventHandler.c ****             }
1412:.\Generated_Source\PSoC4/BLE_eventHandler.c ****         #endif /* CYBLE_PASS_SERVER */
1413:.\Generated_Source\PSoC4/BLE_eventHandler.c ****         #ifdef CYBLE_RTUS_SERVER
1414:.\Generated_Source\PSoC4/BLE_eventHandler.c ****             if((cyBle_eventHandlerFlag & CYBLE_CALLBACK) != 0u)
1415:.\Generated_Source\PSoC4/BLE_eventHandler.c ****             {
1416:.\Generated_Source\PSoC4/BLE_eventHandler.c ****                 (void)CyBle_RtussWriteCmdEventHandler((CYBLE_GATTS_WRITE_REQ_PARAM_T *)eventParam);
1417:.\Generated_Source\PSoC4/BLE_eventHandler.c ****             }
1418:.\Generated_Source\PSoC4/BLE_eventHandler.c ****         #endif /* CYBLE_RTUS_SERVER */
1419:.\Generated_Source\PSoC4/BLE_eventHandler.c ****         #ifdef CYBLE_SCPS_SERVER
1420:.\Generated_Source\PSoC4/BLE_eventHandler.c ****             if((cyBle_eventHandlerFlag & CYBLE_CALLBACK) != 0u)
1421:.\Generated_Source\PSoC4/BLE_eventHandler.c ****             {
1422:.\Generated_Source\PSoC4/BLE_eventHandler.c ****                 (void)CyBle_ScpssWriteEventHandler((CYBLE_GATTS_WRITE_REQ_PARAM_T *)eventParam);
1423:.\Generated_Source\PSoC4/BLE_eventHandler.c ****             }
1424:.\Generated_Source\PSoC4/BLE_eventHandler.c ****         #endif /* CYBLE_SCPS_SERVER */
ARM GAS  C:\Users\Zachary\AppData\Local\Temp\ccmvMQUz.s 			page 43


1425:.\Generated_Source\PSoC4/BLE_eventHandler.c ****             break;
1426:.\Generated_Source\PSoC4/BLE_eventHandler.c ****             
1427:.\Generated_Source\PSoC4/BLE_eventHandler.c ****         case CYBLE_EVT_GATTS_HANDLE_VALUE_CNF:
1428:.\Generated_Source\PSoC4/BLE_eventHandler.c ****             CyBle_ValueConfirmation((CYBLE_CONN_HANDLE_T *)eventParam);
1429:.\Generated_Source\PSoC4/BLE_eventHandler.c ****             break;
1430:.\Generated_Source\PSoC4/BLE_eventHandler.c ****             
1431:.\Generated_Source\PSoC4/BLE_eventHandler.c ****     #endif /* CYBLE_GATT_ROLE_SERVER */
1432:.\Generated_Source\PSoC4/BLE_eventHandler.c **** 
1433:.\Generated_Source\PSoC4/BLE_eventHandler.c ****     #if (CYBLE_GATT_ROLE_CLIENT)
1434:.\Generated_Source\PSoC4/BLE_eventHandler.c ****         
1435:.\Generated_Source\PSoC4/BLE_eventHandler.c ****         case CYBLE_EVT_GATTC_READ_BY_GROUP_TYPE_RSP:
1436:.\Generated_Source\PSoC4/BLE_eventHandler.c ****             CyBle_ReadByGroupEventHandler((CYBLE_GATTC_READ_BY_GRP_RSP_PARAM_T *)eventParam);
 960              		.loc 1 1436 0
 961 0202 3B68     		ldr	r3, [r7]
 962 0204 181C     		mov	r0, r3
 963 0206 FFF7FEFF 		bl	CyBle_ReadByGroupEventHandler
1437:.\Generated_Source\PSoC4/BLE_eventHandler.c ****             break;
 964              		.loc 1 1437 0
 965 020a 33E0     		b	.L57
 966              	.L48:
1438:.\Generated_Source\PSoC4/BLE_eventHandler.c **** 
1439:.\Generated_Source\PSoC4/BLE_eventHandler.c ****         case CYBLE_EVT_GATTC_READ_BY_TYPE_RSP:
1440:.\Generated_Source\PSoC4/BLE_eventHandler.c ****             CyBle_ReadByTypeEventHandler((CYBLE_GATTC_READ_BY_TYPE_RSP_PARAM_T *)eventParam);
 967              		.loc 1 1440 0
 968 020c 3B68     		ldr	r3, [r7]
 969 020e 181C     		mov	r0, r3
 970 0210 FFF7FEFF 		bl	CyBle_ReadByTypeEventHandler
1441:.\Generated_Source\PSoC4/BLE_eventHandler.c ****             break;
 971              		.loc 1 1441 0
 972 0214 2EE0     		b	.L57
 973              	.L49:
1442:.\Generated_Source\PSoC4/BLE_eventHandler.c **** 
1443:.\Generated_Source\PSoC4/BLE_eventHandler.c ****         case CYBLE_EVT_GATTC_FIND_INFO_RSP:
1444:.\Generated_Source\PSoC4/BLE_eventHandler.c ****             CyBle_FindInfoEventHandler((CYBLE_GATTC_FIND_INFO_RSP_PARAM_T *)eventParam);
 974              		.loc 1 1444 0
 975 0216 3B68     		ldr	r3, [r7]
 976 0218 181C     		mov	r0, r3
 977 021a FFF7FEFF 		bl	CyBle_FindInfoEventHandler
1445:.\Generated_Source\PSoC4/BLE_eventHandler.c ****             break;
 978              		.loc 1 1445 0
 979 021e 29E0     		b	.L57
 980              	.L43:
1446:.\Generated_Source\PSoC4/BLE_eventHandler.c **** 
1447:.\Generated_Source\PSoC4/BLE_eventHandler.c ****         case CYBLE_EVT_GATTC_ERROR_RSP:
1448:.\Generated_Source\PSoC4/BLE_eventHandler.c ****             CyBle_ErrorResponseEventHandler((CYBLE_GATTC_ERR_RSP_PARAM_T *)eventParam);
 981              		.loc 1 1448 0
 982 0220 3B68     		ldr	r3, [r7]
 983 0222 181C     		mov	r0, r3
 984 0224 FFF7FEFF 		bl	CyBle_ErrorResponseEventHandler
1449:.\Generated_Source\PSoC4/BLE_eventHandler.c ****             break;
 985              		.loc 1 1449 0
 986 0228 24E0     		b	.L57
 987              	.L52:
1450:.\Generated_Source\PSoC4/BLE_eventHandler.c **** 
1451:.\Generated_Source\PSoC4/BLE_eventHandler.c ****         case CYBLE_EVT_GATTC_HANDLE_VALUE_NTF:
1452:.\Generated_Source\PSoC4/BLE_eventHandler.c ****             CyBle_NotificationEventHandler((CYBLE_GATTC_HANDLE_VALUE_NTF_PARAM_T *)eventParam);
 988              		.loc 1 1452 0
ARM GAS  C:\Users\Zachary\AppData\Local\Temp\ccmvMQUz.s 			page 44


 989 022a 3B68     		ldr	r3, [r7]
 990 022c 181C     		mov	r0, r3
 991 022e FFF7FEFF 		bl	CyBle_NotificationEventHandler
1453:.\Generated_Source\PSoC4/BLE_eventHandler.c ****             break;
 992              		.loc 1 1453 0
 993 0232 1FE0     		b	.L57
 994              	.L53:
1454:.\Generated_Source\PSoC4/BLE_eventHandler.c **** 
1455:.\Generated_Source\PSoC4/BLE_eventHandler.c ****         case CYBLE_EVT_GATTC_HANDLE_VALUE_IND:
1456:.\Generated_Source\PSoC4/BLE_eventHandler.c ****             CyBle_GattcIndicationEventHandler((CYBLE_GATTC_HANDLE_VALUE_IND_PARAM_T *)eventParam);
 995              		.loc 1 1456 0
 996 0234 3B68     		ldr	r3, [r7]
 997 0236 181C     		mov	r0, r3
 998 0238 FFF7FEFF 		bl	CyBle_GattcIndicationEventHandler
1457:.\Generated_Source\PSoC4/BLE_eventHandler.c ****             CyBle_IndicationEventHandler((CYBLE_GATTC_HANDLE_VALUE_IND_PARAM_T *)eventParam);
 999              		.loc 1 1457 0
 1000 023c 3B68     		ldr	r3, [r7]
 1001 023e 181C     		mov	r0, r3
 1002 0240 FFF7FEFF 		bl	CyBle_IndicationEventHandler
1458:.\Generated_Source\PSoC4/BLE_eventHandler.c ****         
1459:.\Generated_Source\PSoC4/BLE_eventHandler.c ****             /* Respond with a Handle Value Confirmation when request handled */
1460:.\Generated_Source\PSoC4/BLE_eventHandler.c ****             if((cyBle_eventHandlerFlag & CYBLE_CALLBACK) == 0u)
 1003              		.loc 1 1460 0
 1004 0244 184B     		ldr	r3, .L69
 1005 0246 1B78     		ldrb	r3, [r3]
 1006 0248 DBB2     		uxtb	r3, r3
 1007 024a 1A1C     		mov	r2, r3
 1008 024c 0123     		mov	r3, #1
 1009 024e 1340     		and	r3, r2
 1010 0250 04D1     		bne	.L66
1461:.\Generated_Source\PSoC4/BLE_eventHandler.c ****             {
1462:.\Generated_Source\PSoC4/BLE_eventHandler.c ****                 (void)CyBle_GattcConfirmation(((CYBLE_GATTC_HANDLE_VALUE_IND_PARAM_T *)eventParam)-
 1011              		.loc 1 1462 0
 1012 0252 3B68     		ldr	r3, [r7]
 1013 0254 1868     		ldr	r0, [r3]
 1014 0256 FFF7FEFF 		bl	CyBle_GattcConfirmation
1463:.\Generated_Source\PSoC4/BLE_eventHandler.c ****             }
1464:.\Generated_Source\PSoC4/BLE_eventHandler.c ****             break;
 1015              		.loc 1 1464 0
 1016 025a 0BE0     		b	.L57
 1017              	.L66:
 1018 025c 0AE0     		b	.L57
 1019              	.L50:
1465:.\Generated_Source\PSoC4/BLE_eventHandler.c ****         
1466:.\Generated_Source\PSoC4/BLE_eventHandler.c ****         case CYBLE_EVT_GATTC_READ_RSP:
1467:.\Generated_Source\PSoC4/BLE_eventHandler.c ****             CyBle_ReadResponseEventHandler((CYBLE_GATTC_READ_RSP_PARAM_T *)eventParam);
 1020              		.loc 1 1467 0
 1021 025e 3B68     		ldr	r3, [r7]
 1022 0260 181C     		mov	r0, r3
 1023 0262 FFF7FEFF 		bl	CyBle_ReadResponseEventHandler
1468:.\Generated_Source\PSoC4/BLE_eventHandler.c ****             break;
 1024              		.loc 1 1468 0
 1025 0266 05E0     		b	.L57
 1026              	.L51:
1469:.\Generated_Source\PSoC4/BLE_eventHandler.c **** 
1470:.\Generated_Source\PSoC4/BLE_eventHandler.c ****         case CYBLE_EVT_GATTC_WRITE_RSP:
1471:.\Generated_Source\PSoC4/BLE_eventHandler.c ****             CyBle_GattcWriteResponseEventHandler((CYBLE_CONN_HANDLE_T *)eventParam);
ARM GAS  C:\Users\Zachary\AppData\Local\Temp\ccmvMQUz.s 			page 45


 1027              		.loc 1 1471 0
 1028 0268 3B68     		ldr	r3, [r7]
 1029 026a 181C     		mov	r0, r3
 1030 026c FFF7FEFF 		bl	CyBle_GattcWriteResponseEventHandler
1472:.\Generated_Source\PSoC4/BLE_eventHandler.c ****             break;
 1031              		.loc 1 1472 0
 1032 0270 00E0     		b	.L57
 1033              	.L68:
1473:.\Generated_Source\PSoC4/BLE_eventHandler.c ****             
1474:.\Generated_Source\PSoC4/BLE_eventHandler.c ****     #endif /* CYBLE_GATT_ROLE_CLIENT */
1475:.\Generated_Source\PSoC4/BLE_eventHandler.c **** 
1476:.\Generated_Source\PSoC4/BLE_eventHandler.c ****     #if((CYBLE_GAP_ROLE_PERIPHERAL || CYBLE_GAP_ROLE_CENTRAL) && (CYBLE_BONDING_REQUIREMENT == CYBL
1477:.\Generated_Source\PSoC4/BLE_eventHandler.c **** 
1478:.\Generated_Source\PSoC4/BLE_eventHandler.c ****         case CYBLE_EVT_PENDING_FLASH_WRITE:
1479:.\Generated_Source\PSoC4/BLE_eventHandler.c ****             cyBle_pendingFlashWrite |= CYBLE_PENDING_STACK_FLASH_WRITE_BIT;
1480:.\Generated_Source\PSoC4/BLE_eventHandler.c ****             break;
1481:.\Generated_Source\PSoC4/BLE_eventHandler.c ****         
1482:.\Generated_Source\PSoC4/BLE_eventHandler.c ****     #endif  /* (CYBLE_BONDING_REQUIREMENT == CYBLE_BONDING_YES) */
1483:.\Generated_Source\PSoC4/BLE_eventHandler.c ****     
1484:.\Generated_Source\PSoC4/BLE_eventHandler.c ****         default:
1485:.\Generated_Source\PSoC4/BLE_eventHandler.c ****             break;
 1034              		.loc 1 1485 0
 1035 0272 C046     		mov	r8, r8
 1036              	.L57:
1486:.\Generated_Source\PSoC4/BLE_eventHandler.c ****     }
1487:.\Generated_Source\PSoC4/BLE_eventHandler.c **** 
1488:.\Generated_Source\PSoC4/BLE_eventHandler.c ****     if(0u != (cyBle_eventHandlerFlag & (CYBLE_CALLBACK | CYBLE_ENABLE_ALL_EVENTS))) 
 1037              		.loc 1 1488 0
 1038 0274 0C4B     		ldr	r3, .L69
 1039 0276 1B78     		ldrb	r3, [r3]
 1040 0278 DBB2     		uxtb	r3, r3
 1041 027a 1A1C     		mov	r2, r3
 1042 027c 1123     		mov	r3, #17
 1043 027e 1340     		and	r3, r2
 1044 0280 0FD0     		beq	.L31
1489:.\Generated_Source\PSoC4/BLE_eventHandler.c ****     {
1490:.\Generated_Source\PSoC4/BLE_eventHandler.c ****         cyBle_eventHandlerFlag &= (uint8)~CYBLE_CALLBACK;
 1045              		.loc 1 1490 0
 1046 0282 094B     		ldr	r3, .L69
 1047 0284 1B78     		ldrb	r3, [r3]
 1048 0286 DBB2     		uxtb	r3, r3
 1049 0288 0122     		mov	r2, #1
 1050 028a 9343     		bic	r3, r2
 1051 028c DAB2     		uxtb	r2, r3
 1052 028e 064B     		ldr	r3, .L69
 1053 0290 1A70     		strb	r2, [r3]
1491:.\Generated_Source\PSoC4/BLE_eventHandler.c ****         CyBle_ApplCallback((uint32)eventCode, eventParam);
 1054              		.loc 1 1491 0
 1055 0292 124B     		ldr	r3, .L69+52
 1056 0294 1B68     		ldr	r3, [r3]
 1057 0296 FA1D     		add	r2, r7, #7
 1058 0298 1178     		ldrb	r1, [r2]
 1059 029a 3A68     		ldr	r2, [r7]
 1060 029c 081C     		mov	r0, r1
 1061 029e 111C     		mov	r1, r2
 1062 02a0 9847     		blx	r3
 1063              	.L31:
ARM GAS  C:\Users\Zachary\AppData\Local\Temp\ccmvMQUz.s 			page 46


1492:.\Generated_Source\PSoC4/BLE_eventHandler.c ****     }
1493:.\Generated_Source\PSoC4/BLE_eventHandler.c **** 
1494:.\Generated_Source\PSoC4/BLE_eventHandler.c **** }
 1064              		.loc 1 1494 0
 1065 02a2 BD46     		mov	sp, r7
 1066 02a4 04B0     		add	sp, sp, #16
 1067              		@ sp needed
 1068 02a6 80BD     		pop	{r7, pc}
 1069              	.L70:
 1070              		.align	2
 1071              	.L69:
 1072 02a8 00000000 		.word	cyBle_eventHandlerFlag
 1073 02ac 00000000 		.word	.L34
 1074 02b0 00000000 		.word	cyBle_sflashDeviceAddress
 1075 02b4 7CF1FF0F 		.word	268431740
 1076 02b8 00000000 		.word	cyBle_deviceAddress
 1077 02bc 7DF1FF0F 		.word	268431741
 1078 02c0 7BF1FF0F 		.word	268431739
 1079 02c4 00000000 		.word	cyBle_state
 1080 02c8 00000000 		.word	cyBle_busyStatus
 1081 02cc 00000000 		.word	cyBle_authInfo
 1082 02d0 00000000 		.word	cyBle_connHandle
 1083 02d4 00000000 		.word	cyBle_connectingTimeout
 1084 02d8 00000000 		.word	cyBle_clientState
 1085 02dc 00000000 		.word	CyBle_ApplCallback
 1086              		.cfi_endproc
 1087              	.LFE12:
 1088              		.size	CyBle_EventHandler, .-CyBle_EventHandler
 1089              		.section	.text.CyBle_ReadByGroupEventHandler,"ax",%progbits
 1090              		.align	2
 1091              		.global	CyBle_ReadByGroupEventHandler
 1092              		.code	16
 1093              		.thumb_func
 1094              		.type	CyBle_ReadByGroupEventHandler, %function
 1095              	CyBle_ReadByGroupEventHandler:
 1096              	.LFB13:
1495:.\Generated_Source\PSoC4/BLE_eventHandler.c **** 
1496:.\Generated_Source\PSoC4/BLE_eventHandler.c **** 
1497:.\Generated_Source\PSoC4/BLE_eventHandler.c **** #if (CYBLE_GATT_ROLE_CLIENT)
1498:.\Generated_Source\PSoC4/BLE_eventHandler.c **** 
1499:.\Generated_Source\PSoC4/BLE_eventHandler.c **** 
1500:.\Generated_Source\PSoC4/BLE_eventHandler.c **** /****************************************************************************** 
1501:.\Generated_Source\PSoC4/BLE_eventHandler.c **** ##Function Name: CyBle_ReadByGroupEventHandler
1502:.\Generated_Source\PSoC4/BLE_eventHandler.c **** *******************************************************************************
1503:.\Generated_Source\PSoC4/BLE_eventHandler.c **** 
1504:.\Generated_Source\PSoC4/BLE_eventHandler.c **** Summary:
1505:.\Generated_Source\PSoC4/BLE_eventHandler.c ****  Handles the Read By Group Response Event during an automatic server discovery
1506:.\Generated_Source\PSoC4/BLE_eventHandler.c ****  process.
1507:.\Generated_Source\PSoC4/BLE_eventHandler.c **** 
1508:.\Generated_Source\PSoC4/BLE_eventHandler.c **** Parameters:
1509:.\Generated_Source\PSoC4/BLE_eventHandler.c ****  CYBLE_GATT_READ_BY_GRP_RSP_PARAM_T *eventParam:  the event parameters for a Read By Group Response
1510:.\Generated_Source\PSoC4/BLE_eventHandler.c **** 
1511:.\Generated_Source\PSoC4/BLE_eventHandler.c **** Return:
1512:.\Generated_Source\PSoC4/BLE_eventHandler.c ****  None
1513:.\Generated_Source\PSoC4/BLE_eventHandler.c **** 
1514:.\Generated_Source\PSoC4/BLE_eventHandler.c **** ******************************************************************************/
1515:.\Generated_Source\PSoC4/BLE_eventHandler.c **** void CyBle_ReadByGroupEventHandler(CYBLE_GATTC_READ_BY_GRP_RSP_PARAM_T *eventParam)
ARM GAS  C:\Users\Zachary\AppData\Local\Temp\ccmvMQUz.s 			page 47


1516:.\Generated_Source\PSoC4/BLE_eventHandler.c **** {
 1097              		.loc 1 1516 0
 1098              		.cfi_startproc
 1099 0000 80B5     		push	{r7, lr}
 1100              		.cfi_def_cfa_offset 8
 1101              		.cfi_offset 7, -8
 1102              		.cfi_offset 14, -4
 1103 0002 86B0     		sub	sp, sp, #24
 1104              		.cfi_def_cfa_offset 32
 1105 0004 00AF     		add	r7, sp, #0
 1106              		.cfi_def_cfa_register 7
 1107 0006 7860     		str	r0, [r7, #4]
1517:.\Generated_Source\PSoC4/BLE_eventHandler.c ****     uint8 j;
1518:.\Generated_Source\PSoC4/BLE_eventHandler.c ****     uint16 dataLength;
1519:.\Generated_Source\PSoC4/BLE_eventHandler.c ****     uint16 attrLength;
1520:.\Generated_Source\PSoC4/BLE_eventHandler.c ****     uint16 i;
1521:.\Generated_Source\PSoC4/BLE_eventHandler.c ****     CYBLE_DISC_SRVC_INFO_T* discSrvcInfo = NULL;
 1108              		.loc 1 1521 0
 1109 0008 0023     		mov	r3, #0
 1110 000a 3B61     		str	r3, [r7, #16]
1522:.\Generated_Source\PSoC4/BLE_eventHandler.c ****     uint8 flag;
1523:.\Generated_Source\PSoC4/BLE_eventHandler.c ****     if((CYBLE_CLIENT_STATE_SRVC_DISCOVERING == CyBle_GetClientState()) &&
 1111              		.loc 1 1523 0
 1112 000c 754B     		ldr	r3, .L84
 1113 000e 1B78     		ldrb	r3, [r3]
 1114 0010 012B     		cmp	r3, #1
 1115 0012 00D0     		beq	.LCB883
 1116 0014 E2E0     		b	.L71	@long jump
 1117              	.LCB883:
1524:.\Generated_Source\PSoC4/BLE_eventHandler.c ****         (0u != (cyBle_eventHandlerFlag & CYBLE_AUTO_DISCOVERY)))
 1118              		.loc 1 1524 0 discriminator 1
 1119 0016 744B     		ldr	r3, .L84+4
 1120 0018 1B78     		ldrb	r3, [r3]
 1121 001a DBB2     		uxtb	r3, r3
 1122 001c 1A1C     		mov	r2, r3
 1123 001e 0223     		mov	r3, #2
 1124 0020 1340     		and	r3, r2
1523:.\Generated_Source\PSoC4/BLE_eventHandler.c ****     if((CYBLE_CLIENT_STATE_SRVC_DISCOVERING == CyBle_GetClientState()) &&
 1125              		.loc 1 1523 0 discriminator 1
 1126 0022 00D1     		bne	.LCB891
 1127 0024 DAE0     		b	.L71	@long jump
 1128              	.LCB891:
1525:.\Generated_Source\PSoC4/BLE_eventHandler.c ****     {
1526:.\Generated_Source\PSoC4/BLE_eventHandler.c ****         dataLength = eventParam->attrData.length;
 1129              		.loc 1 1526 0
 1130 0026 3B1C     		mov	r3, r7
 1131 0028 0C33     		add	r3, r3, #12
 1132 002a 7A68     		ldr	r2, [r7, #4]
 1133 002c 1289     		ldrh	r2, [r2, #8]
 1134 002e 1A80     		strh	r2, [r3]
1527:.\Generated_Source\PSoC4/BLE_eventHandler.c **** 
1528:.\Generated_Source\PSoC4/BLE_eventHandler.c ****         if((dataLength == CYBLE_DISC_SRVC_INFO_LEN) || (dataLength == CYBLE_DISC_SRVC_INFO_128_LEN)
 1135              		.loc 1 1528 0
 1136 0030 3B1C     		mov	r3, r7
 1137 0032 0C33     		add	r3, r3, #12
 1138 0034 1B88     		ldrh	r3, [r3]
 1139 0036 062B     		cmp	r3, #6
ARM GAS  C:\Users\Zachary\AppData\Local\Temp\ccmvMQUz.s 			page 48


 1140 0038 05D0     		beq	.L73
 1141              		.loc 1 1528 0 is_stmt 0 discriminator 1
 1142 003a 3B1C     		mov	r3, r7
 1143 003c 0C33     		add	r3, r3, #12
 1144 003e 1B88     		ldrh	r3, [r3]
 1145 0040 142B     		cmp	r3, #20
 1146 0042 00D0     		beq	.LCB906
 1147 0044 C3E0     		b	.L74	@long jump
 1148              	.LCB906:
 1149              	.L73:
1529:.\Generated_Source\PSoC4/BLE_eventHandler.c ****         {
1530:.\Generated_Source\PSoC4/BLE_eventHandler.c ****             attrLength = eventParam->attrData.attrLen;
 1150              		.loc 1 1530 0 is_stmt 1
 1151 0046 3B1C     		mov	r3, r7
 1152 0048 0A33     		add	r3, r3, #10
 1153 004a 7A68     		ldr	r2, [r7, #4]
 1154 004c 5289     		ldrh	r2, [r2, #10]
 1155 004e 1A80     		strh	r2, [r3]
1531:.\Generated_Source\PSoC4/BLE_eventHandler.c **** 
1532:.\Generated_Source\PSoC4/BLE_eventHandler.c ****             for(i = 0u; i < attrLength; i += dataLength)
 1156              		.loc 1 1532 0
 1157 0050 3B1C     		mov	r3, r7
 1158 0052 1433     		add	r3, r3, #20
 1159 0054 0022     		mov	r2, #0
 1160 0056 1A80     		strh	r2, [r3]
 1161 0058 85E0     		b	.L75
 1162              	.L82:
1533:.\Generated_Source\PSoC4/BLE_eventHandler.c ****             {
1534:.\Generated_Source\PSoC4/BLE_eventHandler.c ****                 discSrvcInfo = (CYBLE_DISC_SRVC_INFO_T*)(eventParam->attrData.attrValue + i);
 1163              		.loc 1 1534 0
 1164 005a 7B68     		ldr	r3, [r7, #4]
 1165 005c 5A68     		ldr	r2, [r3, #4]
 1166 005e 3B1C     		mov	r3, r7
 1167 0060 1433     		add	r3, r3, #20
 1168 0062 1B88     		ldrh	r3, [r3]
 1169 0064 D318     		add	r3, r2, r3
 1170 0066 3B61     		str	r3, [r7, #16]
1535:.\Generated_Source\PSoC4/BLE_eventHandler.c **** 
1536:.\Generated_Source\PSoC4/BLE_eventHandler.c ****                 if(dataLength == CYBLE_DISC_SRVC_INFO_LEN)
 1171              		.loc 1 1536 0
 1172 0068 3B1C     		mov	r3, r7
 1173 006a 0C33     		add	r3, r3, #12
 1174 006c 1B88     		ldrh	r3, [r3]
 1175 006e 062B     		cmp	r3, #6
 1176 0070 00D0     		beq	.LCB932
 1177 0072 6EE0     		b	.L76	@long jump
 1178              	.LCB932:
1537:.\Generated_Source\PSoC4/BLE_eventHandler.c ****                 {
1538:.\Generated_Source\PSoC4/BLE_eventHandler.c ****                     flag = 0u;
 1179              		.loc 1 1538 0
 1180 0074 3B1C     		mov	r3, r7
 1181 0076 0F33     		add	r3, r3, #15
 1182 0078 0022     		mov	r2, #0
 1183 007a 1A70     		strb	r2, [r3]
1539:.\Generated_Source\PSoC4/BLE_eventHandler.c **** 					for(j = 0u; (j < (uint8) CYBLE_SRVI_COUNT) && (flag == 0u); j++)
 1184              		.loc 1 1539 0
 1185 007c 3B1C     		mov	r3, r7
ARM GAS  C:\Users\Zachary\AppData\Local\Temp\ccmvMQUz.s 			page 49


 1186 007e 1733     		add	r3, r3, #23
 1187 0080 0022     		mov	r2, #0
 1188 0082 1A70     		strb	r2, [r3]
 1189 0084 5BE0     		b	.L77
 1190              	.L81:
1540:.\Generated_Source\PSoC4/BLE_eventHandler.c ****                     {
1541:.\Generated_Source\PSoC4/BLE_eventHandler.c ****                         if(cyBle_serverInfo[j].uuid == discSrvcInfo->uuid)
 1191              		.loc 1 1541 0
 1192 0086 3B1C     		mov	r3, r7
 1193 0088 1733     		add	r3, r3, #23
 1194 008a 1A78     		ldrb	r2, [r3]
 1195 008c 5749     		ldr	r1, .L84+8
 1196 008e 131C     		mov	r3, r2
 1197 0090 5B00     		lsl	r3, r3, #1
 1198 0092 9B18     		add	r3, r3, r2
 1199 0094 5B00     		lsl	r3, r3, #1
 1200 0096 CB18     		add	r3, r1, r3
 1201 0098 9A88     		ldrh	r2, [r3, #4]
 1202 009a 3B69     		ldr	r3, [r7, #16]
 1203 009c 9B88     		ldrh	r3, [r3, #4]
 1204 009e 9A42     		cmp	r2, r3
 1205 00a0 46D1     		bne	.L78
1542:.\Generated_Source\PSoC4/BLE_eventHandler.c ****                         {
1543:.\Generated_Source\PSoC4/BLE_eventHandler.c ****                             if(cyBle_serverInfo[j].range.startHandle == CYBLE_GATT_INVALID_ATTR_HAN
 1206              		.loc 1 1543 0
 1207 00a2 3B1C     		mov	r3, r7
 1208 00a4 1733     		add	r3, r3, #23
 1209 00a6 1A78     		ldrb	r2, [r3]
 1210 00a8 5049     		ldr	r1, .L84+8
 1211 00aa 131C     		mov	r3, r2
 1212 00ac 5B00     		lsl	r3, r3, #1
 1213 00ae 9B18     		add	r3, r3, r2
 1214 00b0 5B00     		lsl	r3, r3, #1
 1215 00b2 5B5A     		ldrh	r3, [r3, r1]
 1216 00b4 002B     		cmp	r3, #0
 1217 00b6 1AD1     		bne	.L79
1544:.\Generated_Source\PSoC4/BLE_eventHandler.c ****                             {
1545:.\Generated_Source\PSoC4/BLE_eventHandler.c ****                                 cyBle_serverInfo[j].range = discSrvcInfo->range;
 1218              		.loc 1 1545 0
 1219 00b8 3B1C     		mov	r3, r7
 1220 00ba 1733     		add	r3, r3, #23
 1221 00bc 1A78     		ldrb	r2, [r3]
 1222 00be 4B49     		ldr	r1, .L84+8
 1223 00c0 131C     		mov	r3, r2
 1224 00c2 5B00     		lsl	r3, r3, #1
 1225 00c4 9B18     		add	r3, r3, r2
 1226 00c6 5B00     		lsl	r3, r3, #1
 1227 00c8 3A69     		ldr	r2, [r7, #16]
 1228 00ca C918     		add	r1, r1, r3
 1229 00cc 0423     		mov	r3, #4
 1230 00ce 081C     		mov	r0, r1
 1231 00d0 111C     		mov	r1, r2
 1232 00d2 1A1C     		mov	r2, r3
 1233 00d4 FFF7FEFF 		bl	memcpy
1546:.\Generated_Source\PSoC4/BLE_eventHandler.c ****                                 cyBle_disCount++;
 1234              		.loc 1 1546 0
 1235 00d8 454B     		ldr	r3, .L84+12
ARM GAS  C:\Users\Zachary\AppData\Local\Temp\ccmvMQUz.s 			page 50


 1236 00da 1B78     		ldrb	r3, [r3]
 1237 00dc 0133     		add	r3, r3, #1
 1238 00de DAB2     		uxtb	r2, r3
 1239 00e0 434B     		ldr	r3, .L84+12
 1240 00e2 1A70     		strb	r2, [r3]
1547:.\Generated_Source\PSoC4/BLE_eventHandler.c ****                                 flag = 1u;
 1241              		.loc 1 1547 0
 1242 00e4 3B1C     		mov	r3, r7
 1243 00e6 0F33     		add	r3, r3, #15
 1244 00e8 0122     		mov	r2, #1
 1245 00ea 1A70     		strb	r2, [r3]
 1246 00ec 20E0     		b	.L78
 1247              	.L79:
1548:.\Generated_Source\PSoC4/BLE_eventHandler.c ****                             }
1549:.\Generated_Source\PSoC4/BLE_eventHandler.c ****                             else    /* Duplication of service */
1550:.\Generated_Source\PSoC4/BLE_eventHandler.c ****                             {
1551:.\Generated_Source\PSoC4/BLE_eventHandler.c ****                                 /* For multiple service support next service has the same uuid */
1552:.\Generated_Source\PSoC4/BLE_eventHandler.c ****                                 if((j >= (CYBLE_SRVI_COUNT - 1u)) || 
 1248              		.loc 1 1552 0
 1249 00ee 3B1C     		mov	r3, r7
 1250 00f0 1733     		add	r3, r3, #23
 1251 00f2 1B78     		ldrb	r3, [r3]
 1252 00f4 012B     		cmp	r3, #1
 1253 00f6 0ED8     		bhi	.L80
1553:.\Generated_Source\PSoC4/BLE_eventHandler.c ****                                    (cyBle_serverInfo[j + 1u].uuid != discSrvcInfo->uuid))
 1254              		.loc 1 1553 0 discriminator 1
 1255 00f8 3B1C     		mov	r3, r7
 1256 00fa 1733     		add	r3, r3, #23
 1257 00fc 1B78     		ldrb	r3, [r3]
 1258 00fe 5A1C     		add	r2, r3, #1
 1259 0100 3A49     		ldr	r1, .L84+8
 1260 0102 131C     		mov	r3, r2
 1261 0104 5B00     		lsl	r3, r3, #1
 1262 0106 9B18     		add	r3, r3, r2
 1263 0108 5B00     		lsl	r3, r3, #1
 1264 010a CB18     		add	r3, r1, r3
 1265 010c 9A88     		ldrh	r2, [r3, #4]
 1266 010e 3B69     		ldr	r3, [r7, #16]
 1267 0110 9B88     		ldrh	r3, [r3, #4]
1552:.\Generated_Source\PSoC4/BLE_eventHandler.c ****                                 if((j >= (CYBLE_SRVI_COUNT - 1u)) || 
 1268              		.loc 1 1552 0 discriminator 1
 1269 0112 9A42     		cmp	r2, r3
 1270 0114 0CD0     		beq	.L78
 1271              	.L80:
1554:.\Generated_Source\PSoC4/BLE_eventHandler.c ****                                 {
1555:.\Generated_Source\PSoC4/BLE_eventHandler.c ****                                     CyBle_ApplCallback(CYBLE_EVT_GATTC_SRVC_DUPLICATION, &discSrvcI
 1272              		.loc 1 1555 0
 1273 0116 374B     		ldr	r3, .L84+16
 1274 0118 1B68     		ldr	r3, [r3]
 1275 011a 3A69     		ldr	r2, [r7, #16]
 1276 011c 0432     		add	r2, r2, #4
 1277 011e 0C21     		mov	r1, #12
 1278 0120 FF31     		add	r1, r1, #255
 1279 0122 081C     		mov	r0, r1
 1280 0124 111C     		mov	r1, r2
 1281 0126 9847     		blx	r3
1556:.\Generated_Source\PSoC4/BLE_eventHandler.c ****                                     flag = 1u;
ARM GAS  C:\Users\Zachary\AppData\Local\Temp\ccmvMQUz.s 			page 51


 1282              		.loc 1 1556 0
 1283 0128 3B1C     		mov	r3, r7
 1284 012a 0F33     		add	r3, r3, #15
 1285 012c 0122     		mov	r2, #1
 1286 012e 1A70     		strb	r2, [r3]
 1287              	.L78:
1539:.\Generated_Source\PSoC4/BLE_eventHandler.c **** 					for(j = 0u; (j < (uint8) CYBLE_SRVI_COUNT) && (flag == 0u); j++)
 1288              		.loc 1 1539 0
 1289 0130 3B1C     		mov	r3, r7
 1290 0132 1733     		add	r3, r3, #23
 1291 0134 1A78     		ldrb	r2, [r3]
 1292 0136 3B1C     		mov	r3, r7
 1293 0138 1733     		add	r3, r3, #23
 1294 013a 0132     		add	r2, r2, #1
 1295 013c 1A70     		strb	r2, [r3]
 1296              	.L77:
1539:.\Generated_Source\PSoC4/BLE_eventHandler.c **** 					for(j = 0u; (j < (uint8) CYBLE_SRVI_COUNT) && (flag == 0u); j++)
 1297              		.loc 1 1539 0 is_stmt 0 discriminator 1
 1298 013e 3B1C     		mov	r3, r7
 1299 0140 1733     		add	r3, r3, #23
 1300 0142 1B78     		ldrb	r3, [r3]
 1301 0144 022B     		cmp	r3, #2
 1302 0146 04D8     		bhi	.L76
1539:.\Generated_Source\PSoC4/BLE_eventHandler.c **** 					for(j = 0u; (j < (uint8) CYBLE_SRVI_COUNT) && (flag == 0u); j++)
 1303              		.loc 1 1539 0 discriminator 2
 1304 0148 3B1C     		mov	r3, r7
 1305 014a 0F33     		add	r3, r3, #15
 1306 014c 1B78     		ldrb	r3, [r3]
 1307 014e 002B     		cmp	r3, #0
 1308 0150 99D0     		beq	.L81
 1309              	.L76:
1532:.\Generated_Source\PSoC4/BLE_eventHandler.c ****             for(i = 0u; i < attrLength; i += dataLength)
 1310              		.loc 1 1532 0 is_stmt 1
 1311 0152 3B1C     		mov	r3, r7
 1312 0154 1433     		add	r3, r3, #20
 1313 0156 391C     		mov	r1, r7
 1314 0158 1431     		add	r1, r1, #20
 1315 015a 3A1C     		mov	r2, r7
 1316 015c 0C32     		add	r2, r2, #12
 1317 015e 0988     		ldrh	r1, [r1]
 1318 0160 1288     		ldrh	r2, [r2]
 1319 0162 8A18     		add	r2, r1, r2
 1320 0164 1A80     		strh	r2, [r3]
 1321              	.L75:
1532:.\Generated_Source\PSoC4/BLE_eventHandler.c ****             for(i = 0u; i < attrLength; i += dataLength)
 1322              		.loc 1 1532 0 is_stmt 0 discriminator 1
 1323 0166 3A1C     		mov	r2, r7
 1324 0168 1432     		add	r2, r2, #20
 1325 016a 3B1C     		mov	r3, r7
 1326 016c 0A33     		add	r3, r3, #10
 1327 016e 1288     		ldrh	r2, [r2]
 1328 0170 1B88     		ldrh	r3, [r3]
 1329 0172 9A42     		cmp	r2, r3
 1330 0174 00D2     		bcs	.LCB1074
 1331 0176 70E7     		b	.L82	@long jump
 1332              	.LCB1074:
1557:.\Generated_Source\PSoC4/BLE_eventHandler.c ****                                 }
ARM GAS  C:\Users\Zachary\AppData\Local\Temp\ccmvMQUz.s 			page 52


1558:.\Generated_Source\PSoC4/BLE_eventHandler.c ****                             }
1559:.\Generated_Source\PSoC4/BLE_eventHandler.c ****                         }
1560:.\Generated_Source\PSoC4/BLE_eventHandler.c ****                     }
1561:.\Generated_Source\PSoC4/BLE_eventHandler.c ****                 }
1562:.\Generated_Source\PSoC4/BLE_eventHandler.c ****             }
1563:.\Generated_Source\PSoC4/BLE_eventHandler.c **** 
1564:.\Generated_Source\PSoC4/BLE_eventHandler.c ****             if((discSrvcInfo != NULL) && (discSrvcInfo->range.endHandle == CYBLE_GATT_ATTR_HANDLE_E
 1333              		.loc 1 1564 0 is_stmt 1
 1334 0178 3B69     		ldr	r3, [r7, #16]
 1335 017a 002B     		cmp	r3, #0
 1336 017c 1ED0     		beq	.L83
 1337              		.loc 1 1564 0 is_stmt 0 discriminator 1
 1338 017e 3B69     		ldr	r3, [r7, #16]
 1339 0180 5A88     		ldrh	r2, [r3, #2]
 1340 0182 1D4B     		ldr	r3, .L84+20
 1341 0184 9A42     		cmp	r2, r3
 1342 0186 19D1     		bne	.L83
1565:.\Generated_Source\PSoC4/BLE_eventHandler.c ****             {
1566:.\Generated_Source\PSoC4/BLE_eventHandler.c ****             #if(CYBLE_STACK_MODE_DEBUG)
1567:.\Generated_Source\PSoC4/BLE_eventHandler.c ****                 CyBle_ApplCallback(CYBLE_EVT_GATTC_SRVC_DISCOVERY_COMPLETE, NULL);
1568:.\Generated_Source\PSoC4/BLE_eventHandler.c ****             #endif /* CYBLE_STACK_MODE_DEBUG */   
1569:.\Generated_Source\PSoC4/BLE_eventHandler.c ****                 CyBle_SetClientState(CYBLE_CLIENT_STATE_INCL_DISCOVERING);
 1343              		.loc 1 1569 0 is_stmt 1
 1344 0188 164B     		ldr	r3, .L84
 1345 018a 0222     		mov	r2, #2
 1346 018c 1A70     		strb	r2, [r3]
1570:.\Generated_Source\PSoC4/BLE_eventHandler.c ****                 cyBle_disCount = 0u;
 1347              		.loc 1 1570 0
 1348 018e 184B     		ldr	r3, .L84+12
 1349 0190 0022     		mov	r2, #0
 1350 0192 1A70     		strb	r2, [r3]
1571:.\Generated_Source\PSoC4/BLE_eventHandler.c ****                 if(CYBLE_ERROR_OK != CyBle_NextInclDiscovery())
 1351              		.loc 1 1571 0
 1352 0194 FFF7FEFF 		bl	CyBle_NextInclDiscovery
 1353 0198 031C     		mov	r3, r0
 1354 019a 002B     		cmp	r3, #0
 1355 019c 0ED0     		beq	.L83
1572:.\Generated_Source\PSoC4/BLE_eventHandler.c ****                 {
1573:.\Generated_Source\PSoC4/BLE_eventHandler.c ****                     CyBle_ApplCallback(CYBLE_EVT_GATTC_INCL_DISCOVERY_FAILED, NULL);
 1356              		.loc 1 1573 0
 1357 019e 154B     		ldr	r3, .L84+16
 1358 01a0 1B68     		ldr	r3, [r3]
 1359 01a2 8422     		mov	r2, #132
 1360 01a4 5200     		lsl	r2, r2, #1
 1361 01a6 101C     		mov	r0, r2
 1362 01a8 0021     		mov	r1, #0
 1363 01aa 9847     		blx	r3
1574:.\Generated_Source\PSoC4/BLE_eventHandler.c ****                     cyBle_eventHandlerFlag &= (uint8)~CYBLE_AUTO_DISCOVERY;
 1364              		.loc 1 1574 0
 1365 01ac 0E4B     		ldr	r3, .L84+4
 1366 01ae 1B78     		ldrb	r3, [r3]
 1367 01b0 DBB2     		uxtb	r3, r3
 1368 01b2 0222     		mov	r2, #2
 1369 01b4 9343     		bic	r3, r2
 1370 01b6 DAB2     		uxtb	r2, r3
 1371 01b8 0B4B     		ldr	r3, .L84+4
 1372 01ba 1A70     		strb	r2, [r3]
ARM GAS  C:\Users\Zachary\AppData\Local\Temp\ccmvMQUz.s 			page 53


 1373              	.L83:
1575:.\Generated_Source\PSoC4/BLE_eventHandler.c ****                 }
1576:.\Generated_Source\PSoC4/BLE_eventHandler.c ****             }
1577:.\Generated_Source\PSoC4/BLE_eventHandler.c ****             cyBle_eventHandlerFlag &= (uint8)~CYBLE_CALLBACK;
 1374              		.loc 1 1577 0
 1375 01bc 0A4B     		ldr	r3, .L84+4
 1376 01be 1B78     		ldrb	r3, [r3]
 1377 01c0 DBB2     		uxtb	r3, r3
 1378 01c2 0122     		mov	r2, #1
 1379 01c4 9343     		bic	r3, r2
 1380 01c6 DAB2     		uxtb	r2, r3
 1381 01c8 074B     		ldr	r3, .L84+4
 1382 01ca 1A70     		strb	r2, [r3]
 1383 01cc 06E0     		b	.L71
 1384              	.L74:
1578:.\Generated_Source\PSoC4/BLE_eventHandler.c ****         }
1579:.\Generated_Source\PSoC4/BLE_eventHandler.c ****         else
1580:.\Generated_Source\PSoC4/BLE_eventHandler.c ****         {
1581:.\Generated_Source\PSoC4/BLE_eventHandler.c ****             CyBle_ApplCallback(CYBLE_EVT_GATTC_SRVC_DISCOVERY_FAILED, NULL);
 1385              		.loc 1 1581 0
 1386 01ce 094B     		ldr	r3, .L84+16
 1387 01d0 1B68     		ldr	r3, [r3]
 1388 01d2 0822     		mov	r2, #8
 1389 01d4 FF32     		add	r2, r2, #255
 1390 01d6 101C     		mov	r0, r2
 1391 01d8 0021     		mov	r1, #0
 1392 01da 9847     		blx	r3
 1393              	.L71:
1582:.\Generated_Source\PSoC4/BLE_eventHandler.c ****         }
1583:.\Generated_Source\PSoC4/BLE_eventHandler.c ****     }
1584:.\Generated_Source\PSoC4/BLE_eventHandler.c **** }
 1394              		.loc 1 1584 0
 1395 01dc BD46     		mov	sp, r7
 1396 01de 06B0     		add	sp, sp, #24
 1397              		@ sp needed
 1398 01e0 80BD     		pop	{r7, pc}
 1399              	.L85:
 1400 01e2 C046     		.align	2
 1401              	.L84:
 1402 01e4 00000000 		.word	cyBle_clientState
 1403 01e8 00000000 		.word	cyBle_eventHandlerFlag
 1404 01ec 00000000 		.word	cyBle_serverInfo
 1405 01f0 00000000 		.word	cyBle_disCount
 1406 01f4 00000000 		.word	CyBle_ApplCallback
 1407 01f8 FFFF0000 		.word	65535
 1408              		.cfi_endproc
 1409              	.LFE13:
 1410              		.size	CyBle_ReadByGroupEventHandler, .-CyBle_ReadByGroupEventHandler
 1411              		.section	.text.CyBle_NextInclDiscovery,"ax",%progbits
 1412              		.align	2
 1413              		.global	CyBle_NextInclDiscovery
 1414              		.code	16
 1415              		.thumb_func
 1416              		.type	CyBle_NextInclDiscovery, %function
 1417              	CyBle_NextInclDiscovery:
 1418              	.LFB14:
1585:.\Generated_Source\PSoC4/BLE_eventHandler.c **** 
ARM GAS  C:\Users\Zachary\AppData\Local\Temp\ccmvMQUz.s 			page 54


1586:.\Generated_Source\PSoC4/BLE_eventHandler.c **** 
1587:.\Generated_Source\PSoC4/BLE_eventHandler.c **** /****************************************************************************** 
1588:.\Generated_Source\PSoC4/BLE_eventHandler.c **** ##Function Name: CyBle_NextInclDiscovery
1589:.\Generated_Source\PSoC4/BLE_eventHandler.c **** *******************************************************************************
1590:.\Generated_Source\PSoC4/BLE_eventHandler.c **** 
1591:.\Generated_Source\PSoC4/BLE_eventHandler.c **** Summary:
1592:.\Generated_Source\PSoC4/BLE_eventHandler.c ****  Looks for the included services in the current service (pointed by
1593:.\Generated_Source\PSoC4/BLE_eventHandler.c ****   cyBle_disCount). If the current service handle range is invalid (any of start
1594:.\Generated_Source\PSoC4/BLE_eventHandler.c ****   or end handle is invalid), then increment the cyBle_disCount and check
1595:.\Generated_Source\PSoC4/BLE_eventHandler.c ****   the next service range and does so until a valid range is caught or the end of
1596:.\Generated_Source\PSoC4/BLE_eventHandler.c ****   the service set is reached.
1597:.\Generated_Source\PSoC4/BLE_eventHandler.c **** 
1598:.\Generated_Source\PSoC4/BLE_eventHandler.c **** Parameters:
1599:.\Generated_Source\PSoC4/BLE_eventHandler.c ****  None
1600:.\Generated_Source\PSoC4/BLE_eventHandler.c **** 
1601:.\Generated_Source\PSoC4/BLE_eventHandler.c **** Return:
1602:.\Generated_Source\PSoC4/BLE_eventHandler.c ****  uint16 apiResult - may be either:
1603:.\Generated_Source\PSoC4/BLE_eventHandler.c ****          - CYBLE_DESCR_DISC_DONE when there are no more descriptors.
1604:.\Generated_Source\PSoC4/BLE_eventHandler.c ****          - result of the CyBle_GattcDiscoverAllCharacteristicDescriptors().
1605:.\Generated_Source\PSoC4/BLE_eventHandler.c **** 
1606:.\Generated_Source\PSoC4/BLE_eventHandler.c **** ******************************************************************************/
1607:.\Generated_Source\PSoC4/BLE_eventHandler.c **** CYBLE_API_RESULT_T CyBle_NextInclDiscovery(void)
1608:.\Generated_Source\PSoC4/BLE_eventHandler.c **** {
 1419              		.loc 1 1608 0
 1420              		.cfi_startproc
 1421 0000 90B5     		push	{r4, r7, lr}
 1422              		.cfi_def_cfa_offset 12
 1423              		.cfi_offset 4, -12
 1424              		.cfi_offset 7, -8
 1425              		.cfi_offset 14, -4
 1426 0002 83B0     		sub	sp, sp, #12
 1427              		.cfi_def_cfa_offset 24
 1428 0004 00AF     		add	r7, sp, #0
 1429              		.cfi_def_cfa_register 7
1609:.\Generated_Source\PSoC4/BLE_eventHandler.c ****     CYBLE_API_RESULT_T apiResult;
1610:.\Generated_Source\PSoC4/BLE_eventHandler.c **** 
1611:.\Generated_Source\PSoC4/BLE_eventHandler.c ****     /* Skip not existing services */
1612:.\Generated_Source\PSoC4/BLE_eventHandler.c ****     while((cyBle_disCount < (uint8) CYBLE_SRVI_COUNT) &&
 1430              		.loc 1 1612 0
 1431 0006 05E0     		b	.L87
 1432              	.L89:
1613:.\Generated_Source\PSoC4/BLE_eventHandler.c ****           (cyBle_serverInfo[cyBle_disCount].range.startHandle == CYBLE_GATT_INVALID_ATTR_HANDLE_VAL
1614:.\Generated_Source\PSoC4/BLE_eventHandler.c ****     {
1615:.\Generated_Source\PSoC4/BLE_eventHandler.c ****         cyBle_disCount++;
 1433              		.loc 1 1615 0
 1434 0008 1A4B     		ldr	r3, .L93
 1435 000a 1B78     		ldrb	r3, [r3]
 1436 000c 0133     		add	r3, r3, #1
 1437 000e DAB2     		uxtb	r2, r3
 1438 0010 184B     		ldr	r3, .L93
 1439 0012 1A70     		strb	r2, [r3]
 1440              	.L87:
1612:.\Generated_Source\PSoC4/BLE_eventHandler.c ****     while((cyBle_disCount < (uint8) CYBLE_SRVI_COUNT) &&
 1441              		.loc 1 1612 0 discriminator 1
 1442 0014 174B     		ldr	r3, .L93
 1443 0016 1B78     		ldrb	r3, [r3]
 1444 0018 022B     		cmp	r3, #2
ARM GAS  C:\Users\Zachary\AppData\Local\Temp\ccmvMQUz.s 			page 55


 1445 001a 0AD8     		bhi	.L88
1613:.\Generated_Source\PSoC4/BLE_eventHandler.c ****           (cyBle_serverInfo[cyBle_disCount].range.startHandle == CYBLE_GATT_INVALID_ATTR_HANDLE_VAL
 1446              		.loc 1 1613 0 discriminator 2
 1447 001c 154B     		ldr	r3, .L93
 1448 001e 1B78     		ldrb	r3, [r3]
 1449 0020 1A1C     		mov	r2, r3
 1450 0022 1549     		ldr	r1, .L93+4
 1451 0024 131C     		mov	r3, r2
 1452 0026 5B00     		lsl	r3, r3, #1
 1453 0028 9B18     		add	r3, r3, r2
 1454 002a 5B00     		lsl	r3, r3, #1
 1455 002c 5B5A     		ldrh	r3, [r3, r1]
1612:.\Generated_Source\PSoC4/BLE_eventHandler.c ****     while((cyBle_disCount < (uint8) CYBLE_SRVI_COUNT) &&
 1456              		.loc 1 1612 0 discriminator 2
 1457 002e 002B     		cmp	r3, #0
 1458 0030 EAD0     		beq	.L89
 1459              	.L88:
1616:.\Generated_Source\PSoC4/BLE_eventHandler.c ****     }
1617:.\Generated_Source\PSoC4/BLE_eventHandler.c **** 
1618:.\Generated_Source\PSoC4/BLE_eventHandler.c ****     if(cyBle_disCount < (uint8) CYBLE_SRVI_COUNT)
 1460              		.loc 1 1618 0
 1461 0032 104B     		ldr	r3, .L93
 1462 0034 1B78     		ldrb	r3, [r3]
 1463 0036 022B     		cmp	r3, #2
 1464 0038 11D8     		bhi	.L90
1619:.\Generated_Source\PSoC4/BLE_eventHandler.c ****     {
1620:.\Generated_Source\PSoC4/BLE_eventHandler.c ****         apiResult = CyBle_GattcFindIncludedServices(cyBle_connHandle, &cyBle_serverInfo[cyBle_disCo
 1465              		.loc 1 1620 0
 1466 003a 0E4B     		ldr	r3, .L93
 1467 003c 1B78     		ldrb	r3, [r3]
 1468 003e 1A1C     		mov	r2, r3
 1469 0040 131C     		mov	r3, r2
 1470 0042 5B00     		lsl	r3, r3, #1
 1471 0044 9B18     		add	r3, r3, r2
 1472 0046 5B00     		lsl	r3, r3, #1
 1473 0048 0B4A     		ldr	r2, .L93+4
 1474 004a 9A18     		add	r2, r3, r2
 1475 004c BC1D     		add	r4, r7, #6
 1476 004e 0B4B     		ldr	r3, .L93+8
 1477 0050 1868     		ldr	r0, [r3]
 1478 0052 111C     		mov	r1, r2
 1479 0054 FFF7FEFF 		bl	CyBle_GattcFindIncludedServices
 1480 0058 031C     		mov	r3, r0
 1481 005a 2380     		strh	r3, [r4]
 1482 005c 03E0     		b	.L91
 1483              	.L90:
1621:.\Generated_Source\PSoC4/BLE_eventHandler.c ****     }
1622:.\Generated_Source\PSoC4/BLE_eventHandler.c ****     else
1623:.\Generated_Source\PSoC4/BLE_eventHandler.c ****     {
1624:.\Generated_Source\PSoC4/BLE_eventHandler.c ****         apiResult = CYBLE_INCL_DISC_DONE;
 1484              		.loc 1 1624 0
 1485 005e BB1D     		add	r3, r7, #6
 1486 0060 8022     		mov	r2, #128
 1487 0062 5200     		lsl	r2, r2, #1
 1488 0064 1A80     		strh	r2, [r3]
 1489              	.L91:
1625:.\Generated_Source\PSoC4/BLE_eventHandler.c ****     }
ARM GAS  C:\Users\Zachary\AppData\Local\Temp\ccmvMQUz.s 			page 56


1626:.\Generated_Source\PSoC4/BLE_eventHandler.c **** 
1627:.\Generated_Source\PSoC4/BLE_eventHandler.c ****     return (apiResult);
 1490              		.loc 1 1627 0
 1491 0066 BB1D     		add	r3, r7, #6
 1492 0068 1B88     		ldrh	r3, [r3]
1628:.\Generated_Source\PSoC4/BLE_eventHandler.c **** }
 1493              		.loc 1 1628 0
 1494 006a 181C     		mov	r0, r3
 1495 006c BD46     		mov	sp, r7
 1496 006e 03B0     		add	sp, sp, #12
 1497              		@ sp needed
 1498 0070 90BD     		pop	{r4, r7, pc}
 1499              	.L94:
 1500 0072 C046     		.align	2
 1501              	.L93:
 1502 0074 00000000 		.word	cyBle_disCount
 1503 0078 00000000 		.word	cyBle_serverInfo
 1504 007c 00000000 		.word	cyBle_connHandle
 1505              		.cfi_endproc
 1506              	.LFE14:
 1507              		.size	CyBle_NextInclDiscovery, .-CyBle_NextInclDiscovery
 1508              		.section	.text.CyBle_GapcDiscoverCharacteristicsEventHandler,"ax",%progbits
 1509              		.align	2
 1510              		.code	16
 1511              		.thumb_func
 1512              		.type	CyBle_GapcDiscoverCharacteristicsEventHandler, %function
 1513              	CyBle_GapcDiscoverCharacteristicsEventHandler:
 1514              	.LFB15:
1629:.\Generated_Source\PSoC4/BLE_eventHandler.c **** 
1630:.\Generated_Source\PSoC4/BLE_eventHandler.c **** 
1631:.\Generated_Source\PSoC4/BLE_eventHandler.c **** /****************************************************************************** 
1632:.\Generated_Source\PSoC4/BLE_eventHandler.c **** ##Function Name: CyBle_GapcDiscoverCharacteristicsEventHandler
1633:.\Generated_Source\PSoC4/BLE_eventHandler.c **** *******************************************************************************
1634:.\Generated_Source\PSoC4/BLE_eventHandler.c **** 
1635:.\Generated_Source\PSoC4/BLE_eventHandler.c **** Summary:
1636:.\Generated_Source\PSoC4/BLE_eventHandler.c ****  This function is called on receiving a "CYBLE_EVT_GATTC_READ_BY_TYPE_RSP"
1637:.\Generated_Source\PSoC4/BLE_eventHandler.c ****  event. Based on the service UUID, an appropriate data structure is populated
1638:.\Generated_Source\PSoC4/BLE_eventHandler.c ****  using the data received as part of the callback.
1639:.\Generated_Source\PSoC4/BLE_eventHandler.c **** 
1640:.\Generated_Source\PSoC4/BLE_eventHandler.c **** Parameters:
1641:.\Generated_Source\PSoC4/BLE_eventHandler.c ****  *discCharInfo:  the pointer to a characteristic information structure.
1642:.\Generated_Source\PSoC4/BLE_eventHandler.c **** 
1643:.\Generated_Source\PSoC4/BLE_eventHandler.c **** Return:
1644:.\Generated_Source\PSoC4/BLE_eventHandler.c ****  None
1645:.\Generated_Source\PSoC4/BLE_eventHandler.c **** 
1646:.\Generated_Source\PSoC4/BLE_eventHandler.c **** ******************************************************************************/
1647:.\Generated_Source\PSoC4/BLE_eventHandler.c **** static void CyBle_GapcDiscoverCharacteristicsEventHandler(CYBLE_DISC_CHAR_INFO_T *discCharInfo)
1648:.\Generated_Source\PSoC4/BLE_eventHandler.c **** {
 1515              		.loc 1 1648 0
 1516              		.cfi_startproc
 1517 0000 80B5     		push	{r7, lr}
 1518              		.cfi_def_cfa_offset 8
 1519              		.cfi_offset 7, -8
 1520              		.cfi_offset 14, -4
 1521 0002 82B0     		sub	sp, sp, #8
 1522              		.cfi_def_cfa_offset 16
 1523 0004 00AF     		add	r7, sp, #0
ARM GAS  C:\Users\Zachary\AppData\Local\Temp\ccmvMQUz.s 			page 57


 1524              		.cfi_def_cfa_register 7
 1525 0006 7860     		str	r0, [r7, #4]
1649:.\Generated_Source\PSoC4/BLE_eventHandler.c ****     switch(discCharInfo->uuid.uuid16)
 1526              		.loc 1 1649 0
 1527 0008 7B68     		ldr	r3, [r7, #4]
 1528 000a DB88     		ldrh	r3, [r3, #6]
 1529 000c 364A     		ldr	r2, .L115
 1530 000e 9B18     		add	r3, r3, r2
 1531 0010 042B     		cmp	r3, #4
 1532 0012 00D9     		bls	.LCB1262
 1533 0014 63E0     		b	.L114	@long jump
 1534              	.LCB1262:
 1535 0016 9A00     		lsl	r2, r3, #2
 1536 0018 344B     		ldr	r3, .L115+4
 1537 001a D318     		add	r3, r2, r3
 1538 001c 1B68     		ldr	r3, [r3]
 1539 001e 9F46     		mov	pc, r3
 1540              		.section	.rodata
 1541              		.align	2
 1542              	.L98:
 1543 01c8 20000000 		.word	.L97
 1544 01cc 46000000 		.word	.L99
 1545 01d0 6C000000 		.word	.L100
 1546 01d4 92000000 		.word	.L101
 1547 01d8 B8000000 		.word	.L102
 1548              		.section	.text.CyBle_GapcDiscoverCharacteristicsEventHandler
 1549              	.L97:
1650:.\Generated_Source\PSoC4/BLE_eventHandler.c ****     {
1651:.\Generated_Source\PSoC4/BLE_eventHandler.c ****     case CYBLE_UUID_CHAR_DEVICE_NAME:
1652:.\Generated_Source\PSoC4/BLE_eventHandler.c ****         CYBLE_GapcCheckCharHandle(cyBle_gapc.deviceNameCharHandle, discCharInfo);
 1550              		.loc 1 1652 0
 1551 0020 334B     		ldr	r3, .L115+8
 1552 0022 1B88     		ldrh	r3, [r3]
 1553 0024 002B     		cmp	r3, #0
 1554 0026 04D1     		bne	.L103
 1555              		.loc 1 1652 0 is_stmt 0 discriminator 1
 1556 0028 7B68     		ldr	r3, [r7, #4]
 1557 002a 9A88     		ldrh	r2, [r3, #4]
 1558 002c 304B     		ldr	r3, .L115+8
 1559 002e 1A80     		strh	r2, [r3]
1653:.\Generated_Source\PSoC4/BLE_eventHandler.c ****         break;
 1560              		.loc 1 1653 0 is_stmt 1 discriminator 1
 1561 0030 56E0     		b	.L95
 1562              	.L103:
1652:.\Generated_Source\PSoC4/BLE_eventHandler.c ****         CYBLE_GapcCheckCharHandle(cyBle_gapc.deviceNameCharHandle, discCharInfo);
 1563              		.loc 1 1652 0 discriminator 2
 1564 0032 304B     		ldr	r3, .L115+12
 1565 0034 1B68     		ldr	r3, [r3]
 1566 0036 7A68     		ldr	r2, [r7, #4]
 1567 0038 0632     		add	r2, r2, #6
 1568 003a 8621     		mov	r1, #134
 1569 003c 4900     		lsl	r1, r1, #1
 1570 003e 081C     		mov	r0, r1
 1571 0040 111C     		mov	r1, r2
 1572 0042 9847     		blx	r3
 1573              		.loc 1 1653 0 discriminator 2
 1574 0044 4CE0     		b	.L95
ARM GAS  C:\Users\Zachary\AppData\Local\Temp\ccmvMQUz.s 			page 58


 1575              	.L99:
1654:.\Generated_Source\PSoC4/BLE_eventHandler.c **** 
1655:.\Generated_Source\PSoC4/BLE_eventHandler.c ****     case CYBLE_UUID_CHAR_APPEARANCE:
1656:.\Generated_Source\PSoC4/BLE_eventHandler.c ****         CYBLE_GapcCheckCharHandle(cyBle_gapc.appearanceCharHandle, discCharInfo);
 1576              		.loc 1 1656 0
 1577 0046 2A4B     		ldr	r3, .L115+8
 1578 0048 5B88     		ldrh	r3, [r3, #2]
 1579 004a 002B     		cmp	r3, #0
 1580 004c 04D1     		bne	.L106
 1581              		.loc 1 1656 0 is_stmt 0 discriminator 1
 1582 004e 7B68     		ldr	r3, [r7, #4]
 1583 0050 9A88     		ldrh	r2, [r3, #4]
 1584 0052 274B     		ldr	r3, .L115+8
 1585 0054 5A80     		strh	r2, [r3, #2]
1657:.\Generated_Source\PSoC4/BLE_eventHandler.c ****         break;
 1586              		.loc 1 1657 0 is_stmt 1 discriminator 1
 1587 0056 43E0     		b	.L95
 1588              	.L106:
1656:.\Generated_Source\PSoC4/BLE_eventHandler.c ****         CYBLE_GapcCheckCharHandle(cyBle_gapc.appearanceCharHandle, discCharInfo);
 1589              		.loc 1 1656 0 discriminator 2
 1590 0058 264B     		ldr	r3, .L115+12
 1591 005a 1B68     		ldr	r3, [r3]
 1592 005c 7A68     		ldr	r2, [r7, #4]
 1593 005e 0632     		add	r2, r2, #6
 1594 0060 8621     		mov	r1, #134
 1595 0062 4900     		lsl	r1, r1, #1
 1596 0064 081C     		mov	r0, r1
 1597 0066 111C     		mov	r1, r2
 1598 0068 9847     		blx	r3
 1599              		.loc 1 1657 0 discriminator 2
 1600 006a 39E0     		b	.L95
 1601              	.L100:
1658:.\Generated_Source\PSoC4/BLE_eventHandler.c **** 
1659:.\Generated_Source\PSoC4/BLE_eventHandler.c ****     case CYBLE_UUID_CHAR_PERIPH_PRIVCY_FLAG:
1660:.\Generated_Source\PSoC4/BLE_eventHandler.c ****         CYBLE_GapcCheckCharHandle(cyBle_gapc.periphPrivacyCharHandle, discCharInfo);
 1602              		.loc 1 1660 0
 1603 006c 204B     		ldr	r3, .L115+8
 1604 006e 9B88     		ldrh	r3, [r3, #4]
 1605 0070 002B     		cmp	r3, #0
 1606 0072 04D1     		bne	.L108
 1607              		.loc 1 1660 0 is_stmt 0 discriminator 1
 1608 0074 7B68     		ldr	r3, [r7, #4]
 1609 0076 9A88     		ldrh	r2, [r3, #4]
 1610 0078 1D4B     		ldr	r3, .L115+8
 1611 007a 9A80     		strh	r2, [r3, #4]
1661:.\Generated_Source\PSoC4/BLE_eventHandler.c ****         break;
 1612              		.loc 1 1661 0 is_stmt 1 discriminator 1
 1613 007c 30E0     		b	.L95
 1614              	.L108:
1660:.\Generated_Source\PSoC4/BLE_eventHandler.c ****         CYBLE_GapcCheckCharHandle(cyBle_gapc.periphPrivacyCharHandle, discCharInfo);
 1615              		.loc 1 1660 0 discriminator 2
 1616 007e 1D4B     		ldr	r3, .L115+12
 1617 0080 1B68     		ldr	r3, [r3]
 1618 0082 7A68     		ldr	r2, [r7, #4]
 1619 0084 0632     		add	r2, r2, #6
 1620 0086 8621     		mov	r1, #134
 1621 0088 4900     		lsl	r1, r1, #1
ARM GAS  C:\Users\Zachary\AppData\Local\Temp\ccmvMQUz.s 			page 59


 1622 008a 081C     		mov	r0, r1
 1623 008c 111C     		mov	r1, r2
 1624 008e 9847     		blx	r3
 1625              		.loc 1 1661 0 discriminator 2
 1626 0090 26E0     		b	.L95
 1627              	.L101:
1662:.\Generated_Source\PSoC4/BLE_eventHandler.c **** 
1663:.\Generated_Source\PSoC4/BLE_eventHandler.c ****     case CYBLE_UUID_CHAR_RECONNECTION_ADDR:
1664:.\Generated_Source\PSoC4/BLE_eventHandler.c ****         CYBLE_GapcCheckCharHandle(cyBle_gapc.reconnAddrCharHandle, discCharInfo);
 1628              		.loc 1 1664 0
 1629 0092 174B     		ldr	r3, .L115+8
 1630 0094 DB88     		ldrh	r3, [r3, #6]
 1631 0096 002B     		cmp	r3, #0
 1632 0098 04D1     		bne	.L110
 1633              		.loc 1 1664 0 is_stmt 0 discriminator 1
 1634 009a 7B68     		ldr	r3, [r7, #4]
 1635 009c 9A88     		ldrh	r2, [r3, #4]
 1636 009e 144B     		ldr	r3, .L115+8
 1637 00a0 DA80     		strh	r2, [r3, #6]
1665:.\Generated_Source\PSoC4/BLE_eventHandler.c ****         break;
 1638              		.loc 1 1665 0 is_stmt 1 discriminator 1
 1639 00a2 1DE0     		b	.L95
 1640              	.L110:
1664:.\Generated_Source\PSoC4/BLE_eventHandler.c ****         CYBLE_GapcCheckCharHandle(cyBle_gapc.reconnAddrCharHandle, discCharInfo);
 1641              		.loc 1 1664 0 discriminator 2
 1642 00a4 134B     		ldr	r3, .L115+12
 1643 00a6 1B68     		ldr	r3, [r3]
 1644 00a8 7A68     		ldr	r2, [r7, #4]
 1645 00aa 0632     		add	r2, r2, #6
 1646 00ac 8621     		mov	r1, #134
 1647 00ae 4900     		lsl	r1, r1, #1
 1648 00b0 081C     		mov	r0, r1
 1649 00b2 111C     		mov	r1, r2
 1650 00b4 9847     		blx	r3
 1651              		.loc 1 1665 0 discriminator 2
 1652 00b6 13E0     		b	.L95
 1653              	.L102:
1666:.\Generated_Source\PSoC4/BLE_eventHandler.c **** 
1667:.\Generated_Source\PSoC4/BLE_eventHandler.c ****     case CYBLE_UUID_CHAR_PRFRRD_CNXN_PARAM:
1668:.\Generated_Source\PSoC4/BLE_eventHandler.c ****         CYBLE_GapcCheckCharHandle(cyBle_gapc.prefConnParamCharHandle, discCharInfo);
 1654              		.loc 1 1668 0
 1655 00b8 0D4B     		ldr	r3, .L115+8
 1656 00ba 1B89     		ldrh	r3, [r3, #8]
 1657 00bc 002B     		cmp	r3, #0
 1658 00be 04D1     		bne	.L112
 1659              		.loc 1 1668 0 is_stmt 0 discriminator 1
 1660 00c0 7B68     		ldr	r3, [r7, #4]
 1661 00c2 9A88     		ldrh	r2, [r3, #4]
 1662 00c4 0A4B     		ldr	r3, .L115+8
 1663 00c6 1A81     		strh	r2, [r3, #8]
1669:.\Generated_Source\PSoC4/BLE_eventHandler.c ****         break;
 1664              		.loc 1 1669 0 is_stmt 1 discriminator 1
 1665 00c8 0AE0     		b	.L95
 1666              	.L112:
1668:.\Generated_Source\PSoC4/BLE_eventHandler.c ****         CYBLE_GapcCheckCharHandle(cyBle_gapc.prefConnParamCharHandle, discCharInfo);
 1667              		.loc 1 1668 0 discriminator 2
 1668 00ca 0A4B     		ldr	r3, .L115+12
ARM GAS  C:\Users\Zachary\AppData\Local\Temp\ccmvMQUz.s 			page 60


 1669 00cc 1B68     		ldr	r3, [r3]
 1670 00ce 7A68     		ldr	r2, [r7, #4]
 1671 00d0 0632     		add	r2, r2, #6
 1672 00d2 8621     		mov	r1, #134
 1673 00d4 4900     		lsl	r1, r1, #1
 1674 00d6 081C     		mov	r0, r1
 1675 00d8 111C     		mov	r1, r2
 1676 00da 9847     		blx	r3
 1677              		.loc 1 1669 0 discriminator 2
 1678 00dc 00E0     		b	.L95
 1679              	.L114:
1670:.\Generated_Source\PSoC4/BLE_eventHandler.c **** 
1671:.\Generated_Source\PSoC4/BLE_eventHandler.c ****     default:
1672:.\Generated_Source\PSoC4/BLE_eventHandler.c ****         break;
 1680              		.loc 1 1672 0
 1681 00de C046     		mov	r8, r8
 1682              	.L95:
1673:.\Generated_Source\PSoC4/BLE_eventHandler.c ****     }
1674:.\Generated_Source\PSoC4/BLE_eventHandler.c **** }
 1683              		.loc 1 1674 0
 1684 00e0 BD46     		mov	sp, r7
 1685 00e2 02B0     		add	sp, sp, #8
 1686              		@ sp needed
 1687 00e4 80BD     		pop	{r7, pc}
 1688              	.L116:
 1689 00e6 C046     		.align	2
 1690              	.L115:
 1691 00e8 00D6FFFF 		.word	-10752
 1692 00ec C8010000 		.word	.L98
 1693 00f0 00000000 		.word	cyBle_gapc
 1694 00f4 00000000 		.word	CyBle_ApplCallback
 1695              		.cfi_endproc
 1696              	.LFE15:
 1697              		.size	CyBle_GapcDiscoverCharacteristicsEventHandler, .-CyBle_GapcDiscoverCharacteristicsEventHandl
 1698              		.section	.text.CyBle_ReadByTypeEventHandler,"ax",%progbits
 1699              		.align	2
 1700              		.global	CyBle_ReadByTypeEventHandler
 1701              		.code	16
 1702              		.thumb_func
 1703              		.type	CyBle_ReadByTypeEventHandler, %function
 1704              	CyBle_ReadByTypeEventHandler:
 1705              	.LFB16:
1675:.\Generated_Source\PSoC4/BLE_eventHandler.c **** 
1676:.\Generated_Source\PSoC4/BLE_eventHandler.c **** 
1677:.\Generated_Source\PSoC4/BLE_eventHandler.c **** /****************************************************************************** 
1678:.\Generated_Source\PSoC4/BLE_eventHandler.c **** ##Function Name: CyBle_ReadByTypeEventHandler
1679:.\Generated_Source\PSoC4/BLE_eventHandler.c **** *******************************************************************************
1680:.\Generated_Source\PSoC4/BLE_eventHandler.c **** Summary:
1681:.\Generated_Source\PSoC4/BLE_eventHandler.c ****  Handles the Read By Type Response Event during an automatic server discovery
1682:.\Generated_Source\PSoC4/BLE_eventHandler.c ****  process.
1683:.\Generated_Source\PSoC4/BLE_eventHandler.c **** 
1684:.\Generated_Source\PSoC4/BLE_eventHandler.c **** Parameters:
1685:.\Generated_Source\PSoC4/BLE_eventHandler.c ****  CYBLE_GATT_READ_BY_TYPE_RSP_PARAM_T *eventParam: The event parameters for a
1686:.\Generated_Source\PSoC4/BLE_eventHandler.c ****                                                   Read By Type Response.
1687:.\Generated_Source\PSoC4/BLE_eventHandler.c **** 
1688:.\Generated_Source\PSoC4/BLE_eventHandler.c **** Return:
1689:.\Generated_Source\PSoC4/BLE_eventHandler.c ****  None.
ARM GAS  C:\Users\Zachary\AppData\Local\Temp\ccmvMQUz.s 			page 61


1690:.\Generated_Source\PSoC4/BLE_eventHandler.c **** 
1691:.\Generated_Source\PSoC4/BLE_eventHandler.c **** ******************************************************************************/
1692:.\Generated_Source\PSoC4/BLE_eventHandler.c **** void CyBle_ReadByTypeEventHandler(CYBLE_GATTC_READ_BY_TYPE_RSP_PARAM_T *eventParam)
1693:.\Generated_Source\PSoC4/BLE_eventHandler.c **** {
 1706              		.loc 1 1693 0
 1707              		.cfi_startproc
 1708 0000 80B5     		push	{r7, lr}
 1709              		.cfi_def_cfa_offset 8
 1710              		.cfi_offset 7, -8
 1711              		.cfi_offset 14, -4
 1712 0002 92B0     		sub	sp, sp, #72
 1713              		.cfi_def_cfa_offset 80
 1714 0004 00AF     		add	r7, sp, #0
 1715              		.cfi_def_cfa_register 7
 1716 0006 7860     		str	r0, [r7, #4]
1694:.\Generated_Source\PSoC4/BLE_eventHandler.c ****     uint16 dataLength;
1695:.\Generated_Source\PSoC4/BLE_eventHandler.c ****     uint16 attrLength;
1696:.\Generated_Source\PSoC4/BLE_eventHandler.c ****     uint16 i, j;
1697:.\Generated_Source\PSoC4/BLE_eventHandler.c ****     uint8 *attrVal;
1698:.\Generated_Source\PSoC4/BLE_eventHandler.c **** 
1699:.\Generated_Source\PSoC4/BLE_eventHandler.c ****     if(0u != (cyBle_eventHandlerFlag & CYBLE_AUTO_DISCOVERY))
 1717              		.loc 1 1699 0
 1718 0008 CE4B     		ldr	r3, .L165
 1719 000a 1B78     		ldrb	r3, [r3]
 1720 000c DBB2     		uxtb	r3, r3
 1721 000e 1A1C     		mov	r2, r3
 1722 0010 0223     		mov	r3, #2
 1723 0012 1340     		and	r3, r2
 1724 0014 00D1     		bne	.LCB1440
 1725 0016 24E2     		b	.L117	@long jump
 1726              	.LCB1440:
1700:.\Generated_Source\PSoC4/BLE_eventHandler.c ****     {
1701:.\Generated_Source\PSoC4/BLE_eventHandler.c ****         /* Count of service information pieces in this mtu */
1702:.\Generated_Source\PSoC4/BLE_eventHandler.c ****         dataLength = eventParam->attrData.length;
 1727              		.loc 1 1702 0
 1728 0018 3B1C     		mov	r3, r7
 1729 001a 3E33     		add	r3, r3, #62
 1730 001c 7A68     		ldr	r2, [r7, #4]
 1731 001e 1289     		ldrh	r2, [r2, #8]
 1732 0020 1A80     		strh	r2, [r3]
1703:.\Generated_Source\PSoC4/BLE_eventHandler.c ****         attrLength = eventParam->attrData.attrLen;
 1733              		.loc 1 1703 0
 1734 0022 3B1C     		mov	r3, r7
 1735 0024 3C33     		add	r3, r3, #60
 1736 0026 7A68     		ldr	r2, [r7, #4]
 1737 0028 5289     		ldrh	r2, [r2, #10]
 1738 002a 1A80     		strh	r2, [r3]
1704:.\Generated_Source\PSoC4/BLE_eventHandler.c ****         attrVal = eventParam->attrData.attrValue;
 1739              		.loc 1 1704 0
 1740 002c 7B68     		ldr	r3, [r7, #4]
 1741 002e 5B68     		ldr	r3, [r3, #4]
 1742 0030 3B64     		str	r3, [r7, #64]
1705:.\Generated_Source\PSoC4/BLE_eventHandler.c ****         
1706:.\Generated_Source\PSoC4/BLE_eventHandler.c ****         if(CYBLE_CLIENT_STATE_CHAR_DISCOVERING == CyBle_GetClientState())
 1743              		.loc 1 1706 0
 1744 0032 C54B     		ldr	r3, .L165+4
 1745 0034 1B78     		ldrb	r3, [r3]
ARM GAS  C:\Users\Zachary\AppData\Local\Temp\ccmvMQUz.s 			page 62


 1746 0036 032B     		cmp	r3, #3
 1747 0038 00D0     		beq	.LCB1457
 1748 003a E7E0     		b	.L119	@long jump
 1749              	.LCB1457:
 1750              	.LBB4:
1707:.\Generated_Source\PSoC4/BLE_eventHandler.c ****         {
1708:.\Generated_Source\PSoC4/BLE_eventHandler.c ****             CYBLE_DISC_CHAR_INFO_T discCharInfo;
1709:.\Generated_Source\PSoC4/BLE_eventHandler.c ****             
1710:.\Generated_Source\PSoC4/BLE_eventHandler.c ****             for(i = 0u; i < attrLength; i += dataLength)
 1751              		.loc 1 1710 0
 1752 003c 3B1C     		mov	r3, r7
 1753 003e 4633     		add	r3, r3, #70
 1754 0040 0022     		mov	r2, #0
 1755 0042 1A80     		strh	r2, [r3]
 1756 0044 D8E0     		b	.L120
 1757              	.L136:
1711:.\Generated_Source\PSoC4/BLE_eventHandler.c ****             {
1712:.\Generated_Source\PSoC4/BLE_eventHandler.c ****                 discCharInfo.charDeclHandle = CyBle_Get16ByPtr(attrVal);
 1758              		.loc 1 1712 0
 1759 0046 3B6C     		ldr	r3, [r7, #64]
 1760 0048 181C     		mov	r0, r3
 1761 004a FFF7FEFF 		bl	CyBle_Get16ByPtr
 1762 004e 031C     		mov	r3, r0
 1763 0050 1A1C     		mov	r2, r3
 1764 0052 3B1C     		mov	r3, r7
 1765 0054 2433     		add	r3, r3, #36
 1766 0056 1A80     		strh	r2, [r3]
1713:.\Generated_Source\PSoC4/BLE_eventHandler.c ****                 attrVal += sizeof(discCharInfo.charDeclHandle);
 1767              		.loc 1 1713 0
 1768 0058 3B6C     		ldr	r3, [r7, #64]
 1769 005a 0233     		add	r3, r3, #2
 1770 005c 3B64     		str	r3, [r7, #64]
1714:.\Generated_Source\PSoC4/BLE_eventHandler.c ****                 discCharInfo.properties = *attrVal;
 1771              		.loc 1 1714 0
 1772 005e 3B6C     		ldr	r3, [r7, #64]
 1773 0060 1A78     		ldrb	r2, [r3]
 1774 0062 3B1C     		mov	r3, r7
 1775 0064 2433     		add	r3, r3, #36
 1776 0066 9A70     		strb	r2, [r3, #2]
1715:.\Generated_Source\PSoC4/BLE_eventHandler.c ****                 attrVal += sizeof(discCharInfo.properties);
 1777              		.loc 1 1715 0
 1778 0068 3B6C     		ldr	r3, [r7, #64]
 1779 006a 0133     		add	r3, r3, #1
 1780 006c 3B64     		str	r3, [r7, #64]
1716:.\Generated_Source\PSoC4/BLE_eventHandler.c ****                 discCharInfo.valueHandle = CyBle_Get16ByPtr(attrVal);
 1781              		.loc 1 1716 0
 1782 006e 3B6C     		ldr	r3, [r7, #64]
 1783 0070 181C     		mov	r0, r3
 1784 0072 FFF7FEFF 		bl	CyBle_Get16ByPtr
 1785 0076 031C     		mov	r3, r0
 1786 0078 1A1C     		mov	r2, r3
 1787 007a 3B1C     		mov	r3, r7
 1788 007c 2433     		add	r3, r3, #36
 1789 007e 9A80     		strh	r2, [r3, #4]
1717:.\Generated_Source\PSoC4/BLE_eventHandler.c ****                 attrVal += sizeof(discCharInfo.valueHandle);
 1790              		.loc 1 1717 0
 1791 0080 3B6C     		ldr	r3, [r7, #64]
ARM GAS  C:\Users\Zachary\AppData\Local\Temp\ccmvMQUz.s 			page 63


 1792 0082 0233     		add	r3, r3, #2
 1793 0084 3B64     		str	r3, [r7, #64]
1718:.\Generated_Source\PSoC4/BLE_eventHandler.c ****                 if(dataLength == CYBLE_DISC_CHAR_INFO_128_LEN)
 1794              		.loc 1 1718 0
 1795 0086 3B1C     		mov	r3, r7
 1796 0088 3E33     		add	r3, r3, #62
 1797 008a 1B88     		ldrh	r3, [r3]
 1798 008c 152B     		cmp	r3, #21
 1799 008e 12D1     		bne	.L121
1719:.\Generated_Source\PSoC4/BLE_eventHandler.c ****                 {
1720:.\Generated_Source\PSoC4/BLE_eventHandler.c ****                     discCharInfo.uuidFormat = CYBLE_GATT_128_BIT_UUID_FORMAT;
 1800              		.loc 1 1720 0
 1801 0090 3B1C     		mov	r3, r7
 1802 0092 2433     		add	r3, r3, #36
 1803 0094 0222     		mov	r2, #2
 1804 0096 9A75     		strb	r2, [r3, #22]
1721:.\Generated_Source\PSoC4/BLE_eventHandler.c ****                     (void)memcpy(&discCharInfo.uuid.uuid128, attrVal, CYBLE_GATT_128_BIT_UUID_SIZE)
 1805              		.loc 1 1721 0
 1806 0098 3A1C     		mov	r2, r7
 1807 009a 2A32     		add	r2, r2, #42
 1808 009c 3B6C     		ldr	r3, [r7, #64]
 1809 009e 111C     		mov	r1, r2
 1810 00a0 1A1C     		mov	r2, r3
 1811 00a2 1023     		mov	r3, #16
 1812 00a4 081C     		mov	r0, r1
 1813 00a6 111C     		mov	r1, r2
 1814 00a8 1A1C     		mov	r2, r3
 1815 00aa FFF7FEFF 		bl	memcpy
1722:.\Generated_Source\PSoC4/BLE_eventHandler.c ****                     attrVal += CYBLE_GATT_128_BIT_UUID_SIZE;
 1816              		.loc 1 1722 0
 1817 00ae 3B6C     		ldr	r3, [r7, #64]
 1818 00b0 1033     		add	r3, r3, #16
 1819 00b2 3B64     		str	r3, [r7, #64]
 1820 00b4 3BE0     		b	.L122
 1821              	.L121:
1723:.\Generated_Source\PSoC4/BLE_eventHandler.c ****                     /* Add custom profile support */
1724:.\Generated_Source\PSoC4/BLE_eventHandler.c ****                 }
1725:.\Generated_Source\PSoC4/BLE_eventHandler.c ****                 else if(dataLength == CYBLE_DISC_CHAR_INFO_LEN)
 1822              		.loc 1 1725 0
 1823 00b6 3B1C     		mov	r3, r7
 1824 00b8 3E33     		add	r3, r3, #62
 1825 00ba 1B88     		ldrh	r3, [r3]
 1826 00bc 072B     		cmp	r3, #7
 1827 00be 36D1     		bne	.L122
1726:.\Generated_Source\PSoC4/BLE_eventHandler.c ****                 {
1727:.\Generated_Source\PSoC4/BLE_eventHandler.c ****                     discCharInfo.uuidFormat = CYBLE_GATT_16_BIT_UUID_FORMAT;
 1828              		.loc 1 1727 0
 1829 00c0 3B1C     		mov	r3, r7
 1830 00c2 2433     		add	r3, r3, #36
 1831 00c4 0122     		mov	r2, #1
 1832 00c6 9A75     		strb	r2, [r3, #22]
1728:.\Generated_Source\PSoC4/BLE_eventHandler.c ****                     discCharInfo.uuid.uuid16 = CyBle_Get16ByPtr(attrVal);
 1833              		.loc 1 1728 0
 1834 00c8 3B6C     		ldr	r3, [r7, #64]
 1835 00ca 181C     		mov	r0, r3
 1836 00cc FFF7FEFF 		bl	CyBle_Get16ByPtr
 1837 00d0 031C     		mov	r3, r0
ARM GAS  C:\Users\Zachary\AppData\Local\Temp\ccmvMQUz.s 			page 64


 1838 00d2 1A1C     		mov	r2, r3
 1839 00d4 3B1C     		mov	r3, r7
 1840 00d6 2433     		add	r3, r3, #36
 1841 00d8 DA80     		strh	r2, [r3, #6]
1729:.\Generated_Source\PSoC4/BLE_eventHandler.c ****                     attrVal += CYBLE_GATT_16_BIT_UUID_SIZE;
 1842              		.loc 1 1729 0
 1843 00da 3B6C     		ldr	r3, [r7, #64]
 1844 00dc 0233     		add	r3, r3, #2
 1845 00de 3B64     		str	r3, [r7, #64]
1730:.\Generated_Source\PSoC4/BLE_eventHandler.c **** 
1731:.\Generated_Source\PSoC4/BLE_eventHandler.c ****                     /* Switch by service uuid */
1732:.\Generated_Source\PSoC4/BLE_eventHandler.c ****                     switch (cyBle_serverInfo[cyBle_disCount].uuid)
 1846              		.loc 1 1732 0
 1847 00e0 9A4B     		ldr	r3, .L165+8
 1848 00e2 1B78     		ldrb	r3, [r3]
 1849 00e4 1A1C     		mov	r2, r3
 1850 00e6 9A49     		ldr	r1, .L165+12
 1851 00e8 131C     		mov	r3, r2
 1852 00ea 5B00     		lsl	r3, r3, #1
 1853 00ec 9B18     		add	r3, r3, r2
 1854 00ee 5B00     		lsl	r3, r3, #1
 1855 00f0 CB18     		add	r3, r1, r3
 1856 00f2 9B88     		ldrh	r3, [r3, #4]
 1857 00f4 974A     		ldr	r2, .L165+16
 1858 00f6 9342     		cmp	r3, r2
 1859 00f8 0DD0     		beq	.L124
 1860 00fa 974A     		ldr	r2, .L165+20
 1861 00fc 9342     		cmp	r3, r2
 1862 00fe 10D0     		beq	.L125
 1863 0100 C022     		mov	r2, #192
 1864 0102 5201     		lsl	r2, r2, #5
 1865 0104 9342     		cmp	r3, r2
 1866 0106 00D0     		beq	.L126
1733:.\Generated_Source\PSoC4/BLE_eventHandler.c ****                     {
1734:.\Generated_Source\PSoC4/BLE_eventHandler.c ****                     case CYBLE_UUID_GAP_SERVICE:
1735:.\Generated_Source\PSoC4/BLE_eventHandler.c ****                         CyBle_GapcDiscoverCharacteristicsEventHandler(&discCharInfo);
1736:.\Generated_Source\PSoC4/BLE_eventHandler.c ****                         break;
1737:.\Generated_Source\PSoC4/BLE_eventHandler.c **** 
1738:.\Generated_Source\PSoC4/BLE_eventHandler.c ****                     case CYBLE_UUID_GATT_SERVICE:
1739:.\Generated_Source\PSoC4/BLE_eventHandler.c ****                         CyBle_GattcDiscoverCharacteristicsEventHandler(&discCharInfo);
1740:.\Generated_Source\PSoC4/BLE_eventHandler.c ****                         break;
1741:.\Generated_Source\PSoC4/BLE_eventHandler.c ****                 
1742:.\Generated_Source\PSoC4/BLE_eventHandler.c ****                 #ifdef CYBLE_ANS_CLIENT
1743:.\Generated_Source\PSoC4/BLE_eventHandler.c ****                     case CYBLE_UUID_ALERT_NOTIFICATION_SERVICE:
1744:.\Generated_Source\PSoC4/BLE_eventHandler.c ****                         CyBle_AnscDiscoverCharacteristicsEventHandler(&discCharInfo);
1745:.\Generated_Source\PSoC4/BLE_eventHandler.c ****                         break;
1746:.\Generated_Source\PSoC4/BLE_eventHandler.c ****                 #endif /* CYBLE_ANS_CLIENT */
1747:.\Generated_Source\PSoC4/BLE_eventHandler.c ****                         
1748:.\Generated_Source\PSoC4/BLE_eventHandler.c ****                 #ifdef CYBLE_BAS_CLIENT
1749:.\Generated_Source\PSoC4/BLE_eventHandler.c ****                     case CYBLE_UUID_BAS_SERVICE:
1750:.\Generated_Source\PSoC4/BLE_eventHandler.c ****                         CyBle_BascDiscoverCharacteristicsEventHandler(cyBle_disCount - CYBLE_SRVI_B
1751:.\Generated_Source\PSoC4/BLE_eventHandler.c ****                         break;
1752:.\Generated_Source\PSoC4/BLE_eventHandler.c ****                 #endif /* CYBLE_BAS_CLIENT */
1753:.\Generated_Source\PSoC4/BLE_eventHandler.c **** 
1754:.\Generated_Source\PSoC4/BLE_eventHandler.c ****                 #ifdef CYBLE_BLS_CLIENT
1755:.\Generated_Source\PSoC4/BLE_eventHandler.c ****                     case CYBLE_UUID_BLOOD_PRESSURE_SERVICE:
1756:.\Generated_Source\PSoC4/BLE_eventHandler.c ****                         CyBle_BlscDiscoverCharacteristicsEventHandler(&discCharInfo);
ARM GAS  C:\Users\Zachary\AppData\Local\Temp\ccmvMQUz.s 			page 65


1757:.\Generated_Source\PSoC4/BLE_eventHandler.c ****                         break;
1758:.\Generated_Source\PSoC4/BLE_eventHandler.c ****                 #endif /* CYBLE_BLS_CLIENT */
1759:.\Generated_Source\PSoC4/BLE_eventHandler.c ****                 
1760:.\Generated_Source\PSoC4/BLE_eventHandler.c ****                 #ifdef CYBLE_CGMS_CLIENT
1761:.\Generated_Source\PSoC4/BLE_eventHandler.c ****                     case CYBLE_UUID_CGM_SERVICE:
1762:.\Generated_Source\PSoC4/BLE_eventHandler.c ****                         CyBle_CgmscDiscoverCharacteristicsEventHandler(&discCharInfo);
1763:.\Generated_Source\PSoC4/BLE_eventHandler.c ****                         break;
1764:.\Generated_Source\PSoC4/BLE_eventHandler.c ****                 #endif /* CYBLE_CGMS_CLIENT */
1765:.\Generated_Source\PSoC4/BLE_eventHandler.c **** 
1766:.\Generated_Source\PSoC4/BLE_eventHandler.c ****                 #ifdef CYBLE_CPS_CLIENT
1767:.\Generated_Source\PSoC4/BLE_eventHandler.c ****                     case CYBLE_UUID_CPS_SERVICE:
1768:.\Generated_Source\PSoC4/BLE_eventHandler.c ****                         CyBle_CpscDiscoverCharacteristicsEventHandler(&discCharInfo);
1769:.\Generated_Source\PSoC4/BLE_eventHandler.c ****                         break;
1770:.\Generated_Source\PSoC4/BLE_eventHandler.c ****                 #endif /* CYBLE_CPS_CLIENT */
1771:.\Generated_Source\PSoC4/BLE_eventHandler.c **** 
1772:.\Generated_Source\PSoC4/BLE_eventHandler.c ****                 #ifdef CYBLE_CSCS_CLIENT
1773:.\Generated_Source\PSoC4/BLE_eventHandler.c ****                     case CYBLE_UUID_CYCLING_SPEED_AND_CADENCE_SERVICE:
1774:.\Generated_Source\PSoC4/BLE_eventHandler.c ****                         CyBle_CscscDiscoverCharacteristicsEventHandler(&discCharInfo);
1775:.\Generated_Source\PSoC4/BLE_eventHandler.c ****                         break;
1776:.\Generated_Source\PSoC4/BLE_eventHandler.c ****                 #endif /* CYBLE_CSCS_CLIENT */
1777:.\Generated_Source\PSoC4/BLE_eventHandler.c ****                 
1778:.\Generated_Source\PSoC4/BLE_eventHandler.c ****                 #ifdef CYBLE_CTS_CLIENT
1779:.\Generated_Source\PSoC4/BLE_eventHandler.c ****                     case CYBLE_UUID_CURRENT_TIME_SERVICE:
1780:.\Generated_Source\PSoC4/BLE_eventHandler.c ****                         CyBle_CtscDiscoverCharacteristicsEventHandler(&discCharInfo);
1781:.\Generated_Source\PSoC4/BLE_eventHandler.c ****                         break;
1782:.\Generated_Source\PSoC4/BLE_eventHandler.c ****                 #endif /* CYBLE_CTS_CLIENT */
1783:.\Generated_Source\PSoC4/BLE_eventHandler.c ****                 
1784:.\Generated_Source\PSoC4/BLE_eventHandler.c ****                 #ifdef CYBLE_DIS_CLIENT
1785:.\Generated_Source\PSoC4/BLE_eventHandler.c ****                     case CYBLE_UUID_DEVICE_INFO_SERVICE:
1786:.\Generated_Source\PSoC4/BLE_eventHandler.c ****                         CyBle_DiscDiscoverCharacteristicsEventHandler(&discCharInfo);
1787:.\Generated_Source\PSoC4/BLE_eventHandler.c ****                         break;
1788:.\Generated_Source\PSoC4/BLE_eventHandler.c ****                 #endif /* CYBLE_DIS_CLIENT */
1789:.\Generated_Source\PSoC4/BLE_eventHandler.c **** 
1790:.\Generated_Source\PSoC4/BLE_eventHandler.c ****                 #ifdef CYBLE_GLS_CLIENT
1791:.\Generated_Source\PSoC4/BLE_eventHandler.c ****                     case CYBLE_UUID_GLUCOSE_SERVICE:
1792:.\Generated_Source\PSoC4/BLE_eventHandler.c ****                         CyBle_GlscDiscoverCharacteristicsEventHandler(&discCharInfo);
1793:.\Generated_Source\PSoC4/BLE_eventHandler.c ****                         break;
1794:.\Generated_Source\PSoC4/BLE_eventHandler.c ****                 #endif /* CYBLE_GLS_CLIENT */
1795:.\Generated_Source\PSoC4/BLE_eventHandler.c ****                 
1796:.\Generated_Source\PSoC4/BLE_eventHandler.c ****                 #ifdef CYBLE_HIDS_CLIENT
1797:.\Generated_Source\PSoC4/BLE_eventHandler.c ****                     case CYBLE_UUID_HIDS_SERVICE:
1798:.\Generated_Source\PSoC4/BLE_eventHandler.c ****                         CyBle_HidscDiscoverCharacteristicsEventHandler(cyBle_disCount - CYBLE_SRVI_
1799:.\Generated_Source\PSoC4/BLE_eventHandler.c ****                         break;
1800:.\Generated_Source\PSoC4/BLE_eventHandler.c ****                 #endif /* CYBLE_HIDS_CLIENT */
1801:.\Generated_Source\PSoC4/BLE_eventHandler.c **** 
1802:.\Generated_Source\PSoC4/BLE_eventHandler.c ****                 #ifdef CYBLE_HRS_CLIENT
1803:.\Generated_Source\PSoC4/BLE_eventHandler.c ****                     case CYBLE_UUID_HEART_RATE_SERVICE:
1804:.\Generated_Source\PSoC4/BLE_eventHandler.c ****                         CyBle_HrscDiscoverCharacteristicsEventHandler(&discCharInfo);
1805:.\Generated_Source\PSoC4/BLE_eventHandler.c ****                         break;
1806:.\Generated_Source\PSoC4/BLE_eventHandler.c ****                 #endif /* CYBLE_HRS_CLIENT */
1807:.\Generated_Source\PSoC4/BLE_eventHandler.c **** 
1808:.\Generated_Source\PSoC4/BLE_eventHandler.c ****                 #ifdef CYBLE_HTS_CLIENT
1809:.\Generated_Source\PSoC4/BLE_eventHandler.c ****                     case CYBLE_UUID_HEALTH_THERMOMETER_SERVICE:
1810:.\Generated_Source\PSoC4/BLE_eventHandler.c ****                         CyBle_HtscDiscoverCharacteristicsEventHandler(&discCharInfo);
1811:.\Generated_Source\PSoC4/BLE_eventHandler.c ****                         break;
1812:.\Generated_Source\PSoC4/BLE_eventHandler.c ****                 #endif /* CYBLE_HRS_CLIENT */
1813:.\Generated_Source\PSoC4/BLE_eventHandler.c **** 
ARM GAS  C:\Users\Zachary\AppData\Local\Temp\ccmvMQUz.s 			page 66


1814:.\Generated_Source\PSoC4/BLE_eventHandler.c ****                 #ifdef CYBLE_IAS_CLIENT
1815:.\Generated_Source\PSoC4/BLE_eventHandler.c ****                     case CYBLE_UUID_IMMEDIATE_ALERT_SERVICE:
1816:.\Generated_Source\PSoC4/BLE_eventHandler.c ****                         CyBle_IascDiscoverCharacteristicsEventHandler(&discCharInfo);
1817:.\Generated_Source\PSoC4/BLE_eventHandler.c ****                         break;
1818:.\Generated_Source\PSoC4/BLE_eventHandler.c ****                 #endif /* CYBLE_IAS_CLIENT */
1819:.\Generated_Source\PSoC4/BLE_eventHandler.c **** 
1820:.\Generated_Source\PSoC4/BLE_eventHandler.c ****                 #ifdef CYBLE_LLS_CLIENT
1821:.\Generated_Source\PSoC4/BLE_eventHandler.c ****                     case CYBLE_UUID_LINK_LOSS_SERVICE:
1822:.\Generated_Source\PSoC4/BLE_eventHandler.c ****                         CyBle_LlscDiscoverCharacteristicsEventHandler(&discCharInfo);
1823:.\Generated_Source\PSoC4/BLE_eventHandler.c ****                         break;
1824:.\Generated_Source\PSoC4/BLE_eventHandler.c ****                 #endif /* CYBLE_LLS_CLIENT */
1825:.\Generated_Source\PSoC4/BLE_eventHandler.c ****                 
1826:.\Generated_Source\PSoC4/BLE_eventHandler.c ****                 #ifdef CYBLE_LNS_CLIENT
1827:.\Generated_Source\PSoC4/BLE_eventHandler.c ****                     case CYBLE_UUID_LOCATION_AND_NAVIGATION_SERVICE:
1828:.\Generated_Source\PSoC4/BLE_eventHandler.c ****                         CyBle_LnscDiscoverCharacteristicsEventHandler(&discCharInfo);
1829:.\Generated_Source\PSoC4/BLE_eventHandler.c ****                         break;
1830:.\Generated_Source\PSoC4/BLE_eventHandler.c ****                 #endif /* CYBLE_LNS_CLIENT */
1831:.\Generated_Source\PSoC4/BLE_eventHandler.c ****                 
1832:.\Generated_Source\PSoC4/BLE_eventHandler.c ****                 #ifdef CYBLE_PASS_CLIENT
1833:.\Generated_Source\PSoC4/BLE_eventHandler.c ****                     case CYBLE_UUID_PHONE_ALERT_STATUS_SERVICE:
1834:.\Generated_Source\PSoC4/BLE_eventHandler.c ****                         CyBle_PasscDiscoverCharacteristicsEventHandler(&discCharInfo);
1835:.\Generated_Source\PSoC4/BLE_eventHandler.c ****                         break;
1836:.\Generated_Source\PSoC4/BLE_eventHandler.c ****                 #endif /* CYBLE_PASS_CLIENT */
1837:.\Generated_Source\PSoC4/BLE_eventHandler.c **** 
1838:.\Generated_Source\PSoC4/BLE_eventHandler.c ****                 #ifdef CYBLE_NDCS_CLIENT
1839:.\Generated_Source\PSoC4/BLE_eventHandler.c ****                     case CYBLE_UUID_NEXT_DST_CHANGE_SERVICE:
1840:.\Generated_Source\PSoC4/BLE_eventHandler.c ****                         CyBle_NdcscDiscoverCharacteristicsEventHandler(&discCharInfo);
1841:.\Generated_Source\PSoC4/BLE_eventHandler.c ****                         break;
1842:.\Generated_Source\PSoC4/BLE_eventHandler.c ****                 #endif /* CYBLE_NDCS_CLIENT */
1843:.\Generated_Source\PSoC4/BLE_eventHandler.c ****                 
1844:.\Generated_Source\PSoC4/BLE_eventHandler.c ****                 #ifdef CYBLE_RSCS_CLIENT
1845:.\Generated_Source\PSoC4/BLE_eventHandler.c ****                     case CYBLE_UUID_RUNNING_SPEED_AND_CADENCE_SERVICE:
1846:.\Generated_Source\PSoC4/BLE_eventHandler.c ****                         CyBle_RscscDiscoverCharacteristicsEventHandler(&discCharInfo);
1847:.\Generated_Source\PSoC4/BLE_eventHandler.c ****                         break;
1848:.\Generated_Source\PSoC4/BLE_eventHandler.c ****                 #endif /* CYBLE_RSCS_CLIENT */
1849:.\Generated_Source\PSoC4/BLE_eventHandler.c **** 
1850:.\Generated_Source\PSoC4/BLE_eventHandler.c ****                 #ifdef CYBLE_RTUS_CLIENT
1851:.\Generated_Source\PSoC4/BLE_eventHandler.c ****                     case CYBLE_UUID_REF_TIME_UPDATE_SERVICE:
1852:.\Generated_Source\PSoC4/BLE_eventHandler.c ****                         CyBle_RtuscDiscoverCharacteristicsEventHandler(&discCharInfo);
1853:.\Generated_Source\PSoC4/BLE_eventHandler.c ****                         break;
1854:.\Generated_Source\PSoC4/BLE_eventHandler.c ****                 #endif /* CYBLE_RTUS_CLIENT */
1855:.\Generated_Source\PSoC4/BLE_eventHandler.c ****                 
1856:.\Generated_Source\PSoC4/BLE_eventHandler.c ****                 #ifdef CYBLE_SCPS_CLIENT
1857:.\Generated_Source\PSoC4/BLE_eventHandler.c ****                     case CYBLE_UUID_SCAN_PARAM_SERVICE:
1858:.\Generated_Source\PSoC4/BLE_eventHandler.c ****                         CyBle_ScpscDiscoverCharacteristicsEventHandler(&discCharInfo);
1859:.\Generated_Source\PSoC4/BLE_eventHandler.c ****                         break;
1860:.\Generated_Source\PSoC4/BLE_eventHandler.c ****                 #endif /* CYBLE_SCPS_CLIENT */
1861:.\Generated_Source\PSoC4/BLE_eventHandler.c ****                 
1862:.\Generated_Source\PSoC4/BLE_eventHandler.c ****                 #ifdef CYBLE_TPS_CLIENT
1863:.\Generated_Source\PSoC4/BLE_eventHandler.c ****                     case CYBLE_UUID_TX_POWER_SERVICE:
1864:.\Generated_Source\PSoC4/BLE_eventHandler.c ****                         CyBle_TpscDiscoverCharacteristicsEventHandler(&discCharInfo);
1865:.\Generated_Source\PSoC4/BLE_eventHandler.c ****                         break;
1866:.\Generated_Source\PSoC4/BLE_eventHandler.c ****                 #endif /* CYBLE_TPS_CLIENT */
1867:.\Generated_Source\PSoC4/BLE_eventHandler.c ****                 
1868:.\Generated_Source\PSoC4/BLE_eventHandler.c ****                 #ifdef CYBLE_UDS_CLIENT
1869:.\Generated_Source\PSoC4/BLE_eventHandler.c ****                     case CYBLE_UUID_USER_DATA_SERVICE:
1870:.\Generated_Source\PSoC4/BLE_eventHandler.c ****                         CyBle_UdscDiscoverCharacteristicsEventHandler(&discCharInfo);
ARM GAS  C:\Users\Zachary\AppData\Local\Temp\ccmvMQUz.s 			page 67


1871:.\Generated_Source\PSoC4/BLE_eventHandler.c ****                         break;
1872:.\Generated_Source\PSoC4/BLE_eventHandler.c ****                 #endif /* CYBLE_UDS_CLIENT */
1873:.\Generated_Source\PSoC4/BLE_eventHandler.c **** 
1874:.\Generated_Source\PSoC4/BLE_eventHandler.c ****                     default:
1875:.\Generated_Source\PSoC4/BLE_eventHandler.c ****                         break;
 1867              		.loc 1 1875 0
 1868 0108 11E0     		b	.L127
 1869              	.L126:
1735:.\Generated_Source\PSoC4/BLE_eventHandler.c ****                         CyBle_GapcDiscoverCharacteristicsEventHandler(&discCharInfo);
 1870              		.loc 1 1735 0
 1871 010a 3B1C     		mov	r3, r7
 1872 010c 2433     		add	r3, r3, #36
 1873 010e 181C     		mov	r0, r3
 1874 0110 FFF7FEFF 		bl	CyBle_GapcDiscoverCharacteristicsEventHandler
1736:.\Generated_Source\PSoC4/BLE_eventHandler.c ****                         break;
 1875              		.loc 1 1736 0
 1876 0114 0BE0     		b	.L127
 1877              	.L124:
1739:.\Generated_Source\PSoC4/BLE_eventHandler.c ****                         CyBle_GattcDiscoverCharacteristicsEventHandler(&discCharInfo);
 1878              		.loc 1 1739 0
 1879 0116 3B1C     		mov	r3, r7
 1880 0118 2433     		add	r3, r3, #36
 1881 011a 181C     		mov	r0, r3
 1882 011c FFF7FEFF 		bl	CyBle_GattcDiscoverCharacteristicsEventHandler
1740:.\Generated_Source\PSoC4/BLE_eventHandler.c ****                         break;
 1883              		.loc 1 1740 0
 1884 0120 05E0     		b	.L127
 1885              	.L125:
1816:.\Generated_Source\PSoC4/BLE_eventHandler.c ****                         CyBle_IascDiscoverCharacteristicsEventHandler(&discCharInfo);
 1886              		.loc 1 1816 0
 1887 0122 3B1C     		mov	r3, r7
 1888 0124 2433     		add	r3, r3, #36
 1889 0126 181C     		mov	r0, r3
 1890 0128 FFF7FEFF 		bl	CyBle_IascDiscoverCharacteristicsEventHandler
1817:.\Generated_Source\PSoC4/BLE_eventHandler.c ****                         break;
 1891              		.loc 1 1817 0
 1892 012c C046     		mov	r8, r8
 1893              	.L127:
 1894              	.L122:
1876:.\Generated_Source\PSoC4/BLE_eventHandler.c ****                     }
1877:.\Generated_Source\PSoC4/BLE_eventHandler.c ****                 }
1878:.\Generated_Source\PSoC4/BLE_eventHandler.c ****                 else
1879:.\Generated_Source\PSoC4/BLE_eventHandler.c ****                 {
1880:.\Generated_Source\PSoC4/BLE_eventHandler.c ****                     /* Unsupported data length value */
1881:.\Generated_Source\PSoC4/BLE_eventHandler.c ****                 }
1882:.\Generated_Source\PSoC4/BLE_eventHandler.c **** 
1883:.\Generated_Source\PSoC4/BLE_eventHandler.c ****                 /* The sub-procedure is complete when an Error Response is received and the
1884:.\Generated_Source\PSoC4/BLE_eventHandler.c ****                    Error Code is set to an Attribute Not Found or the Read By Type Response has an
1885:.\Generated_Source\PSoC4/BLE_eventHandler.c ****                    Attribute Handle that is equal to the Ending Handle of the request. */
1886:.\Generated_Source\PSoC4/BLE_eventHandler.c ****                 if(discCharInfo.valueHandle == cyBle_serverInfo[cyBle_disCount].range.endHandle)
 1895              		.loc 1 1886 0
 1896 012e 3B1C     		mov	r3, r7
 1897 0130 2433     		add	r3, r3, #36
 1898 0132 9988     		ldrh	r1, [r3, #4]
 1899 0134 854B     		ldr	r3, .L165+8
 1900 0136 1B78     		ldrb	r3, [r3]
 1901 0138 1A1C     		mov	r2, r3
ARM GAS  C:\Users\Zachary\AppData\Local\Temp\ccmvMQUz.s 			page 68


 1902 013a 8548     		ldr	r0, .L165+12
 1903 013c 131C     		mov	r3, r2
 1904 013e 5B00     		lsl	r3, r3, #1
 1905 0140 9B18     		add	r3, r3, r2
 1906 0142 5B00     		lsl	r3, r3, #1
 1907 0144 C318     		add	r3, r0, r3
 1908 0146 5B88     		ldrh	r3, [r3, #2]
 1909 0148 9942     		cmp	r1, r3
 1910 014a 43D1     		bne	.L128
1887:.\Generated_Source\PSoC4/BLE_eventHandler.c ****                 {
1888:.\Generated_Source\PSoC4/BLE_eventHandler.c ****                     cyBle_disCount++;
 1911              		.loc 1 1888 0
 1912 014c 7F4B     		ldr	r3, .L165+8
 1913 014e 1B78     		ldrb	r3, [r3]
 1914 0150 0133     		add	r3, r3, #1
 1915 0152 DAB2     		uxtb	r2, r3
 1916 0154 7D4B     		ldr	r3, .L165+8
 1917 0156 1A70     		strb	r2, [r3]
1889:.\Generated_Source\PSoC4/BLE_eventHandler.c **** 
1890:.\Generated_Source\PSoC4/BLE_eventHandler.c ****                     switch(CyBle_NextCharDiscovery())
 1918              		.loc 1 1890 0
 1919 0158 FFF7FEFF 		bl	CyBle_NextCharDiscovery
 1920 015c 031C     		mov	r3, r0
 1921 015e 002B     		cmp	r3, #0
 1922 0160 37D0     		beq	.L160
 1923 0162 0222     		mov	r2, #2
 1924 0164 FF32     		add	r2, r2, #255
 1925 0166 9342     		cmp	r3, r2
 1926 0168 2BD1     		bne	.L156
1891:.\Generated_Source\PSoC4/BLE_eventHandler.c ****                     {
1892:.\Generated_Source\PSoC4/BLE_eventHandler.c ****                         case CYBLE_ERROR_OK:
1893:.\Generated_Source\PSoC4/BLE_eventHandler.c ****                             break;
1894:.\Generated_Source\PSoC4/BLE_eventHandler.c **** 
1895:.\Generated_Source\PSoC4/BLE_eventHandler.c ****                         case CYBLE_CHAR_DISC_DONE:
1896:.\Generated_Source\PSoC4/BLE_eventHandler.c ****                         #if(CYBLE_STACK_MODE_DEBUG)
1897:.\Generated_Source\PSoC4/BLE_eventHandler.c ****                             CyBle_ApplCallback(CYBLE_EVT_GATTC_CHAR_DISCOVERY_COMPLETE, NULL);
1898:.\Generated_Source\PSoC4/BLE_eventHandler.c ****                         #endif /* CYBLE_STACK_MODE_DEBUG */
1899:.\Generated_Source\PSoC4/BLE_eventHandler.c ****                             CyBle_SetClientState(CYBLE_CLIENT_STATE_DESCR_DISCOVERING);
 1927              		.loc 1 1899 0
 1928 016a 774B     		ldr	r3, .L165+4
 1929 016c 0422     		mov	r2, #4
 1930 016e 1A70     		strb	r2, [r3]
1900:.\Generated_Source\PSoC4/BLE_eventHandler.c ****                             cyBle_disCount = 0u;
 1931              		.loc 1 1900 0
 1932 0170 764B     		ldr	r3, .L165+8
 1933 0172 0022     		mov	r2, #0
 1934 0174 1A70     		strb	r2, [r3]
1901:.\Generated_Source\PSoC4/BLE_eventHandler.c ****                             switch(CyBle_NextCharDscrDiscovery())
 1935              		.loc 1 1901 0
 1936 0176 FFF7FEFF 		bl	CyBle_NextCharDscrDiscovery
 1937 017a 031C     		mov	r3, r0
 1938 017c 002B     		cmp	r3, #0
 1939 017e 1ED0     		beq	.L161
 1940 0180 8122     		mov	r2, #129
 1941 0182 5200     		lsl	r2, r2, #1
 1942 0184 9342     		cmp	r3, r2
 1943 0186 12D1     		bne	.L157
ARM GAS  C:\Users\Zachary\AppData\Local\Temp\ccmvMQUz.s 			page 69


1902:.\Generated_Source\PSoC4/BLE_eventHandler.c ****                             {
1903:.\Generated_Source\PSoC4/BLE_eventHandler.c ****                             case CYBLE_ERROR_OK:
1904:.\Generated_Source\PSoC4/BLE_eventHandler.c ****                                 break;
1905:.\Generated_Source\PSoC4/BLE_eventHandler.c **** 
1906:.\Generated_Source\PSoC4/BLE_eventHandler.c ****                             case CYBLE_DESCR_DISC_DONE:
1907:.\Generated_Source\PSoC4/BLE_eventHandler.c ****                                 CyBle_SetClientState(CYBLE_CLIENT_STATE_DISCOVERED);
 1944              		.loc 1 1907 0
 1945 0188 6F4B     		ldr	r3, .L165+4
 1946 018a 0522     		mov	r2, #5
 1947 018c 1A70     		strb	r2, [r3]
1908:.\Generated_Source\PSoC4/BLE_eventHandler.c ****                                 CyBle_ApplCallback(CYBLE_EVT_GATTC_DISCOVERY_COMPLETE, NULL);
 1948              		.loc 1 1908 0
 1949 018e 734B     		ldr	r3, .L165+24
 1950 0190 1B68     		ldr	r3, [r3]
 1951 0192 1222     		mov	r2, #18
 1952 0194 FF32     		add	r2, r2, #255
 1953 0196 101C     		mov	r0, r2
 1954 0198 0021     		mov	r1, #0
 1955 019a 9847     		blx	r3
1909:.\Generated_Source\PSoC4/BLE_eventHandler.c ****                                 cyBle_eventHandlerFlag &= (uint8)~CYBLE_AUTO_DISCOVERY;
 1956              		.loc 1 1909 0
 1957 019c 694B     		ldr	r3, .L165
 1958 019e 1B78     		ldrb	r3, [r3]
 1959 01a0 DBB2     		uxtb	r3, r3
 1960 01a2 0222     		mov	r2, #2
 1961 01a4 9343     		bic	r3, r2
 1962 01a6 DAB2     		uxtb	r2, r3
 1963 01a8 664B     		ldr	r3, .L165
 1964 01aa 1A70     		strb	r2, [r3]
1910:.\Generated_Source\PSoC4/BLE_eventHandler.c ****                                 break;
 1965              		.loc 1 1910 0
 1966 01ac 08E0     		b	.L135
 1967              	.L157:
1911:.\Generated_Source\PSoC4/BLE_eventHandler.c **** 
1912:.\Generated_Source\PSoC4/BLE_eventHandler.c ****                             default:
1913:.\Generated_Source\PSoC4/BLE_eventHandler.c ****                                 CyBle_ApplCallback(CYBLE_EVT_GATTC_DESCR_DISCOVERY_FAILED, NULL);
 1968              		.loc 1 1913 0
 1969 01ae 6B4B     		ldr	r3, .L165+24
 1970 01b0 1B68     		ldr	r3, [r3]
 1971 01b2 8522     		mov	r2, #133
 1972 01b4 5200     		lsl	r2, r2, #1
 1973 01b6 101C     		mov	r0, r2
 1974 01b8 0021     		mov	r1, #0
 1975 01ba 9847     		blx	r3
1914:.\Generated_Source\PSoC4/BLE_eventHandler.c ****                                 break;
 1976              		.loc 1 1914 0
 1977 01bc 00E0     		b	.L135
 1978              	.L161:
1904:.\Generated_Source\PSoC4/BLE_eventHandler.c ****                                 break;
 1979              		.loc 1 1904 0
 1980 01be C046     		mov	r8, r8
 1981              	.L135:
1915:.\Generated_Source\PSoC4/BLE_eventHandler.c ****                             }
1916:.\Generated_Source\PSoC4/BLE_eventHandler.c ****                             break;
 1982              		.loc 1 1916 0
 1983 01c0 08E0     		b	.L128
 1984              	.L156:
ARM GAS  C:\Users\Zachary\AppData\Local\Temp\ccmvMQUz.s 			page 70


1917:.\Generated_Source\PSoC4/BLE_eventHandler.c **** 
1918:.\Generated_Source\PSoC4/BLE_eventHandler.c ****                         default:
1919:.\Generated_Source\PSoC4/BLE_eventHandler.c ****                             CyBle_ApplCallback(CYBLE_EVT_GATTC_CHAR_DISCOVERY_FAILED, NULL);
 1985              		.loc 1 1919 0
 1986 01c2 664B     		ldr	r3, .L165+24
 1987 01c4 1B68     		ldr	r3, [r3]
 1988 01c6 0A22     		mov	r2, #10
 1989 01c8 FF32     		add	r2, r2, #255
 1990 01ca 101C     		mov	r0, r2
 1991 01cc 0021     		mov	r1, #0
 1992 01ce 9847     		blx	r3
1920:.\Generated_Source\PSoC4/BLE_eventHandler.c ****                             break;
 1993              		.loc 1 1920 0
 1994 01d0 00E0     		b	.L128
 1995              	.L160:
1893:.\Generated_Source\PSoC4/BLE_eventHandler.c ****                             break;
 1996              		.loc 1 1893 0
 1997 01d2 C046     		mov	r8, r8
 1998              	.L128:
1921:.\Generated_Source\PSoC4/BLE_eventHandler.c ****                     }
1922:.\Generated_Source\PSoC4/BLE_eventHandler.c ****                 }
1923:.\Generated_Source\PSoC4/BLE_eventHandler.c **** 
1924:.\Generated_Source\PSoC4/BLE_eventHandler.c ****                 cyBle_eventHandlerFlag &= (uint8)~CYBLE_CALLBACK;
 1999              		.loc 1 1924 0
 2000 01d4 5B4B     		ldr	r3, .L165
 2001 01d6 1B78     		ldrb	r3, [r3]
 2002 01d8 DBB2     		uxtb	r3, r3
 2003 01da 0122     		mov	r2, #1
 2004 01dc 9343     		bic	r3, r2
 2005 01de DAB2     		uxtb	r2, r3
 2006 01e0 584B     		ldr	r3, .L165
 2007 01e2 1A70     		strb	r2, [r3]
1710:.\Generated_Source\PSoC4/BLE_eventHandler.c ****             for(i = 0u; i < attrLength; i += dataLength)
 2008              		.loc 1 1710 0
 2009 01e4 3B1C     		mov	r3, r7
 2010 01e6 4633     		add	r3, r3, #70
 2011 01e8 391C     		mov	r1, r7
 2012 01ea 4631     		add	r1, r1, #70
 2013 01ec 3A1C     		mov	r2, r7
 2014 01ee 3E32     		add	r2, r2, #62
 2015 01f0 0988     		ldrh	r1, [r1]
 2016 01f2 1288     		ldrh	r2, [r2]
 2017 01f4 8A18     		add	r2, r1, r2
 2018 01f6 1A80     		strh	r2, [r3]
 2019              	.L120:
1710:.\Generated_Source\PSoC4/BLE_eventHandler.c ****             for(i = 0u; i < attrLength; i += dataLength)
 2020              		.loc 1 1710 0 is_stmt 0 discriminator 1
 2021 01f8 3A1C     		mov	r2, r7
 2022 01fa 4632     		add	r2, r2, #70
 2023 01fc 3B1C     		mov	r3, r7
 2024 01fe 3C33     		add	r3, r3, #60
 2025 0200 1288     		ldrh	r2, [r2]
 2026 0202 1B88     		ldrh	r3, [r3]
 2027 0204 9A42     		cmp	r2, r3
 2028 0206 00D2     		bcs	.LCB1716
 2029 0208 1DE7     		b	.L136	@long jump
 2030              	.LCB1716:
ARM GAS  C:\Users\Zachary\AppData\Local\Temp\ccmvMQUz.s 			page 71


 2031              	.LBE4:
 2032 020a 2AE1     		b	.L117
 2033              	.L119:
1925:.\Generated_Source\PSoC4/BLE_eventHandler.c ****             }
1926:.\Generated_Source\PSoC4/BLE_eventHandler.c ****         }
1927:.\Generated_Source\PSoC4/BLE_eventHandler.c ****         else if(CYBLE_CLIENT_STATE_INCL_DISCOVERING == CyBle_GetClientState())
 2034              		.loc 1 1927 0 is_stmt 1
 2035 020c 4E4B     		ldr	r3, .L165+4
 2036 020e 1B78     		ldrb	r3, [r3]
 2037 0210 022B     		cmp	r3, #2
 2038 0212 00D0     		beq	.LCB1725
 2039 0214 25E1     		b	.L117	@long jump
 2040              	.LCB1725:
 2041              	.LBB5:
1928:.\Generated_Source\PSoC4/BLE_eventHandler.c ****         {
1929:.\Generated_Source\PSoC4/BLE_eventHandler.c ****             CYBLE_DISC_INCL_INFO_T discInclInfo;
1930:.\Generated_Source\PSoC4/BLE_eventHandler.c ****             
1931:.\Generated_Source\PSoC4/BLE_eventHandler.c ****             for(i = 0; i < attrLength; i += dataLength)
 2042              		.loc 1 1931 0
 2043 0216 3B1C     		mov	r3, r7
 2044 0218 4633     		add	r3, r3, #70
 2045 021a 0022     		mov	r2, #0
 2046 021c 1A80     		strh	r2, [r3]
 2047 021e 17E1     		b	.L137
 2048              	.L155:
1932:.\Generated_Source\PSoC4/BLE_eventHandler.c ****             {
1933:.\Generated_Source\PSoC4/BLE_eventHandler.c ****                 discInclInfo.inclDefHandle = CyBle_Get16ByPtr(attrVal);
 2049              		.loc 1 1933 0
 2050 0220 3B6C     		ldr	r3, [r7, #64]
 2051 0222 181C     		mov	r0, r3
 2052 0224 FFF7FEFF 		bl	CyBle_Get16ByPtr
 2053 0228 031C     		mov	r3, r0
 2054 022a 1A1C     		mov	r2, r3
 2055 022c 3B1C     		mov	r3, r7
 2056 022e 0C33     		add	r3, r3, #12
 2057 0230 1A80     		strh	r2, [r3]
1934:.\Generated_Source\PSoC4/BLE_eventHandler.c ****                 attrVal += sizeof(discInclInfo.inclDefHandle);
 2058              		.loc 1 1934 0
 2059 0232 3B6C     		ldr	r3, [r7, #64]
 2060 0234 0233     		add	r3, r3, #2
 2061 0236 3B64     		str	r3, [r7, #64]
1935:.\Generated_Source\PSoC4/BLE_eventHandler.c ****                 discInclInfo.inclHandleRange.startHandle = CyBle_Get16ByPtr(attrVal);
 2062              		.loc 1 1935 0
 2063 0238 3B6C     		ldr	r3, [r7, #64]
 2064 023a 181C     		mov	r0, r3
 2065 023c FFF7FEFF 		bl	CyBle_Get16ByPtr
 2066 0240 031C     		mov	r3, r0
 2067 0242 1A1C     		mov	r2, r3
 2068 0244 3B1C     		mov	r3, r7
 2069 0246 0C33     		add	r3, r3, #12
 2070 0248 5A80     		strh	r2, [r3, #2]
1936:.\Generated_Source\PSoC4/BLE_eventHandler.c ****                 attrVal += sizeof(discInclInfo.inclHandleRange.startHandle);
 2071              		.loc 1 1936 0
 2072 024a 3B6C     		ldr	r3, [r7, #64]
 2073 024c 0233     		add	r3, r3, #2
 2074 024e 3B64     		str	r3, [r7, #64]
1937:.\Generated_Source\PSoC4/BLE_eventHandler.c ****                 discInclInfo.inclHandleRange.endHandle = CyBle_Get16ByPtr(attrVal);
ARM GAS  C:\Users\Zachary\AppData\Local\Temp\ccmvMQUz.s 			page 72


 2075              		.loc 1 1937 0
 2076 0250 3B6C     		ldr	r3, [r7, #64]
 2077 0252 181C     		mov	r0, r3
 2078 0254 FFF7FEFF 		bl	CyBle_Get16ByPtr
 2079 0258 031C     		mov	r3, r0
 2080 025a 1A1C     		mov	r2, r3
 2081 025c 3B1C     		mov	r3, r7
 2082 025e 0C33     		add	r3, r3, #12
 2083 0260 9A80     		strh	r2, [r3, #4]
1938:.\Generated_Source\PSoC4/BLE_eventHandler.c ****                 attrVal += sizeof(discInclInfo.inclHandleRange.endHandle);
 2084              		.loc 1 1938 0
 2085 0262 3B6C     		ldr	r3, [r7, #64]
 2086 0264 0233     		add	r3, r3, #2
 2087 0266 3B64     		str	r3, [r7, #64]
1939:.\Generated_Source\PSoC4/BLE_eventHandler.c **** 
1940:.\Generated_Source\PSoC4/BLE_eventHandler.c ****                 if(dataLength == CYBLE_DISC_INCL_INFO_128_LEN)
 2088              		.loc 1 1940 0
 2089 0268 3B1C     		mov	r3, r7
 2090 026a 3E33     		add	r3, r3, #62
 2091 026c 1B88     		ldrh	r3, [r3]
 2092 026e 062B     		cmp	r3, #6
 2093 0270 04D1     		bne	.L138
1941:.\Generated_Source\PSoC4/BLE_eventHandler.c ****                 {
1942:.\Generated_Source\PSoC4/BLE_eventHandler.c ****                     discInclInfo.uuidFormat = CYBLE_GATT_128_BIT_UUID_FORMAT;
 2094              		.loc 1 1942 0
 2095 0272 3B1C     		mov	r3, r7
 2096 0274 0C33     		add	r3, r3, #12
 2097 0276 0222     		mov	r2, #2
 2098 0278 9A75     		strb	r2, [r3, #22]
 2099 027a 74E0     		b	.L139
 2100              	.L138:
1943:.\Generated_Source\PSoC4/BLE_eventHandler.c ****                     /* Add custom profile support (send read request to get 128 bit uuid) */
1944:.\Generated_Source\PSoC4/BLE_eventHandler.c ****                 }
1945:.\Generated_Source\PSoC4/BLE_eventHandler.c ****                 else if(dataLength == CYBLE_DISC_INCL_INFO_LEN)
 2101              		.loc 1 1945 0
 2102 027c 3B1C     		mov	r3, r7
 2103 027e 3E33     		add	r3, r3, #62
 2104 0280 1B88     		ldrh	r3, [r3]
 2105 0282 082B     		cmp	r3, #8
 2106 0284 00D0     		beq	.LCB1785
 2107 0286 6EE0     		b	.L139	@long jump
 2108              	.LCB1785:
1946:.\Generated_Source\PSoC4/BLE_eventHandler.c ****                 {
1947:.\Generated_Source\PSoC4/BLE_eventHandler.c ****                     discInclInfo.uuidFormat = CYBLE_GATT_16_BIT_UUID_FORMAT;
 2109              		.loc 1 1947 0
 2110 0288 3B1C     		mov	r3, r7
 2111 028a 0C33     		add	r3, r3, #12
 2112 028c 0122     		mov	r2, #1
 2113 028e 9A75     		strb	r2, [r3, #22]
1948:.\Generated_Source\PSoC4/BLE_eventHandler.c ****                     discInclInfo.uuid.uuid16 = CyBle_Get16ByPtr(attrVal);
 2114              		.loc 1 1948 0
 2115 0290 3B6C     		ldr	r3, [r7, #64]
 2116 0292 181C     		mov	r0, r3
 2117 0294 FFF7FEFF 		bl	CyBle_Get16ByPtr
 2118 0298 031C     		mov	r3, r0
 2119 029a 1A1C     		mov	r2, r3
 2120 029c 3B1C     		mov	r3, r7
ARM GAS  C:\Users\Zachary\AppData\Local\Temp\ccmvMQUz.s 			page 73


 2121 029e 0C33     		add	r3, r3, #12
 2122 02a0 DA80     		strh	r2, [r3, #6]
1949:.\Generated_Source\PSoC4/BLE_eventHandler.c ****                     attrVal += CYBLE_GATT_16_BIT_UUID_SIZE;
 2123              		.loc 1 1949 0
 2124 02a2 3B6C     		ldr	r3, [r7, #64]
 2125 02a4 0233     		add	r3, r3, #2
 2126 02a6 3B64     		str	r3, [r7, #64]
1950:.\Generated_Source\PSoC4/BLE_eventHandler.c ****                     
1951:.\Generated_Source\PSoC4/BLE_eventHandler.c ****                     /* Store range of included service in list of services for discovery */
1952:.\Generated_Source\PSoC4/BLE_eventHandler.c ****                     for(j = 0u; j < (uint8) CYBLE_SRVI_COUNT; j++)
 2127              		.loc 1 1952 0
 2128 02a8 3B1C     		mov	r3, r7
 2129 02aa 4433     		add	r3, r3, #68
 2130 02ac 0022     		mov	r2, #0
 2131 02ae 1A80     		strh	r2, [r3]
 2132 02b0 34E0     		b	.L140
 2133              	.L143:
1953:.\Generated_Source\PSoC4/BLE_eventHandler.c ****                     {
1954:.\Generated_Source\PSoC4/BLE_eventHandler.c ****                         if(cyBle_serverInfo[j].uuid == discInclInfo.uuid.uuid16)
 2134              		.loc 1 1954 0
 2135 02b2 3B1C     		mov	r3, r7
 2136 02b4 4433     		add	r3, r3, #68
 2137 02b6 1A88     		ldrh	r2, [r3]
 2138 02b8 2549     		ldr	r1, .L165+12
 2139 02ba 131C     		mov	r3, r2
 2140 02bc 5B00     		lsl	r3, r3, #1
 2141 02be 9B18     		add	r3, r3, r2
 2142 02c0 5B00     		lsl	r3, r3, #1
 2143 02c2 CB18     		add	r3, r1, r3
 2144 02c4 9A88     		ldrh	r2, [r3, #4]
 2145 02c6 3B1C     		mov	r3, r7
 2146 02c8 0C33     		add	r3, r3, #12
 2147 02ca DB88     		ldrh	r3, [r3, #6]
 2148 02cc 9A42     		cmp	r2, r3
 2149 02ce 1ED1     		bne	.L141
1955:.\Generated_Source\PSoC4/BLE_eventHandler.c ****                         {
1956:.\Generated_Source\PSoC4/BLE_eventHandler.c ****                             if(cyBle_serverInfo[j].range.startHandle == CYBLE_GATT_INVALID_ATTR_HAN
 2150              		.loc 1 1956 0
 2151 02d0 3B1C     		mov	r3, r7
 2152 02d2 4433     		add	r3, r3, #68
 2153 02d4 1A88     		ldrh	r2, [r3]
 2154 02d6 1E49     		ldr	r1, .L165+12
 2155 02d8 131C     		mov	r3, r2
 2156 02da 5B00     		lsl	r3, r3, #1
 2157 02dc 9B18     		add	r3, r3, r2
 2158 02de 5B00     		lsl	r3, r3, #1
 2159 02e0 5B5A     		ldrh	r3, [r3, r1]
 2160 02e2 002B     		cmp	r3, #0
 2161 02e4 13D1     		bne	.L141
1957:.\Generated_Source\PSoC4/BLE_eventHandler.c ****                             {
1958:.\Generated_Source\PSoC4/BLE_eventHandler.c ****                                 cyBle_serverInfo[j].range = discInclInfo.inclHandleRange;
 2162              		.loc 1 1958 0
 2163 02e6 3B1C     		mov	r3, r7
 2164 02e8 4433     		add	r3, r3, #68
 2165 02ea 1A88     		ldrh	r2, [r3]
 2166 02ec 1849     		ldr	r1, .L165+12
 2167 02ee 131C     		mov	r3, r2
ARM GAS  C:\Users\Zachary\AppData\Local\Temp\ccmvMQUz.s 			page 74


 2168 02f0 5B00     		lsl	r3, r3, #1
 2169 02f2 9B18     		add	r3, r3, r2
 2170 02f4 5B00     		lsl	r3, r3, #1
 2171 02f6 381C     		mov	r0, r7
 2172 02f8 0C30     		add	r0, r0, #12
 2173 02fa 0222     		mov	r2, #2
 2174 02fc C918     		add	r1, r1, r3
 2175 02fe 8218     		add	r2, r0, r2
 2176 0300 0423     		mov	r3, #4
 2177 0302 081C     		mov	r0, r1
 2178 0304 111C     		mov	r1, r2
 2179 0306 1A1C     		mov	r2, r3
 2180 0308 FFF7FEFF 		bl	memcpy
1959:.\Generated_Source\PSoC4/BLE_eventHandler.c ****                                 break;
 2181              		.loc 1 1959 0
 2182 030c 0BE0     		b	.L142
 2183              	.L141:
1952:.\Generated_Source\PSoC4/BLE_eventHandler.c ****                     for(j = 0u; j < (uint8) CYBLE_SRVI_COUNT; j++)
 2184              		.loc 1 1952 0
 2185 030e 3B1C     		mov	r3, r7
 2186 0310 4433     		add	r3, r3, #68
 2187 0312 1A88     		ldrh	r2, [r3]
 2188 0314 3B1C     		mov	r3, r7
 2189 0316 4433     		add	r3, r3, #68
 2190 0318 0132     		add	r2, r2, #1
 2191 031a 1A80     		strh	r2, [r3]
 2192              	.L140:
1952:.\Generated_Source\PSoC4/BLE_eventHandler.c ****                     for(j = 0u; j < (uint8) CYBLE_SRVI_COUNT; j++)
 2193              		.loc 1 1952 0 is_stmt 0 discriminator 1
 2194 031c 3B1C     		mov	r3, r7
 2195 031e 4433     		add	r3, r3, #68
 2196 0320 1B88     		ldrh	r3, [r3]
 2197 0322 022B     		cmp	r3, #2
 2198 0324 C5D9     		bls	.L143
 2199              	.L142:
1960:.\Generated_Source\PSoC4/BLE_eventHandler.c ****                             }
1961:.\Generated_Source\PSoC4/BLE_eventHandler.c ****                         }
1962:.\Generated_Source\PSoC4/BLE_eventHandler.c ****                     }
1963:.\Generated_Source\PSoC4/BLE_eventHandler.c **** 
1964:.\Generated_Source\PSoC4/BLE_eventHandler.c ****                     /* Switch by service uuid */
1965:.\Generated_Source\PSoC4/BLE_eventHandler.c ****                     switch (cyBle_serverInfo[cyBle_disCount].uuid)
 2200              		.loc 1 1965 0 is_stmt 1
 2201 0326 094B     		ldr	r3, .L165+8
 2202 0328 1B78     		ldrb	r3, [r3]
 2203 032a 1A1C     		mov	r2, r3
 2204 032c 0849     		ldr	r1, .L165+12
 2205 032e 131C     		mov	r3, r2
 2206 0330 5B00     		lsl	r3, r3, #1
 2207 0332 9B18     		add	r3, r3, r2
 2208 0334 5B00     		lsl	r3, r3, #1
 2209 0336 CB18     		add	r3, r1, r3
 2210 0338 9B88     		ldrh	r3, [r3, #4]
 2211 033a 1A1C     		mov	r2, r3
 2212 033c 084B     		ldr	r3, .L165+28
 2213 033e 9A42     		cmp	r2, r3
 2214 0340 10D0     		beq	.L162
1966:.\Generated_Source\PSoC4/BLE_eventHandler.c ****                     {
ARM GAS  C:\Users\Zachary\AppData\Local\Temp\ccmvMQUz.s 			page 75


1967:.\Generated_Source\PSoC4/BLE_eventHandler.c ****                         case CYBLE_UUID_HIDS_SERVICE:
1968:.\Generated_Source\PSoC4/BLE_eventHandler.c ****                         #ifdef CYBLE_HIDS_CLIENT    
1969:.\Generated_Source\PSoC4/BLE_eventHandler.c ****                             CyBle_HidscInclDiscoveryEventHandler(cyBle_disCount - CYBLE_SRVI_HIDS, 
1970:.\Generated_Source\PSoC4/BLE_eventHandler.c ****                         #endif /* CYBLE_HIDS_CLIENT */
1971:.\Generated_Source\PSoC4/BLE_eventHandler.c ****                             break;
1972:.\Generated_Source\PSoC4/BLE_eventHandler.c ****                     /* other services */
1973:.\Generated_Source\PSoC4/BLE_eventHandler.c **** 
1974:.\Generated_Source\PSoC4/BLE_eventHandler.c ****                     default:
1975:.\Generated_Source\PSoC4/BLE_eventHandler.c ****                         break;
 2215              		.loc 1 1975 0
 2216 0342 10E0     		b	.L146
 2217              	.L166:
 2218              		.align	2
 2219              	.L165:
 2220 0344 00000000 		.word	cyBle_eventHandlerFlag
 2221 0348 00000000 		.word	cyBle_clientState
 2222 034c 00000000 		.word	cyBle_disCount
 2223 0350 00000000 		.word	cyBle_serverInfo
 2224 0354 01180000 		.word	6145
 2225 0358 02180000 		.word	6146
 2226 035c 00000000 		.word	CyBle_ApplCallback
 2227 0360 12180000 		.word	6162
 2228              	.L162:
1971:.\Generated_Source\PSoC4/BLE_eventHandler.c ****                             break;
 2229              		.loc 1 1971 0
 2230 0364 C046     		mov	r8, r8
 2231              	.L146:
 2232              	.L139:
1976:.\Generated_Source\PSoC4/BLE_eventHandler.c ****                     }
1977:.\Generated_Source\PSoC4/BLE_eventHandler.c ****                 }
1978:.\Generated_Source\PSoC4/BLE_eventHandler.c ****                 else
1979:.\Generated_Source\PSoC4/BLE_eventHandler.c ****                 {
1980:.\Generated_Source\PSoC4/BLE_eventHandler.c ****                     /* Unsupported data length value */
1981:.\Generated_Source\PSoC4/BLE_eventHandler.c ****                 }
1982:.\Generated_Source\PSoC4/BLE_eventHandler.c ****                 /* The sub-procedure is complete when an Error Response is received and the
1983:.\Generated_Source\PSoC4/BLE_eventHandler.c ****                    Error Code is set to an Attribute Not Found or the Read By Type Response has an
1984:.\Generated_Source\PSoC4/BLE_eventHandler.c ****                    Attribute Handle that is equal to the Ending Handle of the request. */
1985:.\Generated_Source\PSoC4/BLE_eventHandler.c ****                 if(discInclInfo.inclDefHandle == cyBle_serverInfo[cyBle_disCount].range.endHandle)
 2233              		.loc 1 1985 0
 2234 0366 3B1C     		mov	r3, r7
 2235 0368 0C33     		add	r3, r3, #12
 2236 036a 1988     		ldrh	r1, [r3]
 2237 036c 3E4B     		ldr	r3, .L167
 2238 036e 1B78     		ldrb	r3, [r3]
 2239 0370 1A1C     		mov	r2, r3
 2240 0372 3E48     		ldr	r0, .L167+4
 2241 0374 131C     		mov	r3, r2
 2242 0376 5B00     		lsl	r3, r3, #1
 2243 0378 9B18     		add	r3, r3, r2
 2244 037a 5B00     		lsl	r3, r3, #1
 2245 037c C318     		add	r3, r0, r3
 2246 037e 5B88     		ldrh	r3, [r3, #2]
 2247 0380 9942     		cmp	r1, r3
 2248 0382 53D1     		bne	.L147
1986:.\Generated_Source\PSoC4/BLE_eventHandler.c ****                 {
1987:.\Generated_Source\PSoC4/BLE_eventHandler.c ****                     cyBle_disCount++;
 2249              		.loc 1 1987 0
ARM GAS  C:\Users\Zachary\AppData\Local\Temp\ccmvMQUz.s 			page 76


 2250 0384 384B     		ldr	r3, .L167
 2251 0386 1B78     		ldrb	r3, [r3]
 2252 0388 0133     		add	r3, r3, #1
 2253 038a DAB2     		uxtb	r2, r3
 2254 038c 364B     		ldr	r3, .L167
 2255 038e 1A70     		strb	r2, [r3]
1988:.\Generated_Source\PSoC4/BLE_eventHandler.c ****                     switch(CyBle_NextInclDiscovery())
 2256              		.loc 1 1988 0
 2257 0390 FFF7FEFF 		bl	CyBle_NextInclDiscovery
 2258 0394 031C     		mov	r3, r0
 2259 0396 002B     		cmp	r3, #0
 2260 0398 47D0     		beq	.L163
 2261 039a 8022     		mov	r2, #128
 2262 039c 5200     		lsl	r2, r2, #1
 2263 039e 9342     		cmp	r3, r2
 2264 03a0 33D1     		bne	.L158
1989:.\Generated_Source\PSoC4/BLE_eventHandler.c ****                     {
1990:.\Generated_Source\PSoC4/BLE_eventHandler.c ****                         case CYBLE_ERROR_OK:
1991:.\Generated_Source\PSoC4/BLE_eventHandler.c ****                             break;
1992:.\Generated_Source\PSoC4/BLE_eventHandler.c **** 
1993:.\Generated_Source\PSoC4/BLE_eventHandler.c ****                         case CYBLE_INCL_DISC_DONE:
1994:.\Generated_Source\PSoC4/BLE_eventHandler.c ****                         #if(CYBLE_STACK_MODE_DEBUG)
1995:.\Generated_Source\PSoC4/BLE_eventHandler.c ****                             CyBle_ApplCallback(CYBLE_EVT_GATTC_INCL_DISCOVERY_COMPLETE, NULL);
1996:.\Generated_Source\PSoC4/BLE_eventHandler.c ****                         #endif /* CYBLE_STACK_MODE_DEBUG */
1997:.\Generated_Source\PSoC4/BLE_eventHandler.c ****                             CyBle_SetClientState(CYBLE_CLIENT_STATE_CHAR_DISCOVERING);
 2265              		.loc 1 1997 0
 2266 03a2 334B     		ldr	r3, .L167+8
 2267 03a4 0322     		mov	r2, #3
 2268 03a6 1A70     		strb	r2, [r3]
1998:.\Generated_Source\PSoC4/BLE_eventHandler.c ****                             cyBle_disCount = 0u;
 2269              		.loc 1 1998 0
 2270 03a8 2F4B     		ldr	r3, .L167
 2271 03aa 0022     		mov	r2, #0
 2272 03ac 1A70     		strb	r2, [r3]
1999:.\Generated_Source\PSoC4/BLE_eventHandler.c ****                             #ifdef CYBLE_HIDS_CLIENT
2000:.\Generated_Source\PSoC4/BLE_eventHandler.c ****                                 disServiceIndex = 0u;
2001:.\Generated_Source\PSoC4/BLE_eventHandler.c ****                             #endif /* CYBLE_HIDS_CLIENT */
2002:.\Generated_Source\PSoC4/BLE_eventHandler.c ****                             switch(CyBle_NextCharDiscovery())
 2273              		.loc 1 2002 0
 2274 03ae FFF7FEFF 		bl	CyBle_NextCharDiscovery
 2275 03b2 031C     		mov	r3, r0
 2276 03b4 002B     		cmp	r3, #0
 2277 03b6 26D0     		beq	.L164
 2278 03b8 0222     		mov	r2, #2
 2279 03ba FF32     		add	r2, r2, #255
 2280 03bc 9342     		cmp	r3, r2
 2281 03be 12D1     		bne	.L159
2003:.\Generated_Source\PSoC4/BLE_eventHandler.c ****                             {
2004:.\Generated_Source\PSoC4/BLE_eventHandler.c ****                                 case CYBLE_ERROR_OK:
2005:.\Generated_Source\PSoC4/BLE_eventHandler.c ****                                     break;
2006:.\Generated_Source\PSoC4/BLE_eventHandler.c ****                                 
2007:.\Generated_Source\PSoC4/BLE_eventHandler.c ****                                 case CYBLE_CHAR_DISC_DONE:
2008:.\Generated_Source\PSoC4/BLE_eventHandler.c ****                                     CyBle_SetClientState(CYBLE_CLIENT_STATE_DISCOVERED);
 2282              		.loc 1 2008 0
 2283 03c0 2B4B     		ldr	r3, .L167+8
 2284 03c2 0522     		mov	r2, #5
 2285 03c4 1A70     		strb	r2, [r3]
ARM GAS  C:\Users\Zachary\AppData\Local\Temp\ccmvMQUz.s 			page 77


2009:.\Generated_Source\PSoC4/BLE_eventHandler.c ****                                     CyBle_ApplCallback(CYBLE_EVT_GATTC_DISCOVERY_COMPLETE, NULL);
 2286              		.loc 1 2009 0
 2287 03c6 2B4B     		ldr	r3, .L167+12
 2288 03c8 1B68     		ldr	r3, [r3]
 2289 03ca 1222     		mov	r2, #18
 2290 03cc FF32     		add	r2, r2, #255
 2291 03ce 101C     		mov	r0, r2
 2292 03d0 0021     		mov	r1, #0
 2293 03d2 9847     		blx	r3
2010:.\Generated_Source\PSoC4/BLE_eventHandler.c ****                                     cyBle_eventHandlerFlag &= (uint8)~CYBLE_AUTO_DISCOVERY;
 2294              		.loc 1 2010 0
 2295 03d4 284B     		ldr	r3, .L167+16
 2296 03d6 1B78     		ldrb	r3, [r3]
 2297 03d8 DBB2     		uxtb	r3, r3
 2298 03da 0222     		mov	r2, #2
 2299 03dc 9343     		bic	r3, r2
 2300 03de DAB2     		uxtb	r2, r3
 2301 03e0 254B     		ldr	r3, .L167+16
 2302 03e2 1A70     		strb	r2, [r3]
2011:.\Generated_Source\PSoC4/BLE_eventHandler.c ****                                     break;
 2303              		.loc 1 2011 0
 2304 03e4 10E0     		b	.L154
 2305              	.L159:
2012:.\Generated_Source\PSoC4/BLE_eventHandler.c ****                                 
2013:.\Generated_Source\PSoC4/BLE_eventHandler.c ****                                 default:
2014:.\Generated_Source\PSoC4/BLE_eventHandler.c ****                                     CyBle_ApplCallback(CYBLE_EVT_GATTC_CHAR_DISCOVERY_FAILED, NULL)
 2306              		.loc 1 2014 0
 2307 03e6 234B     		ldr	r3, .L167+12
 2308 03e8 1B68     		ldr	r3, [r3]
 2309 03ea 0A22     		mov	r2, #10
 2310 03ec FF32     		add	r2, r2, #255
 2311 03ee 101C     		mov	r0, r2
 2312 03f0 0021     		mov	r1, #0
 2313 03f2 9847     		blx	r3
2015:.\Generated_Source\PSoC4/BLE_eventHandler.c ****                                     cyBle_eventHandlerFlag &= (uint8)~CYBLE_AUTO_DISCOVERY;
 2314              		.loc 1 2015 0
 2315 03f4 204B     		ldr	r3, .L167+16
 2316 03f6 1B78     		ldrb	r3, [r3]
 2317 03f8 DBB2     		uxtb	r3, r3
 2318 03fa 0222     		mov	r2, #2
 2319 03fc 9343     		bic	r3, r2
 2320 03fe DAB2     		uxtb	r2, r3
 2321 0400 1D4B     		ldr	r3, .L167+16
 2322 0402 1A70     		strb	r2, [r3]
2016:.\Generated_Source\PSoC4/BLE_eventHandler.c ****                                     break;                     
 2323              		.loc 1 2016 0
 2324 0404 00E0     		b	.L154
 2325              	.L164:
2005:.\Generated_Source\PSoC4/BLE_eventHandler.c ****                                     break;
 2326              		.loc 1 2005 0
 2327 0406 C046     		mov	r8, r8
 2328              	.L154:
2017:.\Generated_Source\PSoC4/BLE_eventHandler.c ****                             }
2018:.\Generated_Source\PSoC4/BLE_eventHandler.c ****                             break;
 2329              		.loc 1 2018 0
 2330 0408 10E0     		b	.L147
 2331              	.L158:
ARM GAS  C:\Users\Zachary\AppData\Local\Temp\ccmvMQUz.s 			page 78


2019:.\Generated_Source\PSoC4/BLE_eventHandler.c **** 
2020:.\Generated_Source\PSoC4/BLE_eventHandler.c ****                         default:
2021:.\Generated_Source\PSoC4/BLE_eventHandler.c ****                             CyBle_ApplCallback(CYBLE_EVT_GATTC_INCL_DISCOVERY_FAILED, NULL);
 2332              		.loc 1 2021 0
 2333 040a 1A4B     		ldr	r3, .L167+12
 2334 040c 1B68     		ldr	r3, [r3]
 2335 040e 8422     		mov	r2, #132
 2336 0410 5200     		lsl	r2, r2, #1
 2337 0412 101C     		mov	r0, r2
 2338 0414 0021     		mov	r1, #0
 2339 0416 9847     		blx	r3
2022:.\Generated_Source\PSoC4/BLE_eventHandler.c ****                             cyBle_eventHandlerFlag &= (uint8)~CYBLE_AUTO_DISCOVERY;
 2340              		.loc 1 2022 0
 2341 0418 174B     		ldr	r3, .L167+16
 2342 041a 1B78     		ldrb	r3, [r3]
 2343 041c DBB2     		uxtb	r3, r3
 2344 041e 0222     		mov	r2, #2
 2345 0420 9343     		bic	r3, r2
 2346 0422 DAB2     		uxtb	r2, r3
 2347 0424 144B     		ldr	r3, .L167+16
 2348 0426 1A70     		strb	r2, [r3]
2023:.\Generated_Source\PSoC4/BLE_eventHandler.c ****                             break;
 2349              		.loc 1 2023 0
 2350 0428 00E0     		b	.L147
 2351              	.L163:
1991:.\Generated_Source\PSoC4/BLE_eventHandler.c ****                             break;
 2352              		.loc 1 1991 0
 2353 042a C046     		mov	r8, r8
 2354              	.L147:
2024:.\Generated_Source\PSoC4/BLE_eventHandler.c ****                     }
2025:.\Generated_Source\PSoC4/BLE_eventHandler.c ****                 }
2026:.\Generated_Source\PSoC4/BLE_eventHandler.c ****                 cyBle_eventHandlerFlag &= (uint8)~CYBLE_CALLBACK;
 2355              		.loc 1 2026 0
 2356 042c 124B     		ldr	r3, .L167+16
 2357 042e 1B78     		ldrb	r3, [r3]
 2358 0430 DBB2     		uxtb	r3, r3
 2359 0432 0122     		mov	r2, #1
 2360 0434 9343     		bic	r3, r2
 2361 0436 DAB2     		uxtb	r2, r3
 2362 0438 0F4B     		ldr	r3, .L167+16
 2363 043a 1A70     		strb	r2, [r3]
1931:.\Generated_Source\PSoC4/BLE_eventHandler.c ****             for(i = 0; i < attrLength; i += dataLength)
 2364              		.loc 1 1931 0
 2365 043c 3B1C     		mov	r3, r7
 2366 043e 4633     		add	r3, r3, #70
 2367 0440 391C     		mov	r1, r7
 2368 0442 4631     		add	r1, r1, #70
 2369 0444 3A1C     		mov	r2, r7
 2370 0446 3E32     		add	r2, r2, #62
 2371 0448 0988     		ldrh	r1, [r1]
 2372 044a 1288     		ldrh	r2, [r2]
 2373 044c 8A18     		add	r2, r1, r2
 2374 044e 1A80     		strh	r2, [r3]
 2375              	.L137:
1931:.\Generated_Source\PSoC4/BLE_eventHandler.c ****             for(i = 0; i < attrLength; i += dataLength)
 2376              		.loc 1 1931 0 is_stmt 0 discriminator 1
 2377 0450 3A1C     		mov	r2, r7
ARM GAS  C:\Users\Zachary\AppData\Local\Temp\ccmvMQUz.s 			page 79


 2378 0452 4632     		add	r2, r2, #70
 2379 0454 3B1C     		mov	r3, r7
 2380 0456 3C33     		add	r3, r3, #60
 2381 0458 1288     		ldrh	r2, [r2]
 2382 045a 1B88     		ldrh	r3, [r3]
 2383 045c 9A42     		cmp	r2, r3
 2384 045e 00D2     		bcs	.LCB2048
 2385 0460 DEE6     		b	.L155	@long jump
 2386              	.LCB2048:
 2387              	.L117:
 2388              	.LBE5:
2027:.\Generated_Source\PSoC4/BLE_eventHandler.c ****             }
2028:.\Generated_Source\PSoC4/BLE_eventHandler.c ****         }
2029:.\Generated_Source\PSoC4/BLE_eventHandler.c ****         else
2030:.\Generated_Source\PSoC4/BLE_eventHandler.c ****         {
2031:.\Generated_Source\PSoC4/BLE_eventHandler.c ****             /* Unhandled state value */
2032:.\Generated_Source\PSoC4/BLE_eventHandler.c ****         }
2033:.\Generated_Source\PSoC4/BLE_eventHandler.c ****     }
2034:.\Generated_Source\PSoC4/BLE_eventHandler.c **** }
 2389              		.loc 1 2034 0 is_stmt 1
 2390 0462 BD46     		mov	sp, r7
 2391 0464 12B0     		add	sp, sp, #72
 2392              		@ sp needed
 2393 0466 80BD     		pop	{r7, pc}
 2394              	.L168:
 2395              		.align	2
 2396              	.L167:
 2397 0468 00000000 		.word	cyBle_disCount
 2398 046c 00000000 		.word	cyBle_serverInfo
 2399 0470 00000000 		.word	cyBle_clientState
 2400 0474 00000000 		.word	CyBle_ApplCallback
 2401 0478 00000000 		.word	cyBle_eventHandlerFlag
 2402              		.cfi_endproc
 2403              	.LFE16:
 2404              		.size	CyBle_ReadByTypeEventHandler, .-CyBle_ReadByTypeEventHandler
 2405              		.section	.text.CyBle_NextCharDiscovery,"ax",%progbits
 2406              		.align	2
 2407              		.global	CyBle_NextCharDiscovery
 2408              		.code	16
 2409              		.thumb_func
 2410              		.type	CyBle_NextCharDiscovery, %function
 2411              	CyBle_NextCharDiscovery:
 2412              	.LFB17:
2035:.\Generated_Source\PSoC4/BLE_eventHandler.c **** 
2036:.\Generated_Source\PSoC4/BLE_eventHandler.c **** 
2037:.\Generated_Source\PSoC4/BLE_eventHandler.c **** /****************************************************************************** 
2038:.\Generated_Source\PSoC4/BLE_eventHandler.c **** ##Function Name: CyBle_NextCharDiscovery
2039:.\Generated_Source\PSoC4/BLE_eventHandler.c **** *******************************************************************************
2040:.\Generated_Source\PSoC4/BLE_eventHandler.c **** 
2041:.\Generated_Source\PSoC4/BLE_eventHandler.c **** Summary:
2042:.\Generated_Source\PSoC4/BLE_eventHandler.c ****  Looks for a characteristic handle range for the current service (pointed by
2043:.\Generated_Source\PSoC4/BLE_eventHandler.c ****   cyBle_disCount). If the current range is invalid (any of start or end
2044:.\Generated_Source\PSoC4/BLE_eventHandler.c ****   handles is invalid), then increment the cyBle_disCount and check
2045:.\Generated_Source\PSoC4/BLE_eventHandler.c ****   the next service range and does so until a valid range is caught or the end
2046:.\Generated_Source\PSoC4/BLE_eventHandler.c ****   of the service set is reached.
2047:.\Generated_Source\PSoC4/BLE_eventHandler.c **** 
2048:.\Generated_Source\PSoC4/BLE_eventHandler.c **** Parameters:
ARM GAS  C:\Users\Zachary\AppData\Local\Temp\ccmvMQUz.s 			page 80


2049:.\Generated_Source\PSoC4/BLE_eventHandler.c ****  None
2050:.\Generated_Source\PSoC4/BLE_eventHandler.c **** 
2051:.\Generated_Source\PSoC4/BLE_eventHandler.c **** Return:
2052:.\Generated_Source\PSoC4/BLE_eventHandler.c ****  uint16 apiResult - may be either:
2053:.\Generated_Source\PSoC4/BLE_eventHandler.c ****          - CYBLE_DESCR_DISC_DONE when there are no more descriptors;
2054:.\Generated_Source\PSoC4/BLE_eventHandler.c ****          - result of the CyBle_GattcDiscoverAllCharacteristicDescriptors().
2055:.\Generated_Source\PSoC4/BLE_eventHandler.c **** 
2056:.\Generated_Source\PSoC4/BLE_eventHandler.c **** ******************************************************************************/
2057:.\Generated_Source\PSoC4/BLE_eventHandler.c **** CYBLE_API_RESULT_T CyBle_NextCharDiscovery(void)
2058:.\Generated_Source\PSoC4/BLE_eventHandler.c **** {
 2413              		.loc 1 2058 0
 2414              		.cfi_startproc
 2415 0000 90B5     		push	{r4, r7, lr}
 2416              		.cfi_def_cfa_offset 12
 2417              		.cfi_offset 4, -12
 2418              		.cfi_offset 7, -8
 2419              		.cfi_offset 14, -4
 2420 0002 83B0     		sub	sp, sp, #12
 2421              		.cfi_def_cfa_offset 24
 2422 0004 00AF     		add	r7, sp, #0
 2423              		.cfi_def_cfa_register 7
2059:.\Generated_Source\PSoC4/BLE_eventHandler.c ****     CYBLE_API_RESULT_T apiResult;
2060:.\Generated_Source\PSoC4/BLE_eventHandler.c **** 
2061:.\Generated_Source\PSoC4/BLE_eventHandler.c ****     /* Skip not existing services */
2062:.\Generated_Source\PSoC4/BLE_eventHandler.c ****     while((cyBle_disCount < (uint8) CYBLE_SRVI_COUNT) &&
 2424              		.loc 1 2062 0
 2425 0006 05E0     		b	.L170
 2426              	.L172:
2063:.\Generated_Source\PSoC4/BLE_eventHandler.c ****           (cyBle_serverInfo[cyBle_disCount].range.startHandle == CYBLE_GATT_INVALID_ATTR_HANDLE_VAL
2064:.\Generated_Source\PSoC4/BLE_eventHandler.c ****     {
2065:.\Generated_Source\PSoC4/BLE_eventHandler.c ****         cyBle_disCount++;
 2427              		.loc 1 2065 0
 2428 0008 1D4B     		ldr	r3, .L176
 2429 000a 1B78     		ldrb	r3, [r3]
 2430 000c 0133     		add	r3, r3, #1
 2431 000e DAB2     		uxtb	r2, r3
 2432 0010 1B4B     		ldr	r3, .L176
 2433 0012 1A70     		strb	r2, [r3]
 2434              	.L170:
2062:.\Generated_Source\PSoC4/BLE_eventHandler.c ****     while((cyBle_disCount < (uint8) CYBLE_SRVI_COUNT) &&
 2435              		.loc 1 2062 0 discriminator 1
 2436 0014 1A4B     		ldr	r3, .L176
 2437 0016 1B78     		ldrb	r3, [r3]
 2438 0018 022B     		cmp	r3, #2
 2439 001a 0AD8     		bhi	.L171
2063:.\Generated_Source\PSoC4/BLE_eventHandler.c ****           (cyBle_serverInfo[cyBle_disCount].range.startHandle == CYBLE_GATT_INVALID_ATTR_HANDLE_VAL
 2440              		.loc 1 2063 0 discriminator 2
 2441 001c 184B     		ldr	r3, .L176
 2442 001e 1B78     		ldrb	r3, [r3]
 2443 0020 1A1C     		mov	r2, r3
 2444 0022 1849     		ldr	r1, .L176+4
 2445 0024 131C     		mov	r3, r2
 2446 0026 5B00     		lsl	r3, r3, #1
 2447 0028 9B18     		add	r3, r3, r2
 2448 002a 5B00     		lsl	r3, r3, #1
 2449 002c 5B5A     		ldrh	r3, [r3, r1]
2062:.\Generated_Source\PSoC4/BLE_eventHandler.c ****     while((cyBle_disCount < (uint8) CYBLE_SRVI_COUNT) &&
ARM GAS  C:\Users\Zachary\AppData\Local\Temp\ccmvMQUz.s 			page 81


 2450              		.loc 1 2062 0 discriminator 2
 2451 002e 002B     		cmp	r3, #0
 2452 0030 EAD0     		beq	.L172
 2453              	.L171:
2066:.\Generated_Source\PSoC4/BLE_eventHandler.c ****     }
2067:.\Generated_Source\PSoC4/BLE_eventHandler.c **** 
2068:.\Generated_Source\PSoC4/BLE_eventHandler.c ****     if(cyBle_disCount < (uint8) CYBLE_SRVI_COUNT)
 2454              		.loc 1 2068 0
 2455 0032 134B     		ldr	r3, .L176
 2456 0034 1B78     		ldrb	r3, [r3]
 2457 0036 022B     		cmp	r3, #2
 2458 0038 18D8     		bhi	.L173
2069:.\Generated_Source\PSoC4/BLE_eventHandler.c ****     {
2070:.\Generated_Source\PSoC4/BLE_eventHandler.c ****         apiResult = CyBle_GattcDiscoverAllCharacteristics(cyBle_connHandle, cyBle_serverInfo[cyBle_
 2459              		.loc 1 2070 0
 2460 003a 114B     		ldr	r3, .L176
 2461 003c 1B78     		ldrb	r3, [r3]
 2462 003e 181C     		mov	r0, r3
 2463 0040 BC1D     		add	r4, r7, #6
 2464 0042 114A     		ldr	r2, .L176+8
 2465 0044 0F49     		ldr	r1, .L176+4
 2466 0046 031C     		mov	r3, r0
 2467 0048 5B00     		lsl	r3, r3, #1
 2468 004a 1B18     		add	r3, r3, r0
 2469 004c 5B00     		lsl	r3, r3, #1
 2470 004e 585A     		ldrh	r0, [r3, r1]
 2471 0050 CB18     		add	r3, r1, r3
 2472 0052 5B88     		ldrh	r3, [r3, #2]
 2473 0054 1B04     		lsl	r3, r3, #16
 2474 0056 191C     		mov	r1, r3
 2475 0058 0143     		orr	r1, r0
 2476 005a 0023     		mov	r3, #0
 2477 005c 0B1C     		mov	r3, r1
 2478 005e 1068     		ldr	r0, [r2]
 2479 0060 191C     		mov	r1, r3
 2480 0062 FFF7FEFF 		bl	CyBle_GattcDiscoverAllCharacteristics
 2481 0066 031C     		mov	r3, r0
 2482 0068 2380     		strh	r3, [r4]
 2483 006a 03E0     		b	.L174
 2484              	.L173:
2071:.\Generated_Source\PSoC4/BLE_eventHandler.c ****     }
2072:.\Generated_Source\PSoC4/BLE_eventHandler.c ****     else
2073:.\Generated_Source\PSoC4/BLE_eventHandler.c ****     {
2074:.\Generated_Source\PSoC4/BLE_eventHandler.c ****         apiResult = CYBLE_CHAR_DISC_DONE;
 2485              		.loc 1 2074 0
 2486 006c BB1D     		add	r3, r7, #6
 2487 006e 0222     		mov	r2, #2
 2488 0070 FF32     		add	r2, r2, #255
 2489 0072 1A80     		strh	r2, [r3]
 2490              	.L174:
2075:.\Generated_Source\PSoC4/BLE_eventHandler.c ****     }
2076:.\Generated_Source\PSoC4/BLE_eventHandler.c **** 
2077:.\Generated_Source\PSoC4/BLE_eventHandler.c ****     return (apiResult);
 2491              		.loc 1 2077 0
 2492 0074 BB1D     		add	r3, r7, #6
 2493 0076 1B88     		ldrh	r3, [r3]
2078:.\Generated_Source\PSoC4/BLE_eventHandler.c **** }
ARM GAS  C:\Users\Zachary\AppData\Local\Temp\ccmvMQUz.s 			page 82


 2494              		.loc 1 2078 0
 2495 0078 181C     		mov	r0, r3
 2496 007a BD46     		mov	sp, r7
 2497 007c 03B0     		add	sp, sp, #12
 2498              		@ sp needed
 2499 007e 90BD     		pop	{r4, r7, pc}
 2500              	.L177:
 2501              		.align	2
 2502              	.L176:
 2503 0080 00000000 		.word	cyBle_disCount
 2504 0084 00000000 		.word	cyBle_serverInfo
 2505 0088 00000000 		.word	cyBle_connHandle
 2506              		.cfi_endproc
 2507              	.LFE17:
 2508              		.size	CyBle_NextCharDiscovery, .-CyBle_NextCharDiscovery
 2509              		.section	.text.CyBle_GetCharRange,"ax",%progbits
 2510              		.align	2
 2511              		.code	16
 2512              		.thumb_func
 2513              		.type	CyBle_GetCharRange, %function
 2514              	CyBle_GetCharRange:
 2515              	.LFB18:
2079:.\Generated_Source\PSoC4/BLE_eventHandler.c **** 
2080:.\Generated_Source\PSoC4/BLE_eventHandler.c **** 
2081:.\Generated_Source\PSoC4/BLE_eventHandler.c **** /****************************************************************************** 
2082:.\Generated_Source\PSoC4/BLE_eventHandler.c **** ##Function Name: CyBle_GetCharRange
2083:.\Generated_Source\PSoC4/BLE_eventHandler.c **** *******************************************************************************
2084:.\Generated_Source\PSoC4/BLE_eventHandler.c **** 
2085:.\Generated_Source\PSoC4/BLE_eventHandler.c **** Summary:
2086:.\Generated_Source\PSoC4/BLE_eventHandler.c ****  Returns a possible range of the current characteristic descriptor
2087:.\Generated_Source\PSoC4/BLE_eventHandler.c ****  (which is pointed by curr. descr. index cyBle_disCount).
2088:.\Generated_Source\PSoC4/BLE_eventHandler.c **** 
2089:.\Generated_Source\PSoC4/BLE_eventHandler.c **** Parameters:
2090:.\Generated_Source\PSoC4/BLE_eventHandler.c ****  None
2091:.\Generated_Source\PSoC4/BLE_eventHandler.c **** 
2092:.\Generated_Source\PSoC4/BLE_eventHandler.c **** Return:
2093:.\Generated_Source\PSoC4/BLE_eventHandler.c ****  CYBLE_GATT_ATTR_HANDLE_RANGE_T range:  the block of start and end handles.
2094:.\Generated_Source\PSoC4/BLE_eventHandler.c **** 
2095:.\Generated_Source\PSoC4/BLE_eventHandler.c **** ******************************************************************************/
2096:.\Generated_Source\PSoC4/BLE_eventHandler.c **** static CYBLE_GATT_ATTR_HANDLE_RANGE_T CyBle_GetCharRange(void)
2097:.\Generated_Source\PSoC4/BLE_eventHandler.c **** {
 2516              		.loc 1 2097 0
 2517              		.cfi_startproc
 2518 0000 80B5     		push	{r7, lr}
 2519              		.cfi_def_cfa_offset 8
 2520              		.cfi_offset 7, -8
 2521              		.cfi_offset 14, -4
 2522 0002 82B0     		sub	sp, sp, #8
 2523              		.cfi_def_cfa_offset 16
 2524 0004 00AF     		add	r7, sp, #0
 2525              		.cfi_def_cfa_register 7
2098:.\Generated_Source\PSoC4/BLE_eventHandler.c ****     CYBLE_GATT_ATTR_HANDLE_RANGE_T charRange = {CYBLE_GATT_INVALID_ATTR_HANDLE_VALUE, CYBLE_GATT_IN
 2526              		.loc 1 2098 0
 2527 0006 3B1C     		mov	r3, r7
 2528 0008 0022     		mov	r2, #0
 2529 000a 1A80     		strh	r2, [r3]
 2530 000c 3B1C     		mov	r3, r7
ARM GAS  C:\Users\Zachary\AppData\Local\Temp\ccmvMQUz.s 			page 83


 2531 000e 0022     		mov	r2, #0
 2532 0010 5A80     		strh	r2, [r3, #2]
2099:.\Generated_Source\PSoC4/BLE_eventHandler.c ****     if(cyBle_disCount == (uint8) CYBLE_SCDI_GATT_SERVICE_CHANGED)
 2533              		.loc 1 2099 0
 2534 0012 114B     		ldr	r3, .L181
 2535 0014 1B78     		ldrb	r3, [r3]
 2536 0016 002B     		cmp	r3, #0
 2537 0018 09D1     		bne	.L179
2100:.\Generated_Source\PSoC4/BLE_eventHandler.c ****     {
2101:.\Generated_Source\PSoC4/BLE_eventHandler.c ****         /* One descriptor is available in GATT service */
2102:.\Generated_Source\PSoC4/BLE_eventHandler.c ****         charRange.startHandle = cyBle_gattc.serviceChanged.valueHandle + 1u;
 2538              		.loc 1 2102 0
 2539 001a 104B     		ldr	r3, .L181+4
 2540 001c 5B88     		ldrh	r3, [r3, #2]
 2541 001e 0133     		add	r3, r3, #1
 2542 0020 9AB2     		uxth	r2, r3
 2543 0022 3B1C     		mov	r3, r7
 2544 0024 1A80     		strh	r2, [r3]
2103:.\Generated_Source\PSoC4/BLE_eventHandler.c ****         charRange.endHandle = cyBle_serverInfo[CYBLE_SRVI_GATT].range.endHandle;
 2545              		.loc 1 2103 0
 2546 0026 0E4B     		ldr	r3, .L181+8
 2547 0028 1A89     		ldrh	r2, [r3, #8]
 2548 002a 3B1C     		mov	r3, r7
 2549 002c 5A80     		strh	r2, [r3, #2]
 2550              	.L179:
2104:.\Generated_Source\PSoC4/BLE_eventHandler.c ****     }
2105:.\Generated_Source\PSoC4/BLE_eventHandler.c **** #ifdef CYBLE_ANS_CLIENT
2106:.\Generated_Source\PSoC4/BLE_eventHandler.c ****     if((cyBle_disCount >= (uint8) CYBLE_SCDI_ANS_SUPPORTED_NEW_ALERT_CAT) &&
2107:.\Generated_Source\PSoC4/BLE_eventHandler.c ****         (cyBle_disCount <= (uint8) CYBLE_SCDI_ANS_ALERT_NTF_CONTROL_POINT))
2108:.\Generated_Source\PSoC4/BLE_eventHandler.c ****     {
2109:.\Generated_Source\PSoC4/BLE_eventHandler.c ****         charRange.startHandle = 
2110:.\Generated_Source\PSoC4/BLE_eventHandler.c ****             cyBle_ansc.characteristics[cyBle_disCount - CYBLE_SCDI_ANS_SUPPORTED_NEW_ALERT_CAT].cha
2111:.\Generated_Source\PSoC4/BLE_eventHandler.c ****         charRange.endHandle = 
2112:.\Generated_Source\PSoC4/BLE_eventHandler.c ****             cyBle_ansc.characteristics[cyBle_disCount - CYBLE_SCDI_ANS_SUPPORTED_NEW_ALERT_CAT].end
2113:.\Generated_Source\PSoC4/BLE_eventHandler.c ****     }
2114:.\Generated_Source\PSoC4/BLE_eventHandler.c **** #endif /* CYBLE_ANS_CLIENT */
2115:.\Generated_Source\PSoC4/BLE_eventHandler.c **** #ifdef CYBLE_BAS_CLIENT
2116:.\Generated_Source\PSoC4/BLE_eventHandler.c ****     if((cyBle_disCount >= (uint8) CYBLE_SCDI_BAS_LEVEL) && (cyBle_disCount <= (uint8) CYBLE_SCDI_BA
2117:.\Generated_Source\PSoC4/BLE_eventHandler.c ****     {
2118:.\Generated_Source\PSoC4/BLE_eventHandler.c ****         if(cyBle_basc[cyBle_disCount - CYBLE_SCDI_BAS_LEVEL].batteryLevel.valueHandle != CYBLE_GATT
2119:.\Generated_Source\PSoC4/BLE_eventHandler.c ****         {
2120:.\Generated_Source\PSoC4/BLE_eventHandler.c ****             /* One descriptor is available per characteristic */
2121:.\Generated_Source\PSoC4/BLE_eventHandler.c ****             charRange.startHandle = cyBle_basc[cyBle_disCount - CYBLE_SCDI_BAS_LEVEL].
2122:.\Generated_Source\PSoC4/BLE_eventHandler.c ****                                 batteryLevel.valueHandle + 1u;
2123:.\Generated_Source\PSoC4/BLE_eventHandler.c ****             charRange.endHandle = cyBle_serverInfo[CYBLE_SRVI_BAS + (cyBle_disCount - CYBLE_SCDI_BA
2124:.\Generated_Source\PSoC4/BLE_eventHandler.c ****                                 range.endHandle;
2125:.\Generated_Source\PSoC4/BLE_eventHandler.c ****         }
2126:.\Generated_Source\PSoC4/BLE_eventHandler.c ****     }
2127:.\Generated_Source\PSoC4/BLE_eventHandler.c **** #endif /* CYBLE_BAS_CLIENT */
2128:.\Generated_Source\PSoC4/BLE_eventHandler.c **** #ifdef CYBLE_BLS_CLIENT
2129:.\Generated_Source\PSoC4/BLE_eventHandler.c ****     if((cyBle_disCount == (uint8) CYBLE_SCDI_BLS_BPM) || (cyBle_disCount == (uint8) CYBLE_SCDI_BLS_
2130:.\Generated_Source\PSoC4/BLE_eventHandler.c ****     {
2131:.\Generated_Source\PSoC4/BLE_eventHandler.c ****         if(cyBle_blsc.charInfo[cyBle_disCount - CYBLE_SCDI_BLS_BPM].valueHandle != CYBLE_GATT_INVAL
2132:.\Generated_Source\PSoC4/BLE_eventHandler.c ****         {
2133:.\Generated_Source\PSoC4/BLE_eventHandler.c ****             /* One descriptor is available per characteristic */
2134:.\Generated_Source\PSoC4/BLE_eventHandler.c ****             charRange.startHandle = cyBle_blsc.charInfo[cyBle_disCount - CYBLE_SCDI_BLS_BPM].valueH
2135:.\Generated_Source\PSoC4/BLE_eventHandler.c ****             charRange.endHandle = cyBle_blsc.charInfo[cyBle_disCount - CYBLE_SCDI_BLS_BPM].endHandl
ARM GAS  C:\Users\Zachary\AppData\Local\Temp\ccmvMQUz.s 			page 84


2136:.\Generated_Source\PSoC4/BLE_eventHandler.c ****         }
2137:.\Generated_Source\PSoC4/BLE_eventHandler.c ****     }
2138:.\Generated_Source\PSoC4/BLE_eventHandler.c **** #endif /* CYBLE_BLS_CLIENT */
2139:.\Generated_Source\PSoC4/BLE_eventHandler.c **** #ifdef CYBLE_CGMS_CLIENT
2140:.\Generated_Source\PSoC4/BLE_eventHandler.c ****     if((cyBle_disCount >= (uint8) CYBLE_SCDI_CGMS_CGMT) && (cyBle_disCount <= (uint8) CYBLE_SCDI_CG
2141:.\Generated_Source\PSoC4/BLE_eventHandler.c ****     {
2142:.\Generated_Source\PSoC4/BLE_eventHandler.c ****         uint8 charIdx = cyBle_disCount - CYBLE_SCDI_CGMS_CGMT;
2143:.\Generated_Source\PSoC4/BLE_eventHandler.c ****         if(CYBLE_CGMS_CGMT < charIdx)
2144:.\Generated_Source\PSoC4/BLE_eventHandler.c ****         {
2145:.\Generated_Source\PSoC4/BLE_eventHandler.c ****             /* charIdx for RACP is 5 and for SOCP is 6 */
2146:.\Generated_Source\PSoC4/BLE_eventHandler.c ****             charIdx += CYBLE_CGMS_RACP - 1u;
2147:.\Generated_Source\PSoC4/BLE_eventHandler.c ****         }
2148:.\Generated_Source\PSoC4/BLE_eventHandler.c ****         
2149:.\Generated_Source\PSoC4/BLE_eventHandler.c ****         if(cyBle_cgmsc.charInfo[charIdx].valueHandle != CYBLE_GATT_INVALID_ATTR_HANDLE_VALUE)
2150:.\Generated_Source\PSoC4/BLE_eventHandler.c ****         {
2151:.\Generated_Source\PSoC4/BLE_eventHandler.c ****             /* One descriptor is available per characteristic */
2152:.\Generated_Source\PSoC4/BLE_eventHandler.c ****             charRange.startHandle = cyBle_cgmsc.charInfo[charIdx].valueHandle + 1u;
2153:.\Generated_Source\PSoC4/BLE_eventHandler.c ****             charRange.endHandle = cyBle_cgmsc.charInfo[charIdx].endHandle;
2154:.\Generated_Source\PSoC4/BLE_eventHandler.c ****         }
2155:.\Generated_Source\PSoC4/BLE_eventHandler.c ****     }
2156:.\Generated_Source\PSoC4/BLE_eventHandler.c **** #endif /* CYBLE_CGMS_CLIENT */
2157:.\Generated_Source\PSoC4/BLE_eventHandler.c **** #ifdef CYBLE_CPS_CLIENT
2158:.\Generated_Source\PSoC4/BLE_eventHandler.c ****     if((cyBle_disCount >= (uint8) CYBLE_SCDI_CPS_POWER_MEASURE) && (cyBle_disCount <= (uint8) CYBLE
2159:.\Generated_Source\PSoC4/BLE_eventHandler.c ****     {
2160:.\Generated_Source\PSoC4/BLE_eventHandler.c ****         charRange.startHandle = cyBle_cpsc.charInfo[cyBle_disCount - CYBLE_SCDI_CPS_POWER_MEASURE].
2161:.\Generated_Source\PSoC4/BLE_eventHandler.c ****         charRange.endHandle = cyBle_cpsc.charInfo[cyBle_disCount - CYBLE_SCDI_CPS_POWER_MEASURE].en
2162:.\Generated_Source\PSoC4/BLE_eventHandler.c ****     }
2163:.\Generated_Source\PSoC4/BLE_eventHandler.c **** #endif /* CYBLE_CPS_CLIENT */
2164:.\Generated_Source\PSoC4/BLE_eventHandler.c **** #ifdef CYBLE_CSCS_CLIENT
2165:.\Generated_Source\PSoC4/BLE_eventHandler.c ****     if((cyBle_disCount >= (uint8) CYBLE_SCDI_CSCS_CSC_MEASUREMENT) && 
2166:.\Generated_Source\PSoC4/BLE_eventHandler.c ****        (cyBle_disCount <= (uint8) CYBLE_SCDI_CSCS_SC_CONTROL_POINT))
2167:.\Generated_Source\PSoC4/BLE_eventHandler.c ****     {
2168:.\Generated_Source\PSoC4/BLE_eventHandler.c ****         charRange.startHandle = 
2169:.\Generated_Source\PSoC4/BLE_eventHandler.c ****             cyBle_cscsc.characteristics[cyBle_disCount - CYBLE_SCDI_CSCS_CSC_MEASUREMENT].charInfo.
2170:.\Generated_Source\PSoC4/BLE_eventHandler.c ****         charRange.endHandle = cyBle_cscsc.characteristics[cyBle_disCount - CYBLE_SCDI_CSCS_CSC_MEAS
2171:.\Generated_Source\PSoC4/BLE_eventHandler.c ****     }
2172:.\Generated_Source\PSoC4/BLE_eventHandler.c **** #endif /* CYBLE_CSCS_CLIENT */
2173:.\Generated_Source\PSoC4/BLE_eventHandler.c **** #ifdef CYBLE_CTS_CLIENT
2174:.\Generated_Source\PSoC4/BLE_eventHandler.c ****     if(cyBle_disCount == (uint8) CYBLE_SCDI_CTS_CURRENT_TIME)
2175:.\Generated_Source\PSoC4/BLE_eventHandler.c ****     {
2176:.\Generated_Source\PSoC4/BLE_eventHandler.c ****         if(cyBle_ctsc.currTimeCharacteristics[CYBLE_CTS_CURRENT_TIME].valueHandle != CYBLE_GATT_INV
2177:.\Generated_Source\PSoC4/BLE_eventHandler.c ****         {
2178:.\Generated_Source\PSoC4/BLE_eventHandler.c ****             /* One descriptor is available per service */
2179:.\Generated_Source\PSoC4/BLE_eventHandler.c ****             charRange.startHandle = cyBle_ctsc.currTimeCharacteristics[CYBLE_CTS_CURRENT_TIME].valu
2180:.\Generated_Source\PSoC4/BLE_eventHandler.c ****             charRange.endHandle = cyBle_serverInfo[CYBLE_SRVI_CTS].range.endHandle;
2181:.\Generated_Source\PSoC4/BLE_eventHandler.c ****         }
2182:.\Generated_Source\PSoC4/BLE_eventHandler.c ****     }
2183:.\Generated_Source\PSoC4/BLE_eventHandler.c **** #endif /* CYBLE_CTS_CLIENT */
2184:.\Generated_Source\PSoC4/BLE_eventHandler.c **** #ifdef CYBLE_GLS_CLIENT
2185:.\Generated_Source\PSoC4/BLE_eventHandler.c ****     if((cyBle_disCount >= (uint8) CYBLE_SCDI_GLS_GLMT) && (cyBle_disCount <= (uint8) CYBLE_SCDI_GLS
2186:.\Generated_Source\PSoC4/BLE_eventHandler.c ****     {
2187:.\Generated_Source\PSoC4/BLE_eventHandler.c ****         uint8 charIdx = cyBle_disCount - CYBLE_SCDI_GLS_GLMT;
2188:.\Generated_Source\PSoC4/BLE_eventHandler.c ****         if((CYBLE_SCDI_GLS_RACP - CYBLE_SCDI_GLS_GLMT) == charIdx)
2189:.\Generated_Source\PSoC4/BLE_eventHandler.c ****         {
2190:.\Generated_Source\PSoC4/BLE_eventHandler.c ****             charIdx = CYBLE_GLS_RACP;
2191:.\Generated_Source\PSoC4/BLE_eventHandler.c ****         }
2192:.\Generated_Source\PSoC4/BLE_eventHandler.c ****         
ARM GAS  C:\Users\Zachary\AppData\Local\Temp\ccmvMQUz.s 			page 85


2193:.\Generated_Source\PSoC4/BLE_eventHandler.c ****         if(cyBle_glsc.charInfo[charIdx].valueHandle != CYBLE_GATT_INVALID_ATTR_HANDLE_VALUE)
2194:.\Generated_Source\PSoC4/BLE_eventHandler.c ****         {
2195:.\Generated_Source\PSoC4/BLE_eventHandler.c ****             /* One descriptor is available per characteristic */
2196:.\Generated_Source\PSoC4/BLE_eventHandler.c ****             charRange.startHandle = cyBle_glsc.charInfo[charIdx].valueHandle + 1u;
2197:.\Generated_Source\PSoC4/BLE_eventHandler.c ****             charRange.endHandle = cyBle_glsc.charInfo[charIdx].endHandle;
2198:.\Generated_Source\PSoC4/BLE_eventHandler.c ****         }
2199:.\Generated_Source\PSoC4/BLE_eventHandler.c ****     }
2200:.\Generated_Source\PSoC4/BLE_eventHandler.c **** #endif /* CYBLE_GLS_CLIENT */
2201:.\Generated_Source\PSoC4/BLE_eventHandler.c **** #ifdef CYBLE_HIDS_CLIENT
2202:.\Generated_Source\PSoC4/BLE_eventHandler.c ****     if((cyBle_disCount >= (uint8) CYBLE_SCDI_HIDS_REPORT_MAP) && (cyBle_disCount <= (uint8) CYBLE_S
2203:.\Generated_Source\PSoC4/BLE_eventHandler.c ****     {
2204:.\Generated_Source\PSoC4/BLE_eventHandler.c ****         if(cyBle_disCount == (uint8) CYBLE_SCDI_HIDS_REPORT_MAP)
2205:.\Generated_Source\PSoC4/BLE_eventHandler.c ****         {
2206:.\Generated_Source\PSoC4/BLE_eventHandler.c ****             if(cyBle_hidsc[disServiceIndex].reportMap.valueHandle != CYBLE_GATT_INVALID_ATTR_HANDLE
2207:.\Generated_Source\PSoC4/BLE_eventHandler.c ****             {
2208:.\Generated_Source\PSoC4/BLE_eventHandler.c ****                 charRange.startHandle = cyBle_hidsc[disServiceIndex].reportMap.valueHandle + 1u;
2209:.\Generated_Source\PSoC4/BLE_eventHandler.c ****                 charRange.endHandle = cyBle_hidsc[disServiceIndex].reportMap.endHandle;
2210:.\Generated_Source\PSoC4/BLE_eventHandler.c ****             }
2211:.\Generated_Source\PSoC4/BLE_eventHandler.c ****         }
2212:.\Generated_Source\PSoC4/BLE_eventHandler.c ****         else if(cyBle_disCount < (uint8) CYBLE_SCDI_HIDS_REPORT)
2213:.\Generated_Source\PSoC4/BLE_eventHandler.c ****         {
2214:.\Generated_Source\PSoC4/BLE_eventHandler.c ****             if(cyBle_hidsc[disServiceIndex].bootReport[cyBle_disCount -
2215:.\Generated_Source\PSoC4/BLE_eventHandler.c ****                 CYBLE_SCDI_HIDS_BOOT_KYBRD_IN_REP].valueHandle != CYBLE_GATT_INVALID_ATTR_HANDLE_VA
2216:.\Generated_Source\PSoC4/BLE_eventHandler.c ****             {
2217:.\Generated_Source\PSoC4/BLE_eventHandler.c ****                 charRange.startHandle = cyBle_hidsc[disServiceIndex].
2218:.\Generated_Source\PSoC4/BLE_eventHandler.c ****                             bootReport[cyBle_disCount - CYBLE_SCDI_HIDS_BOOT_KYBRD_IN_REP].valueHan
2219:.\Generated_Source\PSoC4/BLE_eventHandler.c ****                 charRange.endHandle = cyBle_hidsc[disServiceIndex].
2220:.\Generated_Source\PSoC4/BLE_eventHandler.c ****                             bootReport[cyBle_disCount - CYBLE_SCDI_HIDS_BOOT_KYBRD_IN_REP].endHandl
2221:.\Generated_Source\PSoC4/BLE_eventHandler.c ****             }
2222:.\Generated_Source\PSoC4/BLE_eventHandler.c ****         }
2223:.\Generated_Source\PSoC4/BLE_eventHandler.c ****         else
2224:.\Generated_Source\PSoC4/BLE_eventHandler.c ****         {
2225:.\Generated_Source\PSoC4/BLE_eventHandler.c ****             if(cyBle_hidsc[disServiceIndex].report[cyBle_disCount - CYBLE_SCDI_HIDS_REPORT].valueHa
2226:.\Generated_Source\PSoC4/BLE_eventHandler.c ****                 CYBLE_GATT_INVALID_ATTR_HANDLE_VALUE)
2227:.\Generated_Source\PSoC4/BLE_eventHandler.c ****             {
2228:.\Generated_Source\PSoC4/BLE_eventHandler.c ****                 charRange.startHandle = cyBle_hidsc[disServiceIndex].
2229:.\Generated_Source\PSoC4/BLE_eventHandler.c ****                             report[cyBle_disCount - CYBLE_SCDI_HIDS_REPORT].valueHandle + 1u;
2230:.\Generated_Source\PSoC4/BLE_eventHandler.c ****                 charRange.endHandle = cyBle_hidsc[disServiceIndex].
2231:.\Generated_Source\PSoC4/BLE_eventHandler.c ****                             report[cyBle_disCount - CYBLE_SCDI_HIDS_REPORT].endHandle;
2232:.\Generated_Source\PSoC4/BLE_eventHandler.c ****             }
2233:.\Generated_Source\PSoC4/BLE_eventHandler.c ****         }
2234:.\Generated_Source\PSoC4/BLE_eventHandler.c **** 
2235:.\Generated_Source\PSoC4/BLE_eventHandler.c ****     }
2236:.\Generated_Source\PSoC4/BLE_eventHandler.c **** #endif /* CYBLE_HIDS_CLIENT */
2237:.\Generated_Source\PSoC4/BLE_eventHandler.c **** #ifdef CYBLE_HRS_CLIENT
2238:.\Generated_Source\PSoC4/BLE_eventHandler.c ****     if(cyBle_disCount == (uint8) CYBLE_SCDI_HRS_HRM)
2239:.\Generated_Source\PSoC4/BLE_eventHandler.c ****     {
2240:.\Generated_Source\PSoC4/BLE_eventHandler.c ****         charRange.startHandle = cyBle_hrsc.charInfo[CYBLE_HRS_HRM].valueHandle + 1u;
2241:.\Generated_Source\PSoC4/BLE_eventHandler.c ****         charRange.endHandle = cyBle_serverInfo[CYBLE_SRVI_HRS].range.endHandle;
2242:.\Generated_Source\PSoC4/BLE_eventHandler.c ****     }
2243:.\Generated_Source\PSoC4/BLE_eventHandler.c **** #endif /* CYBLE_HRS_CLIENT */
2244:.\Generated_Source\PSoC4/BLE_eventHandler.c **** #ifdef CYBLE_HTS_CLIENT
2245:.\Generated_Source\PSoC4/BLE_eventHandler.c ****     if((cyBle_disCount >= (uint8) CYBLE_SCDI_HTS_TEMP_MEASURE) && (cyBle_disCount <= (uint8) CYBLE_
2246:.\Generated_Source\PSoC4/BLE_eventHandler.c ****     {
2247:.\Generated_Source\PSoC4/BLE_eventHandler.c ****         charRange.startHandle = cyBle_htsc.charInfo[cyBle_disCount - CYBLE_SCDI_HTS_TEMP_MEASURE].v
2248:.\Generated_Source\PSoC4/BLE_eventHandler.c ****         charRange.endHandle = cyBle_htsc.charInfo[cyBle_disCount - CYBLE_SCDI_HTS_TEMP_MEASURE].end
2249:.\Generated_Source\PSoC4/BLE_eventHandler.c ****     }
ARM GAS  C:\Users\Zachary\AppData\Local\Temp\ccmvMQUz.s 			page 86


2250:.\Generated_Source\PSoC4/BLE_eventHandler.c **** #endif /* CYBLE_HTS_CLIENT */
2251:.\Generated_Source\PSoC4/BLE_eventHandler.c **** #ifdef CYBLE_LNS_CLIENT
2252:.\Generated_Source\PSoC4/BLE_eventHandler.c ****     if((cyBle_disCount >= (uint8) CYBLE_SCDI_LNS_LS) && (cyBle_disCount <= (uint8) CYBLE_SCDI_LNS_N
2253:.\Generated_Source\PSoC4/BLE_eventHandler.c ****     {
2254:.\Generated_Source\PSoC4/BLE_eventHandler.c ****         uint8 charIdx = (cyBle_disCount - CYBLE_SCDI_LNS_LS) + 1u;
2255:.\Generated_Source\PSoC4/BLE_eventHandler.c ****         if(charIdx > (uint8) CYBLE_SCDI_LNS_LS)
2256:.\Generated_Source\PSoC4/BLE_eventHandler.c ****         {
2257:.\Generated_Source\PSoC4/BLE_eventHandler.c ****             charIdx++;
2258:.\Generated_Source\PSoC4/BLE_eventHandler.c ****         }
2259:.\Generated_Source\PSoC4/BLE_eventHandler.c ****         charRange.startHandle = cyBle_lnsc.charInfo[charIdx].valueHandle + 1u;
2260:.\Generated_Source\PSoC4/BLE_eventHandler.c ****         charRange.endHandle = cyBle_lnsc.charInfo[charIdx].endHandle;
2261:.\Generated_Source\PSoC4/BLE_eventHandler.c ****     }
2262:.\Generated_Source\PSoC4/BLE_eventHandler.c **** #endif /* CYBLE_LNS_CLIENT */
2263:.\Generated_Source\PSoC4/BLE_eventHandler.c **** #ifdef CYBLE_PASS_CLIENT
2264:.\Generated_Source\PSoC4/BLE_eventHandler.c ****     if((cyBle_disCount == (uint8) CYBLE_SCDI_PASS_AS) || (cyBle_disCount == (uint8) CYBLE_SCDI_PASS
2265:.\Generated_Source\PSoC4/BLE_eventHandler.c ****     {
2266:.\Generated_Source\PSoC4/BLE_eventHandler.c ****         charRange.startHandle = cyBle_passc.charInfo[cyBle_disCount - CYBLE_SCDI_PASS_AS].valueHand
2267:.\Generated_Source\PSoC4/BLE_eventHandler.c ****         charRange.endHandle = cyBle_passc.charInfo[cyBle_disCount - CYBLE_SCDI_PASS_AS].endHandle;
2268:.\Generated_Source\PSoC4/BLE_eventHandler.c ****     }
2269:.\Generated_Source\PSoC4/BLE_eventHandler.c **** #endif /* CYBLE_PASS_CLIENT */
2270:.\Generated_Source\PSoC4/BLE_eventHandler.c **** #ifdef CYBLE_RSCS_CLIENT
2271:.\Generated_Source\PSoC4/BLE_eventHandler.c ****     if((cyBle_disCount >= (uint8) CYBLE_SCDI_RSCS_RSC_MEASUREMENT) && 
2272:.\Generated_Source\PSoC4/BLE_eventHandler.c ****        (cyBle_disCount <= (uint8) CYBLE_SCDI_RSCS_SC_CONTROL_POINT))
2273:.\Generated_Source\PSoC4/BLE_eventHandler.c ****     {
2274:.\Generated_Source\PSoC4/BLE_eventHandler.c ****         charRange.startHandle = 
2275:.\Generated_Source\PSoC4/BLE_eventHandler.c ****             cyBle_rscsc.characteristics[cyBle_disCount - CYBLE_SCDI_RSCS_RSC_MEASUREMENT].charInfo.
2276:.\Generated_Source\PSoC4/BLE_eventHandler.c ****         charRange.endHandle = cyBle_rscsc.characteristics[cyBle_disCount - CYBLE_SCDI_RSCS_RSC_MEAS
2277:.\Generated_Source\PSoC4/BLE_eventHandler.c ****     }
2278:.\Generated_Source\PSoC4/BLE_eventHandler.c **** #endif /* CYBLE_RSCS_CLIENT */
2279:.\Generated_Source\PSoC4/BLE_eventHandler.c **** #ifdef CYBLE_SCPS_CLIENT
2280:.\Generated_Source\PSoC4/BLE_eventHandler.c ****     if(cyBle_disCount == (uint8) CYBLE_SCDI_SCPS_SCAN_REFRESH)
2281:.\Generated_Source\PSoC4/BLE_eventHandler.c ****     {
2282:.\Generated_Source\PSoC4/BLE_eventHandler.c ****         if(cyBle_scpsc.refreshChar.valueHandle != CYBLE_GATT_INVALID_ATTR_HANDLE_VALUE)
2283:.\Generated_Source\PSoC4/BLE_eventHandler.c ****         {
2284:.\Generated_Source\PSoC4/BLE_eventHandler.c ****             /* One descriptor is available per characteristic */
2285:.\Generated_Source\PSoC4/BLE_eventHandler.c ****             charRange.startHandle = cyBle_scpsc.refreshChar.valueHandle + 1u;
2286:.\Generated_Source\PSoC4/BLE_eventHandler.c ****             charRange.endHandle = cyBle_serverInfo[CYBLE_SRVI_SCPS].range.endHandle;
2287:.\Generated_Source\PSoC4/BLE_eventHandler.c ****         }
2288:.\Generated_Source\PSoC4/BLE_eventHandler.c ****     }
2289:.\Generated_Source\PSoC4/BLE_eventHandler.c **** #endif /* CYBLE_SCPS_CLIENT */
2290:.\Generated_Source\PSoC4/BLE_eventHandler.c **** #ifdef CYBLE_TPS_CLIENT
2291:.\Generated_Source\PSoC4/BLE_eventHandler.c ****     if(cyBle_disCount == (uint8) CYBLE_SCDI_TPS_TX_PWR_LEVEL)
2292:.\Generated_Source\PSoC4/BLE_eventHandler.c ****     {
2293:.\Generated_Source\PSoC4/BLE_eventHandler.c ****         if(cyBle_tpsc.txPowerLevelChar.valueHandle != CYBLE_GATT_INVALID_ATTR_HANDLE_VALUE)
2294:.\Generated_Source\PSoC4/BLE_eventHandler.c ****         {
2295:.\Generated_Source\PSoC4/BLE_eventHandler.c ****             /* One descriptor is available per service */
2296:.\Generated_Source\PSoC4/BLE_eventHandler.c ****             charRange.startHandle = cyBle_tpsc.txPowerLevelChar.valueHandle + 1u;
2297:.\Generated_Source\PSoC4/BLE_eventHandler.c ****             charRange.endHandle = cyBle_serverInfo[CYBLE_SRVI_TPS].range.endHandle;
2298:.\Generated_Source\PSoC4/BLE_eventHandler.c ****         }
2299:.\Generated_Source\PSoC4/BLE_eventHandler.c ****     }
2300:.\Generated_Source\PSoC4/BLE_eventHandler.c **** #endif /* CYBLE_TPS_CLIENT */
2301:.\Generated_Source\PSoC4/BLE_eventHandler.c **** #ifdef CYBLE_UDS_CLIENT
2302:.\Generated_Source\PSoC4/BLE_eventHandler.c ****     if((cyBle_disCount == (uint8) CYBLE_SRVI_UDS_DCI) || (cyBle_disCount == (uint8) CYBLE_SRVI_UDS_
2303:.\Generated_Source\PSoC4/BLE_eventHandler.c ****     {
2304:.\Generated_Source\PSoC4/BLE_eventHandler.c ****         uint8 charIdx;
2305:.\Generated_Source\PSoC4/BLE_eventHandler.c ****         if(cyBle_disCount == (uint8) CYBLE_SRVI_UDS_DCI)
2306:.\Generated_Source\PSoC4/BLE_eventHandler.c ****         {
ARM GAS  C:\Users\Zachary\AppData\Local\Temp\ccmvMQUz.s 			page 87


2307:.\Generated_Source\PSoC4/BLE_eventHandler.c ****             charIdx = CYBLE_UDS_DCI;
2308:.\Generated_Source\PSoC4/BLE_eventHandler.c ****         }
2309:.\Generated_Source\PSoC4/BLE_eventHandler.c ****         else
2310:.\Generated_Source\PSoC4/BLE_eventHandler.c ****         {
2311:.\Generated_Source\PSoC4/BLE_eventHandler.c ****             charIdx = CYBLE_UDS_UCP;
2312:.\Generated_Source\PSoC4/BLE_eventHandler.c ****         }
2313:.\Generated_Source\PSoC4/BLE_eventHandler.c ****         
2314:.\Generated_Source\PSoC4/BLE_eventHandler.c ****         charRange.startHandle = cyBle_udsc.charInfo[charIdx].valueHandle + 1u;
2315:.\Generated_Source\PSoC4/BLE_eventHandler.c ****         charRange.endHandle = cyBle_udsc.charInfo[charIdx].endHandle;
2316:.\Generated_Source\PSoC4/BLE_eventHandler.c ****     }
2317:.\Generated_Source\PSoC4/BLE_eventHandler.c **** #endif /* CYBLE_UDS_CLIENT */
2318:.\Generated_Source\PSoC4/BLE_eventHandler.c **** 
2319:.\Generated_Source\PSoC4/BLE_eventHandler.c ****     return (charRange);
 2551              		.loc 1 2319 0
 2552 002e 3B1D     		add	r3, r7, #4
 2553 0030 3A1C     		mov	r2, r7
 2554 0032 1268     		ldr	r2, [r2]
 2555 0034 1A60     		str	r2, [r3]
 2556 0036 3A1D     		add	r2, r7, #4
 2557 0038 0023     		mov	r3, #0
 2558 003a 1188     		ldrh	r1, [r2]
 2559 003c 0904     		lsl	r1, r1, #16
 2560 003e 090C     		lsr	r1, r1, #16
 2561 0040 1B0C     		lsr	r3, r3, #16
 2562 0042 1B04     		lsl	r3, r3, #16
 2563 0044 0B43     		orr	r3, r1
 2564 0046 5288     		ldrh	r2, [r2, #2]
 2565 0048 1204     		lsl	r2, r2, #16
 2566 004a 1B04     		lsl	r3, r3, #16
 2567 004c 1B0C     		lsr	r3, r3, #16
 2568 004e 1343     		orr	r3, r2
2320:.\Generated_Source\PSoC4/BLE_eventHandler.c **** }
 2569              		.loc 1 2320 0
 2570 0050 181C     		mov	r0, r3
 2571 0052 BD46     		mov	sp, r7
 2572 0054 02B0     		add	sp, sp, #8
 2573              		@ sp needed
 2574 0056 80BD     		pop	{r7, pc}
 2575              	.L182:
 2576              		.align	2
 2577              	.L181:
 2578 0058 00000000 		.word	cyBle_disCount
 2579 005c 00000000 		.word	cyBle_gattc
 2580 0060 00000000 		.word	cyBle_serverInfo
 2581              		.cfi_endproc
 2582              	.LFE18:
 2583              		.size	CyBle_GetCharRange, .-CyBle_GetCharRange
 2584              		.section	.text.CyBle_FindInfoEventHandler,"ax",%progbits
 2585              		.align	2
 2586              		.global	CyBle_FindInfoEventHandler
 2587              		.code	16
 2588              		.thumb_func
 2589              		.type	CyBle_FindInfoEventHandler, %function
 2590              	CyBle_FindInfoEventHandler:
 2591              	.LFB19:
2321:.\Generated_Source\PSoC4/BLE_eventHandler.c **** 
2322:.\Generated_Source\PSoC4/BLE_eventHandler.c **** 
ARM GAS  C:\Users\Zachary\AppData\Local\Temp\ccmvMQUz.s 			page 88


2323:.\Generated_Source\PSoC4/BLE_eventHandler.c **** /****************************************************************************** 
2324:.\Generated_Source\PSoC4/BLE_eventHandler.c **** ##Function Name: CyBle_FindInfoEventHandler
2325:.\Generated_Source\PSoC4/BLE_eventHandler.c **** *******************************************************************************
2326:.\Generated_Source\PSoC4/BLE_eventHandler.c **** Summary:
2327:.\Generated_Source\PSoC4/BLE_eventHandler.c ****  Handles the Find Info Response Event during an automatic server discovery
2328:.\Generated_Source\PSoC4/BLE_eventHandler.c ****  process.
2329:.\Generated_Source\PSoC4/BLE_eventHandler.c **** 
2330:.\Generated_Source\PSoC4/BLE_eventHandler.c **** Parameters:
2331:.\Generated_Source\PSoC4/BLE_eventHandler.c ****  CYBLE_GATT_FIND_INFO_RSP_PARAM_T *eventParam:  the event parameters for a Find Info Response
2332:.\Generated_Source\PSoC4/BLE_eventHandler.c **** 
2333:.\Generated_Source\PSoC4/BLE_eventHandler.c **** Return:
2334:.\Generated_Source\PSoC4/BLE_eventHandler.c ****  None.
2335:.\Generated_Source\PSoC4/BLE_eventHandler.c **** 
2336:.\Generated_Source\PSoC4/BLE_eventHandler.c **** ******************************************************************************/
2337:.\Generated_Source\PSoC4/BLE_eventHandler.c **** void CyBle_FindInfoEventHandler(CYBLE_GATTC_FIND_INFO_RSP_PARAM_T *eventParam)
2338:.\Generated_Source\PSoC4/BLE_eventHandler.c **** {
 2592              		.loc 1 2338 0
 2593              		.cfi_startproc
 2594 0000 80B5     		push	{r7, lr}
 2595              		.cfi_def_cfa_offset 8
 2596              		.cfi_offset 7, -8
 2597              		.cfi_offset 14, -4
 2598 0002 8AB0     		sub	sp, sp, #40
 2599              		.cfi_def_cfa_offset 48
 2600 0004 00AF     		add	r7, sp, #0
 2601              		.cfi_def_cfa_register 7
 2602 0006 7860     		str	r0, [r7, #4]
2339:.\Generated_Source\PSoC4/BLE_eventHandler.c ****     uint16 dataLength;
2340:.\Generated_Source\PSoC4/BLE_eventHandler.c ****     uint16 attrLength;
2341:.\Generated_Source\PSoC4/BLE_eventHandler.c ****     uint16 i;
2342:.\Generated_Source\PSoC4/BLE_eventHandler.c ****     uint8 *attrVal;
2343:.\Generated_Source\PSoC4/BLE_eventHandler.c **** 
2344:.\Generated_Source\PSoC4/BLE_eventHandler.c ****     /* Discovery descriptor information */
2345:.\Generated_Source\PSoC4/BLE_eventHandler.c ****     CYBLE_DISC_DESCR_INFO_T discDescrInfo;
2346:.\Generated_Source\PSoC4/BLE_eventHandler.c ****     discDescrInfo.descrHandle = CYBLE_GATT_INVALID_ATTR_HANDLE_VALUE;
 2603              		.loc 1 2346 0
 2604 0008 3B1C     		mov	r3, r7
 2605 000a 0833     		add	r3, r3, #8
 2606 000c 0022     		mov	r2, #0
 2607 000e 5A80     		strh	r2, [r3, #2]
2347:.\Generated_Source\PSoC4/BLE_eventHandler.c **** 
2348:.\Generated_Source\PSoC4/BLE_eventHandler.c ****     if((CYBLE_CLIENT_STATE_DESCR_DISCOVERING == CyBle_GetClientState()) 
 2608              		.loc 1 2348 0
 2609 0010 5A4B     		ldr	r3, .L197
 2610 0012 1B78     		ldrb	r3, [r3]
 2611 0014 042B     		cmp	r3, #4
 2612 0016 00D0     		beq	.LCB2261
 2613 0018 ADE0     		b	.L183	@long jump
 2614              	.LCB2261:
2349:.\Generated_Source\PSoC4/BLE_eventHandler.c ****             && (0u != (cyBle_eventHandlerFlag & CYBLE_AUTO_DISCOVERY)))
 2615              		.loc 1 2349 0
 2616 001a 594B     		ldr	r3, .L197+4
 2617 001c 1B78     		ldrb	r3, [r3]
 2618 001e DBB2     		uxtb	r3, r3
 2619 0020 1A1C     		mov	r2, r3
 2620 0022 0223     		mov	r3, #2
 2621 0024 1340     		and	r3, r2
ARM GAS  C:\Users\Zachary\AppData\Local\Temp\ccmvMQUz.s 			page 89


 2622 0026 00D1     		bne	.LCB2269
 2623 0028 A5E0     		b	.L183	@long jump
 2624              	.LCB2269:
2350:.\Generated_Source\PSoC4/BLE_eventHandler.c ****     {
2351:.\Generated_Source\PSoC4/BLE_eventHandler.c ****         attrLength = eventParam->handleValueList.byteCount;    /* Number of elements on list in byt
 2625              		.loc 1 2351 0
 2626 002a 3B1C     		mov	r3, r7
 2627 002c 1E33     		add	r3, r3, #30
 2628 002e 7A68     		ldr	r2, [r7, #4]
 2629 0030 1289     		ldrh	r2, [r2, #8]
 2630 0032 1A80     		strh	r2, [r3]
2352:.\Generated_Source\PSoC4/BLE_eventHandler.c ****         discDescrInfo.uuidFormat = eventParam->uuidFormat;
 2631              		.loc 1 2352 0
 2632 0034 7B68     		ldr	r3, [r7, #4]
 2633 0036 1A7B     		ldrb	r2, [r3, #12]
 2634 0038 3B1C     		mov	r3, r7
 2635 003a 0833     		add	r3, r3, #8
 2636 003c 1A75     		strb	r2, [r3, #20]
2353:.\Generated_Source\PSoC4/BLE_eventHandler.c ****         discDescrInfo.connHandle = eventParam->connHandle;
 2637              		.loc 1 2353 0
 2638 003e 3B1C     		mov	r3, r7
 2639 0040 0833     		add	r3, r3, #8
 2640 0042 7A68     		ldr	r2, [r7, #4]
 2641 0044 1288     		ldrh	r2, [r2]
 2642 0046 1A80     		strh	r2, [r3]
2354:.\Generated_Source\PSoC4/BLE_eventHandler.c **** 
2355:.\Generated_Source\PSoC4/BLE_eventHandler.c ****         if(discDescrInfo.uuidFormat == CYBLE_GATT_16_BIT_UUID_FORMAT)
 2643              		.loc 1 2355 0
 2644 0048 3B1C     		mov	r3, r7
 2645 004a 0833     		add	r3, r3, #8
 2646 004c 1B7D     		ldrb	r3, [r3, #20]
 2647 004e 012B     		cmp	r3, #1
 2648 0050 04D1     		bne	.L185
2356:.\Generated_Source\PSoC4/BLE_eventHandler.c ****         {
2357:.\Generated_Source\PSoC4/BLE_eventHandler.c ****             dataLength = CYBLE_DB_ATTR_HANDLE_LEN + CYBLE_GATT_16_BIT_UUID_SIZE;
 2649              		.loc 1 2357 0
 2650 0052 3B1C     		mov	r3, r7
 2651 0054 2633     		add	r3, r3, #38
 2652 0056 0422     		mov	r2, #4
 2653 0058 1A80     		strh	r2, [r3]
 2654 005a 03E0     		b	.L186
 2655              	.L185:
2358:.\Generated_Source\PSoC4/BLE_eventHandler.c ****         }
2359:.\Generated_Source\PSoC4/BLE_eventHandler.c ****         else
2360:.\Generated_Source\PSoC4/BLE_eventHandler.c ****         {
2361:.\Generated_Source\PSoC4/BLE_eventHandler.c ****             dataLength = CYBLE_DB_ATTR_HANDLE_LEN + CYBLE_GATT_128_BIT_UUID_SIZE;
 2656              		.loc 1 2361 0
 2657 005c 3B1C     		mov	r3, r7
 2658 005e 2633     		add	r3, r3, #38
 2659 0060 1222     		mov	r2, #18
 2660 0062 1A80     		strh	r2, [r3]
 2661              	.L186:
2362:.\Generated_Source\PSoC4/BLE_eventHandler.c ****         }
2363:.\Generated_Source\PSoC4/BLE_eventHandler.c ****         attrVal = eventParam->handleValueList.list;
 2662              		.loc 1 2363 0
 2663 0064 7B68     		ldr	r3, [r7, #4]
 2664 0066 5B68     		ldr	r3, [r3, #4]
ARM GAS  C:\Users\Zachary\AppData\Local\Temp\ccmvMQUz.s 			page 90


 2665 0068 3B62     		str	r3, [r7, #32]
2364:.\Generated_Source\PSoC4/BLE_eventHandler.c **** 
2365:.\Generated_Source\PSoC4/BLE_eventHandler.c ****         for(i = 0u; i < attrLength; i += dataLength)
 2666              		.loc 1 2365 0
 2667 006a 3B1C     		mov	r3, r7
 2668 006c 2433     		add	r3, r3, #36
 2669 006e 0022     		mov	r2, #0
 2670 0070 1A80     		strh	r2, [r3]
 2671 0072 3EE0     		b	.L187
 2672              	.L190:
2366:.\Generated_Source\PSoC4/BLE_eventHandler.c ****         {
2367:.\Generated_Source\PSoC4/BLE_eventHandler.c ****             discDescrInfo.descrHandle = CyBle_Get16ByPtr(attrVal);
 2673              		.loc 1 2367 0
 2674 0074 3B6A     		ldr	r3, [r7, #32]
 2675 0076 181C     		mov	r0, r3
 2676 0078 FFF7FEFF 		bl	CyBle_Get16ByPtr
 2677 007c 031C     		mov	r3, r0
 2678 007e 1A1C     		mov	r2, r3
 2679 0080 3B1C     		mov	r3, r7
 2680 0082 0833     		add	r3, r3, #8
 2681 0084 5A80     		strh	r2, [r3, #2]
2368:.\Generated_Source\PSoC4/BLE_eventHandler.c ****             attrVal += CYBLE_DB_ATTR_HANDLE_LEN;
 2682              		.loc 1 2368 0
 2683 0086 3B6A     		ldr	r3, [r7, #32]
 2684 0088 0233     		add	r3, r3, #2
 2685 008a 3B62     		str	r3, [r7, #32]
2369:.\Generated_Source\PSoC4/BLE_eventHandler.c ****             if(discDescrInfo.uuidFormat == CYBLE_GATT_128_BIT_UUID_FORMAT)
 2686              		.loc 1 2369 0
 2687 008c 3B1C     		mov	r3, r7
 2688 008e 0833     		add	r3, r3, #8
 2689 0090 1B7D     		ldrb	r3, [r3, #20]
 2690 0092 022B     		cmp	r3, #2
 2691 0094 0ED1     		bne	.L188
2370:.\Generated_Source\PSoC4/BLE_eventHandler.c ****             {
2371:.\Generated_Source\PSoC4/BLE_eventHandler.c ****                 (void)memcpy(&discDescrInfo.uuid.uuid128, attrVal, CYBLE_GATT_128_BIT_UUID_SIZE);
 2692              		.loc 1 2371 0
 2693 0096 3A1C     		mov	r2, r7
 2694 0098 0C32     		add	r2, r2, #12
 2695 009a 3B6A     		ldr	r3, [r7, #32]
 2696 009c 111C     		mov	r1, r2
 2697 009e 1A1C     		mov	r2, r3
 2698 00a0 1023     		mov	r3, #16
 2699 00a2 081C     		mov	r0, r1
 2700 00a4 111C     		mov	r1, r2
 2701 00a6 1A1C     		mov	r2, r3
 2702 00a8 FFF7FEFF 		bl	memcpy
2372:.\Generated_Source\PSoC4/BLE_eventHandler.c ****                 attrVal += CYBLE_GATT_128_BIT_UUID_SIZE;
 2703              		.loc 1 2372 0
 2704 00ac 3B6A     		ldr	r3, [r7, #32]
 2705 00ae 1033     		add	r3, r3, #16
 2706 00b0 3B62     		str	r3, [r7, #32]
 2707 00b2 14E0     		b	.L189
 2708              	.L188:
2373:.\Generated_Source\PSoC4/BLE_eventHandler.c ****                 /* Add custom profile support */
2374:.\Generated_Source\PSoC4/BLE_eventHandler.c ****             }
2375:.\Generated_Source\PSoC4/BLE_eventHandler.c ****             else
2376:.\Generated_Source\PSoC4/BLE_eventHandler.c ****             {
ARM GAS  C:\Users\Zachary\AppData\Local\Temp\ccmvMQUz.s 			page 91


2377:.\Generated_Source\PSoC4/BLE_eventHandler.c ****                 discDescrInfo.uuid.uuid16 = CyBle_Get16ByPtr(attrVal);
 2709              		.loc 1 2377 0
 2710 00b4 3B6A     		ldr	r3, [r7, #32]
 2711 00b6 181C     		mov	r0, r3
 2712 00b8 FFF7FEFF 		bl	CyBle_Get16ByPtr
 2713 00bc 031C     		mov	r3, r0
 2714 00be 1A1C     		mov	r2, r3
 2715 00c0 3B1C     		mov	r3, r7
 2716 00c2 0833     		add	r3, r3, #8
 2717 00c4 9A80     		strh	r2, [r3, #4]
2378:.\Generated_Source\PSoC4/BLE_eventHandler.c ****                 attrVal += CYBLE_GATT_16_BIT_UUID_SIZE;
 2718              		.loc 1 2378 0
 2719 00c6 3B6A     		ldr	r3, [r7, #32]
 2720 00c8 0233     		add	r3, r3, #2
 2721 00ca 3B62     		str	r3, [r7, #32]
2379:.\Generated_Source\PSoC4/BLE_eventHandler.c ****                 
2380:.\Generated_Source\PSoC4/BLE_eventHandler.c ****                 if(cyBle_disCount == (uint8) CYBLE_SCDI_GATT_SERVICE_CHANGED)
 2722              		.loc 1 2380 0
 2723 00cc 2D4B     		ldr	r3, .L197+8
 2724 00ce 1B78     		ldrb	r3, [r3]
 2725 00d0 002B     		cmp	r3, #0
 2726 00d2 04D1     		bne	.L189
2381:.\Generated_Source\PSoC4/BLE_eventHandler.c ****                 {
2382:.\Generated_Source\PSoC4/BLE_eventHandler.c ****                     CyBle_GattcDiscoverCharDescriptorsEventHandler(&discDescrInfo);
 2727              		.loc 1 2382 0
 2728 00d4 3B1C     		mov	r3, r7
 2729 00d6 0833     		add	r3, r3, #8
 2730 00d8 181C     		mov	r0, r3
 2731 00da FFF7FEFF 		bl	CyBle_GattcDiscoverCharDescriptorsEventHandler
 2732              	.L189:
2365:.\Generated_Source\PSoC4/BLE_eventHandler.c ****         for(i = 0u; i < attrLength; i += dataLength)
 2733              		.loc 1 2365 0
 2734 00de 3B1C     		mov	r3, r7
 2735 00e0 2433     		add	r3, r3, #36
 2736 00e2 391C     		mov	r1, r7
 2737 00e4 2431     		add	r1, r1, #36
 2738 00e6 3A1C     		mov	r2, r7
 2739 00e8 2632     		add	r2, r2, #38
 2740 00ea 0988     		ldrh	r1, [r1]
 2741 00ec 1288     		ldrh	r2, [r2]
 2742 00ee 8A18     		add	r2, r1, r2
 2743 00f0 1A80     		strh	r2, [r3]
 2744              	.L187:
2365:.\Generated_Source\PSoC4/BLE_eventHandler.c ****         for(i = 0u; i < attrLength; i += dataLength)
 2745              		.loc 1 2365 0 is_stmt 0 discriminator 1
 2746 00f2 3A1C     		mov	r2, r7
 2747 00f4 2432     		add	r2, r2, #36
 2748 00f6 3B1C     		mov	r3, r7
 2749 00f8 1E33     		add	r3, r3, #30
 2750 00fa 1288     		ldrh	r2, [r2]
 2751 00fc 1B88     		ldrh	r3, [r3]
 2752 00fe 9A42     		cmp	r2, r3
 2753 0100 B8D3     		bcc	.L190
2383:.\Generated_Source\PSoC4/BLE_eventHandler.c ****                 }
2384:.\Generated_Source\PSoC4/BLE_eventHandler.c ****                 
2385:.\Generated_Source\PSoC4/BLE_eventHandler.c ****                 #ifdef CYBLE_ANS_CLIENT
2386:.\Generated_Source\PSoC4/BLE_eventHandler.c ****                     if((cyBle_disCount >= (uint8) CYBLE_SCDI_ANS_SUPPORTED_NEW_ALERT_CAT) &&
ARM GAS  C:\Users\Zachary\AppData\Local\Temp\ccmvMQUz.s 			page 92


2387:.\Generated_Source\PSoC4/BLE_eventHandler.c ****                         (cyBle_disCount <= (uint8) CYBLE_SCDI_ANS_ALERT_NTF_CONTROL_POINT))
2388:.\Generated_Source\PSoC4/BLE_eventHandler.c ****                     {
2389:.\Generated_Source\PSoC4/BLE_eventHandler.c ****                         CyBle_AnscDiscoverCharDescriptorsEventHandler(&discDescrInfo);
2390:.\Generated_Source\PSoC4/BLE_eventHandler.c ****                     }
2391:.\Generated_Source\PSoC4/BLE_eventHandler.c ****                 #endif /* CYBLE_ANS_CLIENT */
2392:.\Generated_Source\PSoC4/BLE_eventHandler.c ****                 
2393:.\Generated_Source\PSoC4/BLE_eventHandler.c ****                 #ifdef CYBLE_BAS_CLIENT
2394:.\Generated_Source\PSoC4/BLE_eventHandler.c ****                     if((cyBle_disCount >= (uint8) CYBLE_SCDI_BAS_LEVEL) &&
2395:.\Generated_Source\PSoC4/BLE_eventHandler.c ****                         (cyBle_disCount <= (uint8)CYBLE_SCDI_BAS_LEVEL_END))
2396:.\Generated_Source\PSoC4/BLE_eventHandler.c ****                     {
2397:.\Generated_Source\PSoC4/BLE_eventHandler.c ****                         CyBle_BascDiscoverCharDescriptorsEventHandler(cyBle_disCount - CYBLE_SCDI_B
2398:.\Generated_Source\PSoC4/BLE_eventHandler.c ****                                                                       &discDescrInfo);
2399:.\Generated_Source\PSoC4/BLE_eventHandler.c ****                     }
2400:.\Generated_Source\PSoC4/BLE_eventHandler.c ****                 #endif /* CYBLE_BAS_CLIENT */
2401:.\Generated_Source\PSoC4/BLE_eventHandler.c ****                 
2402:.\Generated_Source\PSoC4/BLE_eventHandler.c ****                 #ifdef CYBLE_BLS_CLIENT
2403:.\Generated_Source\PSoC4/BLE_eventHandler.c ****                     if((cyBle_disCount == (uint8) CYBLE_SCDI_BLS_BPM) || (cyBle_disCount == (uint8)
2404:.\Generated_Source\PSoC4/BLE_eventHandler.c ****                     {
2405:.\Generated_Source\PSoC4/BLE_eventHandler.c ****                         CyBle_BlscDiscoverCharDescriptorsEventHandler(&discDescrInfo);
2406:.\Generated_Source\PSoC4/BLE_eventHandler.c ****                     }
2407:.\Generated_Source\PSoC4/BLE_eventHandler.c ****                 #endif /* CYBLE_BLS_CLIENT */
2408:.\Generated_Source\PSoC4/BLE_eventHandler.c **** 
2409:.\Generated_Source\PSoC4/BLE_eventHandler.c ****                 #ifdef CYBLE_CPS_CLIENT
2410:.\Generated_Source\PSoC4/BLE_eventHandler.c ****                     if((cyBle_disCount >= (uint8) CYBLE_SCDI_CPS_POWER_MEASURE) &&
2411:.\Generated_Source\PSoC4/BLE_eventHandler.c ****                         (cyBle_disCount <= (uint8)CYBLE_SCDI_CPS_POWER_CP))
2412:.\Generated_Source\PSoC4/BLE_eventHandler.c ****                     {
2413:.\Generated_Source\PSoC4/BLE_eventHandler.c ****                         uint8 charIdx = cyBle_disCount - CYBLE_SCDI_CPS_POWER_MEASURE;
2414:.\Generated_Source\PSoC4/BLE_eventHandler.c ****                         CyBle_CpscDiscoverCharDescriptorsEventHandler((CYBLE_CPS_CHAR_INDEX_T)charI
2415:.\Generated_Source\PSoC4/BLE_eventHandler.c ****                     }
2416:.\Generated_Source\PSoC4/BLE_eventHandler.c ****                 #endif /* CYBLE_CPS_CLIENT */
2417:.\Generated_Source\PSoC4/BLE_eventHandler.c **** 
2418:.\Generated_Source\PSoC4/BLE_eventHandler.c ****                 #ifdef CYBLE_CSCS_CLIENT
2419:.\Generated_Source\PSoC4/BLE_eventHandler.c ****                     if((cyBle_disCount >= (uint8) CYBLE_SCDI_CSCS_CSC_MEASUREMENT) && 
2420:.\Generated_Source\PSoC4/BLE_eventHandler.c ****                        (cyBle_disCount <= (uint8) CYBLE_SCDI_CSCS_SC_CONTROL_POINT))
2421:.\Generated_Source\PSoC4/BLE_eventHandler.c ****                     {
2422:.\Generated_Source\PSoC4/BLE_eventHandler.c ****                         if(cyBle_disCount == (uint8) CYBLE_SCDI_CSCS_CSC_MEASUREMENT)
2423:.\Generated_Source\PSoC4/BLE_eventHandler.c ****                         {
2424:.\Generated_Source\PSoC4/BLE_eventHandler.c ****                             /* The CCC descriptor of CSC Measurement is currently discovering */
2425:.\Generated_Source\PSoC4/BLE_eventHandler.c ****                             CyBle_CscscDiscoverCharDescriptorsEventHandler(CYBLE_CSCS_CSC_MEASUREME
2426:.\Generated_Source\PSoC4/BLE_eventHandler.c ****                         }
2427:.\Generated_Source\PSoC4/BLE_eventHandler.c ****                         else if(cyBle_disCount == (uint8) CYBLE_SCDI_CSCS_SC_CONTROL_POINT)
2428:.\Generated_Source\PSoC4/BLE_eventHandler.c ****                         {
2429:.\Generated_Source\PSoC4/BLE_eventHandler.c ****                             /* The CCC descriptor of SC Control Point is currently discovering */
2430:.\Generated_Source\PSoC4/BLE_eventHandler.c ****                             CyBle_CscscDiscoverCharDescriptorsEventHandler(CYBLE_CSCS_SC_CONTROL_PO
2431:.\Generated_Source\PSoC4/BLE_eventHandler.c ****                         }
2432:.\Generated_Source\PSoC4/BLE_eventHandler.c ****                         else
2433:.\Generated_Source\PSoC4/BLE_eventHandler.c ****                         {
2434:.\Generated_Source\PSoC4/BLE_eventHandler.c ****                             /* No other descriptors are present for CSCS */
2435:.\Generated_Source\PSoC4/BLE_eventHandler.c ****                         }
2436:.\Generated_Source\PSoC4/BLE_eventHandler.c ****                     }
2437:.\Generated_Source\PSoC4/BLE_eventHandler.c ****                 #endif /* CYBLE_CSCS_CLIENT */
2438:.\Generated_Source\PSoC4/BLE_eventHandler.c ****                 
2439:.\Generated_Source\PSoC4/BLE_eventHandler.c ****                 #ifdef CYBLE_CTS_CLIENT
2440:.\Generated_Source\PSoC4/BLE_eventHandler.c ****                     if(cyBle_disCount == (uint8) CYBLE_SCDI_CTS_CURRENT_TIME)
2441:.\Generated_Source\PSoC4/BLE_eventHandler.c ****                     {
2442:.\Generated_Source\PSoC4/BLE_eventHandler.c ****                         CyBle_CtscDiscoverCharDescriptorsEventHandler(&discDescrInfo);
2443:.\Generated_Source\PSoC4/BLE_eventHandler.c ****                     }
ARM GAS  C:\Users\Zachary\AppData\Local\Temp\ccmvMQUz.s 			page 93


2444:.\Generated_Source\PSoC4/BLE_eventHandler.c ****                 #endif /* CYBLE_CTS_CLIENT */
2445:.\Generated_Source\PSoC4/BLE_eventHandler.c ****                 
2446:.\Generated_Source\PSoC4/BLE_eventHandler.c ****                 #ifdef CYBLE_GLS_CLIENT
2447:.\Generated_Source\PSoC4/BLE_eventHandler.c ****                     if((cyBle_disCount >= (uint8) CYBLE_SCDI_GLS_GLMT) &&
2448:.\Generated_Source\PSoC4/BLE_eventHandler.c ****                         (cyBle_disCount <= (uint8) CYBLE_SCDI_GLS_RACP))
2449:.\Generated_Source\PSoC4/BLE_eventHandler.c ****                     {
2450:.\Generated_Source\PSoC4/BLE_eventHandler.c ****                         CyBle_GlscDiscoverCharDescriptorsEventHandler(&discDescrInfo);
2451:.\Generated_Source\PSoC4/BLE_eventHandler.c ****                     }
2452:.\Generated_Source\PSoC4/BLE_eventHandler.c ****                 #endif /* CYBLE_GLS_CLIENT */
2453:.\Generated_Source\PSoC4/BLE_eventHandler.c **** 
2454:.\Generated_Source\PSoC4/BLE_eventHandler.c ****                 #ifdef CYBLE_HIDS_CLIENT
2455:.\Generated_Source\PSoC4/BLE_eventHandler.c ****                     if((cyBle_disCount >= (uint8) CYBLE_SCDI_HIDS_REPORT_MAP) &&
2456:.\Generated_Source\PSoC4/BLE_eventHandler.c ****                         (cyBle_disCount <= (uint8) CYBLE_SCDI_HIDS_REPORT_END))
2457:.\Generated_Source\PSoC4/BLE_eventHandler.c ****                     {
2458:.\Generated_Source\PSoC4/BLE_eventHandler.c ****                         CyBle_HidscDiscoverCharDescriptorsEventHandler(disServiceIndex, cyBle_disCo
2459:.\Generated_Source\PSoC4/BLE_eventHandler.c ****                     }
2460:.\Generated_Source\PSoC4/BLE_eventHandler.c ****                 #endif /* CYBLE_HIDS_CLIENT */
2461:.\Generated_Source\PSoC4/BLE_eventHandler.c **** 
2462:.\Generated_Source\PSoC4/BLE_eventHandler.c ****                 #ifdef CYBLE_HRS_CLIENT
2463:.\Generated_Source\PSoC4/BLE_eventHandler.c ****                     if(cyBle_disCount == (uint8) CYBLE_SCDI_HRS_HRM)
2464:.\Generated_Source\PSoC4/BLE_eventHandler.c ****                     {
2465:.\Generated_Source\PSoC4/BLE_eventHandler.c ****                         CyBle_HrscDiscoverCharDescriptorsEventHandler(&discDescrInfo);
2466:.\Generated_Source\PSoC4/BLE_eventHandler.c ****                     }
2467:.\Generated_Source\PSoC4/BLE_eventHandler.c ****                 #endif /* CYBLE_HRS_CLIENT */
2468:.\Generated_Source\PSoC4/BLE_eventHandler.c **** 
2469:.\Generated_Source\PSoC4/BLE_eventHandler.c ****                 #ifdef CYBLE_HTS_CLIENT
2470:.\Generated_Source\PSoC4/BLE_eventHandler.c ****                     if((cyBle_disCount >= (uint8) CYBLE_SCDI_HTS_TEMP_MEASURE) && 
2471:.\Generated_Source\PSoC4/BLE_eventHandler.c ****                        (cyBle_disCount <= (uint8) CYBLE_SCDI_HTS_MEASURE_INTERVAL))
2472:.\Generated_Source\PSoC4/BLE_eventHandler.c ****                     {
2473:.\Generated_Source\PSoC4/BLE_eventHandler.c ****                         uint8 charIdx = cyBle_disCount - CYBLE_SCDI_HTS_TEMP_MEASURE;
2474:.\Generated_Source\PSoC4/BLE_eventHandler.c ****                         CyBle_HtscDiscoverCharDescriptorsEventHandler((CYBLE_HTS_CHAR_INDEX_T)charI
2475:.\Generated_Source\PSoC4/BLE_eventHandler.c ****                     }
2476:.\Generated_Source\PSoC4/BLE_eventHandler.c ****                 #endif /* CYBLE_HTS_CLIENT */
2477:.\Generated_Source\PSoC4/BLE_eventHandler.c ****                 
2478:.\Generated_Source\PSoC4/BLE_eventHandler.c ****                 #ifdef CYBLE_LNS_CLIENT
2479:.\Generated_Source\PSoC4/BLE_eventHandler.c ****                     if((cyBle_disCount >= (uint8) CYBLE_SCDI_LNS_LS) && 
2480:.\Generated_Source\PSoC4/BLE_eventHandler.c ****                        (cyBle_disCount <= (uint8) CYBLE_SCDI_LNS_NV))
2481:.\Generated_Source\PSoC4/BLE_eventHandler.c ****                     {
2482:.\Generated_Source\PSoC4/BLE_eventHandler.c ****                         CyBle_LnscDiscoverCharDescriptorsEventHandler(&discDescrInfo);
2483:.\Generated_Source\PSoC4/BLE_eventHandler.c ****                     }
2484:.\Generated_Source\PSoC4/BLE_eventHandler.c ****                 #endif /* CYBLE_LNS_CLIENT */
2485:.\Generated_Source\PSoC4/BLE_eventHandler.c ****                 
2486:.\Generated_Source\PSoC4/BLE_eventHandler.c ****                 #ifdef CYBLE_PASS_CLIENT
2487:.\Generated_Source\PSoC4/BLE_eventHandler.c ****                     if((cyBle_disCount == (uint8) CYBLE_SCDI_PASS_AS) || 
2488:.\Generated_Source\PSoC4/BLE_eventHandler.c ****                         (cyBle_disCount == (uint8) CYBLE_SCDI_PASS_RS))
2489:.\Generated_Source\PSoC4/BLE_eventHandler.c ****                     {
2490:.\Generated_Source\PSoC4/BLE_eventHandler.c ****                         CyBle_PasscDiscoverCharDescriptorsEventHandler(&discDescrInfo);
2491:.\Generated_Source\PSoC4/BLE_eventHandler.c ****                     }
2492:.\Generated_Source\PSoC4/BLE_eventHandler.c ****                 #endif /* CYBLE_PASS_CLIENT */
2493:.\Generated_Source\PSoC4/BLE_eventHandler.c **** 
2494:.\Generated_Source\PSoC4/BLE_eventHandler.c ****                 #ifdef CYBLE_RSCS_CLIENT
2495:.\Generated_Source\PSoC4/BLE_eventHandler.c ****                     if((cyBle_disCount >= (uint8) CYBLE_SCDI_RSCS_RSC_MEASUREMENT) && 
2496:.\Generated_Source\PSoC4/BLE_eventHandler.c ****                        (cyBle_disCount <= (uint8) CYBLE_SCDI_RSCS_SC_CONTROL_POINT))
2497:.\Generated_Source\PSoC4/BLE_eventHandler.c ****                     {
2498:.\Generated_Source\PSoC4/BLE_eventHandler.c ****                         if(cyBle_disCount == (uint8) CYBLE_SCDI_RSCS_RSC_MEASUREMENT)
2499:.\Generated_Source\PSoC4/BLE_eventHandler.c ****                         {
2500:.\Generated_Source\PSoC4/BLE_eventHandler.c ****                             /* The CCC descriptor of RSC Measurement is currently discovering */
ARM GAS  C:\Users\Zachary\AppData\Local\Temp\ccmvMQUz.s 			page 94


2501:.\Generated_Source\PSoC4/BLE_eventHandler.c ****                             CyBle_RscscDiscoverCharDescriptorsEventHandler(CYBLE_RSCS_RSC_MEASUREME
2502:.\Generated_Source\PSoC4/BLE_eventHandler.c ****                         }
2503:.\Generated_Source\PSoC4/BLE_eventHandler.c ****                         else if(cyBle_disCount == (uint8) CYBLE_SCDI_RSCS_SC_CONTROL_POINT)
2504:.\Generated_Source\PSoC4/BLE_eventHandler.c ****                         {
2505:.\Generated_Source\PSoC4/BLE_eventHandler.c ****                             /* The CCC descriptor of SC Control Point is currently discovering */
2506:.\Generated_Source\PSoC4/BLE_eventHandler.c ****                             CyBle_RscscDiscoverCharDescriptorsEventHandler(CYBLE_RSCS_SC_CONTROL_PO
2507:.\Generated_Source\PSoC4/BLE_eventHandler.c ****                         }
2508:.\Generated_Source\PSoC4/BLE_eventHandler.c ****                         else
2509:.\Generated_Source\PSoC4/BLE_eventHandler.c ****                         {
2510:.\Generated_Source\PSoC4/BLE_eventHandler.c ****                             /* No other descriptors are present for RSCS */
2511:.\Generated_Source\PSoC4/BLE_eventHandler.c ****                         }
2512:.\Generated_Source\PSoC4/BLE_eventHandler.c ****                     }
2513:.\Generated_Source\PSoC4/BLE_eventHandler.c ****                 #endif /* CYBLE_RSCS_CLIENT */
2514:.\Generated_Source\PSoC4/BLE_eventHandler.c **** 
2515:.\Generated_Source\PSoC4/BLE_eventHandler.c ****                 #ifdef CYBLE_SCPS_CLIENT
2516:.\Generated_Source\PSoC4/BLE_eventHandler.c ****                     if(cyBle_disCount == (uint8) CYBLE_SCDI_SCPS_SCAN_REFRESH)
2517:.\Generated_Source\PSoC4/BLE_eventHandler.c ****                     {
2518:.\Generated_Source\PSoC4/BLE_eventHandler.c ****                         CyBle_ScpscDiscoverCharDescriptorsEventHandler(&discDescrInfo);
2519:.\Generated_Source\PSoC4/BLE_eventHandler.c ****                     }
2520:.\Generated_Source\PSoC4/BLE_eventHandler.c ****                 #endif /* CYBLE_SCPS_CLIENT */
2521:.\Generated_Source\PSoC4/BLE_eventHandler.c ****                 
2522:.\Generated_Source\PSoC4/BLE_eventHandler.c ****                 #ifdef CYBLE_TPS_CLIENT
2523:.\Generated_Source\PSoC4/BLE_eventHandler.c ****                     if(cyBle_disCount == (uint8) CYBLE_SCDI_TPS_TX_PWR_LEVEL)
2524:.\Generated_Source\PSoC4/BLE_eventHandler.c ****                     {
2525:.\Generated_Source\PSoC4/BLE_eventHandler.c ****                         CyBle_TpscDiscoverCharDescriptorsEventHandler(&discDescrInfo);
2526:.\Generated_Source\PSoC4/BLE_eventHandler.c ****                     }
2527:.\Generated_Source\PSoC4/BLE_eventHandler.c ****                 #endif /* CYBLE_TPS_CLIENT */
2528:.\Generated_Source\PSoC4/BLE_eventHandler.c ****                 
2529:.\Generated_Source\PSoC4/BLE_eventHandler.c ****                 #ifdef CYBLE_UDS_CLIENT
2530:.\Generated_Source\PSoC4/BLE_eventHandler.c ****                     if((cyBle_disCount == (uint8) CYBLE_SRVI_UDS_DCI) || 
2531:.\Generated_Source\PSoC4/BLE_eventHandler.c ****                         (cyBle_disCount == (uint8) CYBLE_SRVI_UDS_UCP))
2532:.\Generated_Source\PSoC4/BLE_eventHandler.c ****                     {
2533:.\Generated_Source\PSoC4/BLE_eventHandler.c ****                         CyBle_UdscDiscoverCharDescriptorsEventHandler(&discDescrInfo);
2534:.\Generated_Source\PSoC4/BLE_eventHandler.c ****                     }
2535:.\Generated_Source\PSoC4/BLE_eventHandler.c ****                 #endif /* CYBLE_UDS_CLIENT */
2536:.\Generated_Source\PSoC4/BLE_eventHandler.c ****             }
2537:.\Generated_Source\PSoC4/BLE_eventHandler.c ****         }
2538:.\Generated_Source\PSoC4/BLE_eventHandler.c ****         /* The sub-procedure is complete when an Error Response is received and the
2539:.\Generated_Source\PSoC4/BLE_eventHandler.c ****            Error Code is set to an Attribute Not Found or the Find Information Response has
2540:.\Generated_Source\PSoC4/BLE_eventHandler.c ****            an Attribute Handle that is equal to the Ending Handle of the request. */
2541:.\Generated_Source\PSoC4/BLE_eventHandler.c ****         if(discDescrInfo.descrHandle == cyBle_charEndHandle)
 2754              		.loc 1 2541 0 is_stmt 1
 2755 0102 3B1C     		mov	r3, r7
 2756 0104 0833     		add	r3, r3, #8
 2757 0106 5A88     		ldrh	r2, [r3, #2]
 2758 0108 1F4B     		ldr	r3, .L197+12
 2759 010a 1B88     		ldrh	r3, [r3]
 2760 010c 9A42     		cmp	r2, r3
 2761 010e 2AD1     		bne	.L191
2542:.\Generated_Source\PSoC4/BLE_eventHandler.c ****         {
2543:.\Generated_Source\PSoC4/BLE_eventHandler.c ****             #ifdef CYBLE_HIDS_CLIENT
2544:.\Generated_Source\PSoC4/BLE_eventHandler.c ****                 #if(CYBLE_HIDSC_SERVICE_COUNT > 1u) 
2545:.\Generated_Source\PSoC4/BLE_eventHandler.c ****                     if((cyBle_disCount == (uint8) CYBLE_SCDI_HIDS_REPORT_END) && 
2546:.\Generated_Source\PSoC4/BLE_eventHandler.c ****                         (disServiceIndex < (CYBLE_HIDSC_SERVICE_COUNT - 1u)))
2547:.\Generated_Source\PSoC4/BLE_eventHandler.c ****                     {
2548:.\Generated_Source\PSoC4/BLE_eventHandler.c ****                         disServiceIndex++;      /* Discover descriptors for next HID service */
2549:.\Generated_Source\PSoC4/BLE_eventHandler.c ****                         /* Set characteristic index to first characteristic of HID service */
ARM GAS  C:\Users\Zachary\AppData\Local\Temp\ccmvMQUz.s 			page 95


2550:.\Generated_Source\PSoC4/BLE_eventHandler.c ****                         cyBle_disCount = (uint8) CYBLE_SCDI_HIDS_REPORT_MAP;
2551:.\Generated_Source\PSoC4/BLE_eventHandler.c ****                     }
2552:.\Generated_Source\PSoC4/BLE_eventHandler.c ****                     else
2553:.\Generated_Source\PSoC4/BLE_eventHandler.c ****                     {
2554:.\Generated_Source\PSoC4/BLE_eventHandler.c ****                         cyBle_disCount++;
2555:.\Generated_Source\PSoC4/BLE_eventHandler.c ****                     }
2556:.\Generated_Source\PSoC4/BLE_eventHandler.c ****                 #else
2557:.\Generated_Source\PSoC4/BLE_eventHandler.c ****                     cyBle_disCount++;
2558:.\Generated_Source\PSoC4/BLE_eventHandler.c ****                 #endif /* CYBLE_HIDSC_SERVICE_COUNT > 1u) */
2559:.\Generated_Source\PSoC4/BLE_eventHandler.c ****             #else
2560:.\Generated_Source\PSoC4/BLE_eventHandler.c ****                 cyBle_disCount++;
 2762              		.loc 1 2560 0
 2763 0110 1C4B     		ldr	r3, .L197+8
 2764 0112 1B78     		ldrb	r3, [r3]
 2765 0114 0133     		add	r3, r3, #1
 2766 0116 DAB2     		uxtb	r2, r3
 2767 0118 1A4B     		ldr	r3, .L197+8
 2768 011a 1A70     		strb	r2, [r3]
2561:.\Generated_Source\PSoC4/BLE_eventHandler.c ****             #endif /* CYBLE_HIDS_CLIENT */
2562:.\Generated_Source\PSoC4/BLE_eventHandler.c ****             switch(CyBle_NextCharDscrDiscovery())
 2769              		.loc 1 2562 0
 2770 011c FFF7FEFF 		bl	CyBle_NextCharDscrDiscovery
 2771 0120 031C     		mov	r3, r0
 2772 0122 002B     		cmp	r3, #0
 2773 0124 1ED0     		beq	.L196
 2774 0126 8122     		mov	r2, #129
 2775 0128 5200     		lsl	r2, r2, #1
 2776 012a 9342     		cmp	r3, r2
 2777 012c 12D1     		bne	.L195
2563:.\Generated_Source\PSoC4/BLE_eventHandler.c ****             {
2564:.\Generated_Source\PSoC4/BLE_eventHandler.c ****             case CYBLE_ERROR_OK:
2565:.\Generated_Source\PSoC4/BLE_eventHandler.c ****                 break;
2566:.\Generated_Source\PSoC4/BLE_eventHandler.c **** 
2567:.\Generated_Source\PSoC4/BLE_eventHandler.c ****             case CYBLE_DESCR_DISC_DONE:
2568:.\Generated_Source\PSoC4/BLE_eventHandler.c ****                 CyBle_SetClientState(CYBLE_CLIENT_STATE_DISCOVERED);
 2778              		.loc 1 2568 0
 2779 012e 134B     		ldr	r3, .L197
 2780 0130 0522     		mov	r2, #5
 2781 0132 1A70     		strb	r2, [r3]
2569:.\Generated_Source\PSoC4/BLE_eventHandler.c ****                 CyBle_ApplCallback(CYBLE_EVT_GATTC_DISCOVERY_COMPLETE, NULL);
 2782              		.loc 1 2569 0
 2783 0134 154B     		ldr	r3, .L197+16
 2784 0136 1B68     		ldr	r3, [r3]
 2785 0138 1222     		mov	r2, #18
 2786 013a FF32     		add	r2, r2, #255
 2787 013c 101C     		mov	r0, r2
 2788 013e 0021     		mov	r1, #0
 2789 0140 9847     		blx	r3
2570:.\Generated_Source\PSoC4/BLE_eventHandler.c ****                 cyBle_eventHandlerFlag &= (uint8)~CYBLE_AUTO_DISCOVERY;
 2790              		.loc 1 2570 0
 2791 0142 0F4B     		ldr	r3, .L197+4
 2792 0144 1B78     		ldrb	r3, [r3]
 2793 0146 DBB2     		uxtb	r3, r3
 2794 0148 0222     		mov	r2, #2
 2795 014a 9343     		bic	r3, r2
 2796 014c DAB2     		uxtb	r2, r3
 2797 014e 0C4B     		ldr	r3, .L197+4
ARM GAS  C:\Users\Zachary\AppData\Local\Temp\ccmvMQUz.s 			page 96


 2798 0150 1A70     		strb	r2, [r3]
2571:.\Generated_Source\PSoC4/BLE_eventHandler.c ****                 break;
 2799              		.loc 1 2571 0
 2800 0152 08E0     		b	.L191
 2801              	.L195:
2572:.\Generated_Source\PSoC4/BLE_eventHandler.c **** 
2573:.\Generated_Source\PSoC4/BLE_eventHandler.c ****             default:
2574:.\Generated_Source\PSoC4/BLE_eventHandler.c ****                 CyBle_ApplCallback(CYBLE_EVT_GATTC_DESCR_DISCOVERY_FAILED, NULL);
 2802              		.loc 1 2574 0
 2803 0154 0D4B     		ldr	r3, .L197+16
 2804 0156 1B68     		ldr	r3, [r3]
 2805 0158 8522     		mov	r2, #133
 2806 015a 5200     		lsl	r2, r2, #1
 2807 015c 101C     		mov	r0, r2
 2808 015e 0021     		mov	r1, #0
 2809 0160 9847     		blx	r3
2575:.\Generated_Source\PSoC4/BLE_eventHandler.c ****                 break;
 2810              		.loc 1 2575 0
 2811 0162 00E0     		b	.L191
 2812              	.L196:
2565:.\Generated_Source\PSoC4/BLE_eventHandler.c ****                 break;
 2813              		.loc 1 2565 0
 2814 0164 C046     		mov	r8, r8
 2815              	.L191:
2576:.\Generated_Source\PSoC4/BLE_eventHandler.c ****             }
2577:.\Generated_Source\PSoC4/BLE_eventHandler.c ****         }
2578:.\Generated_Source\PSoC4/BLE_eventHandler.c **** 
2579:.\Generated_Source\PSoC4/BLE_eventHandler.c ****         cyBle_eventHandlerFlag &= (uint8)~CYBLE_CALLBACK;
 2816              		.loc 1 2579 0
 2817 0166 064B     		ldr	r3, .L197+4
 2818 0168 1B78     		ldrb	r3, [r3]
 2819 016a DBB2     		uxtb	r3, r3
 2820 016c 0122     		mov	r2, #1
 2821 016e 9343     		bic	r3, r2
 2822 0170 DAB2     		uxtb	r2, r3
 2823 0172 034B     		ldr	r3, .L197+4
 2824 0174 1A70     		strb	r2, [r3]
 2825              	.L183:
2580:.\Generated_Source\PSoC4/BLE_eventHandler.c ****     }
2581:.\Generated_Source\PSoC4/BLE_eventHandler.c **** }
 2826              		.loc 1 2581 0
 2827 0176 BD46     		mov	sp, r7
 2828 0178 0AB0     		add	sp, sp, #40
 2829              		@ sp needed
 2830 017a 80BD     		pop	{r7, pc}
 2831              	.L198:
 2832              		.align	2
 2833              	.L197:
 2834 017c 00000000 		.word	cyBle_clientState
 2835 0180 00000000 		.word	cyBle_eventHandlerFlag
 2836 0184 00000000 		.word	cyBle_disCount
 2837 0188 00000000 		.word	cyBle_charEndHandle
 2838 018c 00000000 		.word	CyBle_ApplCallback
 2839              		.cfi_endproc
 2840              	.LFE19:
 2841              		.size	CyBle_FindInfoEventHandler, .-CyBle_FindInfoEventHandler
 2842              		.section	.text.CyBle_NextCharDscrDiscovery,"ax",%progbits
ARM GAS  C:\Users\Zachary\AppData\Local\Temp\ccmvMQUz.s 			page 97


 2843              		.align	2
 2844              		.global	CyBle_NextCharDscrDiscovery
 2845              		.code	16
 2846              		.thumb_func
 2847              		.type	CyBle_NextCharDscrDiscovery, %function
 2848              	CyBle_NextCharDscrDiscovery:
 2849              	.LFB20:
2582:.\Generated_Source\PSoC4/BLE_eventHandler.c **** 
2583:.\Generated_Source\PSoC4/BLE_eventHandler.c **** 
2584:.\Generated_Source\PSoC4/BLE_eventHandler.c **** /****************************************************************************** 
2585:.\Generated_Source\PSoC4/BLE_eventHandler.c **** ##Function Name: CyBle_NextCharDscrDiscovery
2586:.\Generated_Source\PSoC4/BLE_eventHandler.c **** *******************************************************************************
2587:.\Generated_Source\PSoC4/BLE_eventHandler.c **** Summary:
2588:.\Generated_Source\PSoC4/BLE_eventHandler.c ****  Looks for a handle range for the current descriptor (pointed by
2589:.\Generated_Source\PSoC4/BLE_eventHandler.c ****   cyBle_disCount). If the current range is invalid (any of start or end
2590:.\Generated_Source\PSoC4/BLE_eventHandler.c ****   handles is invalid), then increment the cyBle_disCount and check
2591:.\Generated_Source\PSoC4/BLE_eventHandler.c ****   the next descriptor range and does so until a valid range is caught or the end of
2592:.\Generated_Source\PSoC4/BLE_eventHandler.c ****   the descriptor set is reached.
2593:.\Generated_Source\PSoC4/BLE_eventHandler.c **** 
2594:.\Generated_Source\PSoC4/BLE_eventHandler.c **** Parameters:
2595:.\Generated_Source\PSoC4/BLE_eventHandler.c ****  None
2596:.\Generated_Source\PSoC4/BLE_eventHandler.c **** 
2597:.\Generated_Source\PSoC4/BLE_eventHandler.c **** Return:
2598:.\Generated_Source\PSoC4/BLE_eventHandler.c ****  CYBLE_API_RESULT_T apiResult - may be either:
2599:.\Generated_Source\PSoC4/BLE_eventHandler.c ****          - CYBLE_DESCR_DISC_DONE when there are no more descriptors;
2600:.\Generated_Source\PSoC4/BLE_eventHandler.c ****          - a result of the CyBle_GattcDiscoverAllCharacteristicDescriptors().
2601:.\Generated_Source\PSoC4/BLE_eventHandler.c **** 
2602:.\Generated_Source\PSoC4/BLE_eventHandler.c **** ******************************************************************************/
2603:.\Generated_Source\PSoC4/BLE_eventHandler.c **** CYBLE_API_RESULT_T CyBle_NextCharDscrDiscovery(void)
2604:.\Generated_Source\PSoC4/BLE_eventHandler.c **** {
 2850              		.loc 1 2604 0
 2851              		.cfi_startproc
 2852 0000 90B5     		push	{r4, r7, lr}
 2853              		.cfi_def_cfa_offset 12
 2854              		.cfi_offset 4, -12
 2855              		.cfi_offset 7, -8
 2856              		.cfi_offset 14, -4
 2857 0002 83B0     		sub	sp, sp, #12
 2858              		.cfi_def_cfa_offset 24
 2859 0004 00AF     		add	r7, sp, #0
 2860              		.cfi_def_cfa_register 7
2605:.\Generated_Source\PSoC4/BLE_eventHandler.c ****     CYBLE_API_RESULT_T apiResult;
2606:.\Generated_Source\PSoC4/BLE_eventHandler.c ****     CYBLE_GATTC_FIND_INFO_REQ_T charRange;
2607:.\Generated_Source\PSoC4/BLE_eventHandler.c **** 
2608:.\Generated_Source\PSoC4/BLE_eventHandler.c ****     charRange = CyBle_GetCharRange();
 2861              		.loc 1 2608 0
 2862 0006 FFF7FEFF 		bl	CyBle_GetCharRange
 2863 000a 031C     		mov	r3, r0
 2864 000c 1A1C     		mov	r2, r3
 2865 000e 3B1C     		mov	r3, r7
 2866 0010 1A60     		str	r2, [r3]
2609:.\Generated_Source\PSoC4/BLE_eventHandler.c ****     
2610:.\Generated_Source\PSoC4/BLE_eventHandler.c ****     while(((charRange.startHandle == (CYBLE_GATT_INVALID_ATTR_HANDLE_VALUE + 1u)) || (charRange.end
 2867              		.loc 1 2610 0
 2868 0012 0BE0     		b	.L200
 2869              	.L203:
2611:.\Generated_Source\PSoC4/BLE_eventHandler.c ****         (charRange.startHandle > charRange.endHandle)) && (cyBle_disCount < (uint8) CYBLE_SCDI_COUN
ARM GAS  C:\Users\Zachary\AppData\Local\Temp\ccmvMQUz.s 			page 98


2612:.\Generated_Source\PSoC4/BLE_eventHandler.c ****     {
2613:.\Generated_Source\PSoC4/BLE_eventHandler.c ****         #ifdef CYBLE_HIDS_CLIENT
2614:.\Generated_Source\PSoC4/BLE_eventHandler.c ****             #if(CYBLE_HIDSC_SERVICE_COUNT > 1u)
2615:.\Generated_Source\PSoC4/BLE_eventHandler.c ****                 if((cyBle_disCount == CYBLE_SCDI_HIDS_REPORT_END) && (disServiceIndex < (CYBLE_HIDS
2616:.\Generated_Source\PSoC4/BLE_eventHandler.c ****                 {
2617:.\Generated_Source\PSoC4/BLE_eventHandler.c ****                     disServiceIndex++;      /* Discover descriptors for next HID service */
2618:.\Generated_Source\PSoC4/BLE_eventHandler.c ****                     /* Set characteristic index to first characteristic of HID service */
2619:.\Generated_Source\PSoC4/BLE_eventHandler.c ****                     cyBle_disCount = CYBLE_SCDI_HIDS_REPORT_MAP;
2620:.\Generated_Source\PSoC4/BLE_eventHandler.c ****                 }
2621:.\Generated_Source\PSoC4/BLE_eventHandler.c ****                 else
2622:.\Generated_Source\PSoC4/BLE_eventHandler.c ****                 {
2623:.\Generated_Source\PSoC4/BLE_eventHandler.c ****                     cyBle_disCount++;
2624:.\Generated_Source\PSoC4/BLE_eventHandler.c ****                 }
2625:.\Generated_Source\PSoC4/BLE_eventHandler.c ****             #else
2626:.\Generated_Source\PSoC4/BLE_eventHandler.c ****                 cyBle_disCount++;
2627:.\Generated_Source\PSoC4/BLE_eventHandler.c ****             #endif /* CYBLE_HIDSC_SERVICE_COUNT > 1u) */
2628:.\Generated_Source\PSoC4/BLE_eventHandler.c ****         #else
2629:.\Generated_Source\PSoC4/BLE_eventHandler.c ****             cyBle_disCount++;
 2870              		.loc 1 2629 0
 2871 0014 1C4B     		ldr	r3, .L207
 2872 0016 1B78     		ldrb	r3, [r3]
 2873 0018 0133     		add	r3, r3, #1
 2874 001a DAB2     		uxtb	r2, r3
 2875 001c 1A4B     		ldr	r3, .L207
 2876 001e 1A70     		strb	r2, [r3]
2630:.\Generated_Source\PSoC4/BLE_eventHandler.c ****         #endif /* CYBLE_HIDS_CLIENT */
2631:.\Generated_Source\PSoC4/BLE_eventHandler.c ****         charRange = CyBle_GetCharRange();
 2877              		.loc 1 2631 0
 2878 0020 FFF7FEFF 		bl	CyBle_GetCharRange
 2879 0024 031C     		mov	r3, r0
 2880 0026 1A1C     		mov	r2, r3
 2881 0028 3B1C     		mov	r3, r7
 2882 002a 1A60     		str	r2, [r3]
 2883              	.L200:
2610:.\Generated_Source\PSoC4/BLE_eventHandler.c ****     while(((charRange.startHandle == (CYBLE_GATT_INVALID_ATTR_HANDLE_VALUE + 1u)) || (charRange.end
 2884              		.loc 1 2610 0 discriminator 1
 2885 002c 3B1C     		mov	r3, r7
 2886 002e 1B88     		ldrh	r3, [r3]
 2887 0030 012B     		cmp	r3, #1
 2888 0032 09D0     		beq	.L201
2610:.\Generated_Source\PSoC4/BLE_eventHandler.c ****     while(((charRange.startHandle == (CYBLE_GATT_INVALID_ATTR_HANDLE_VALUE + 1u)) || (charRange.end
 2889              		.loc 1 2610 0 is_stmt 0 discriminator 2
 2890 0034 3B1C     		mov	r3, r7
 2891 0036 5B88     		ldrh	r3, [r3, #2]
 2892 0038 002B     		cmp	r3, #0
 2893 003a 05D0     		beq	.L201
2611:.\Generated_Source\PSoC4/BLE_eventHandler.c ****         (charRange.startHandle > charRange.endHandle)) && (cyBle_disCount < (uint8) CYBLE_SCDI_COUN
 2894              		.loc 1 2611 0 is_stmt 1 discriminator 1
 2895 003c 3B1C     		mov	r3, r7
 2896 003e 1A88     		ldrh	r2, [r3]
 2897 0040 3B1C     		mov	r3, r7
 2898 0042 5B88     		ldrh	r3, [r3, #2]
2610:.\Generated_Source\PSoC4/BLE_eventHandler.c ****     while(((charRange.startHandle == (CYBLE_GATT_INVALID_ATTR_HANDLE_VALUE + 1u)) || (charRange.end
 2899              		.loc 1 2610 0 discriminator 1
 2900 0044 9A42     		cmp	r2, r3
 2901 0046 03D9     		bls	.L202
 2902              	.L201:
ARM GAS  C:\Users\Zachary\AppData\Local\Temp\ccmvMQUz.s 			page 99


2611:.\Generated_Source\PSoC4/BLE_eventHandler.c ****         (charRange.startHandle > charRange.endHandle)) && (cyBle_disCount < (uint8) CYBLE_SCDI_COUN
 2903              		.loc 1 2611 0
 2904 0048 0F4B     		ldr	r3, .L207
 2905 004a 1B78     		ldrb	r3, [r3]
 2906 004c 002B     		cmp	r3, #0
 2907 004e E1D0     		beq	.L203
 2908              	.L202:
2632:.\Generated_Source\PSoC4/BLE_eventHandler.c ****     }
2633:.\Generated_Source\PSoC4/BLE_eventHandler.c **** 
2634:.\Generated_Source\PSoC4/BLE_eventHandler.c ****     if(cyBle_disCount < (uint8) CYBLE_SCDI_COUNT)
 2909              		.loc 1 2634 0
 2910 0050 0D4B     		ldr	r3, .L207
 2911 0052 1B78     		ldrb	r3, [r3]
 2912 0054 002B     		cmp	r3, #0
 2913 0056 0DD1     		bne	.L204
2635:.\Generated_Source\PSoC4/BLE_eventHandler.c ****     {
2636:.\Generated_Source\PSoC4/BLE_eventHandler.c ****         apiResult = CyBle_GattcDiscoverAllCharacteristicDescriptors(cyBle_connHandle, &charRange);
 2914              		.loc 1 2636 0
 2915 0058 BC1D     		add	r4, r7, #6
 2916 005a 0C4B     		ldr	r3, .L207+4
 2917 005c 3A1C     		mov	r2, r7
 2918 005e 1868     		ldr	r0, [r3]
 2919 0060 111C     		mov	r1, r2
 2920 0062 FFF7FEFF 		bl	CyBle_GattcDiscoverAllCharacteristicDescriptors
 2921 0066 031C     		mov	r3, r0
 2922 0068 2380     		strh	r3, [r4]
2637:.\Generated_Source\PSoC4/BLE_eventHandler.c ****         cyBle_charEndHandle = charRange.endHandle;
 2923              		.loc 1 2637 0
 2924 006a 3B1C     		mov	r3, r7
 2925 006c 5A88     		ldrh	r2, [r3, #2]
 2926 006e 084B     		ldr	r3, .L207+8
 2927 0070 1A80     		strh	r2, [r3]
 2928 0072 03E0     		b	.L205
 2929              	.L204:
2638:.\Generated_Source\PSoC4/BLE_eventHandler.c ****     }
2639:.\Generated_Source\PSoC4/BLE_eventHandler.c ****     else
2640:.\Generated_Source\PSoC4/BLE_eventHandler.c ****     {
2641:.\Generated_Source\PSoC4/BLE_eventHandler.c ****         apiResult = CYBLE_DESCR_DISC_DONE;
 2930              		.loc 1 2641 0
 2931 0074 BB1D     		add	r3, r7, #6
 2932 0076 8122     		mov	r2, #129
 2933 0078 5200     		lsl	r2, r2, #1
 2934 007a 1A80     		strh	r2, [r3]
 2935              	.L205:
2642:.\Generated_Source\PSoC4/BLE_eventHandler.c ****     }
2643:.\Generated_Source\PSoC4/BLE_eventHandler.c ****     
2644:.\Generated_Source\PSoC4/BLE_eventHandler.c ****     return (apiResult);
 2936              		.loc 1 2644 0
 2937 007c BB1D     		add	r3, r7, #6
 2938 007e 1B88     		ldrh	r3, [r3]
2645:.\Generated_Source\PSoC4/BLE_eventHandler.c **** }
 2939              		.loc 1 2645 0
 2940 0080 181C     		mov	r0, r3
 2941 0082 BD46     		mov	sp, r7
 2942 0084 03B0     		add	sp, sp, #12
 2943              		@ sp needed
 2944 0086 90BD     		pop	{r4, r7, pc}
ARM GAS  C:\Users\Zachary\AppData\Local\Temp\ccmvMQUz.s 			page 100


 2945              	.L208:
 2946              		.align	2
 2947              	.L207:
 2948 0088 00000000 		.word	cyBle_disCount
 2949 008c 00000000 		.word	cyBle_connHandle
 2950 0090 00000000 		.word	cyBle_charEndHandle
 2951              		.cfi_endproc
 2952              	.LFE20:
 2953              		.size	CyBle_NextCharDscrDiscovery, .-CyBle_NextCharDscrDiscovery
 2954              		.section	.text.CyBle_ErrorResponseEventHandler,"ax",%progbits
 2955              		.align	2
 2956              		.global	CyBle_ErrorResponseEventHandler
 2957              		.code	16
 2958              		.thumb_func
 2959              		.type	CyBle_ErrorResponseEventHandler, %function
 2960              	CyBle_ErrorResponseEventHandler:
 2961              	.LFB21:
2646:.\Generated_Source\PSoC4/BLE_eventHandler.c **** 
2647:.\Generated_Source\PSoC4/BLE_eventHandler.c **** 
2648:.\Generated_Source\PSoC4/BLE_eventHandler.c **** /****************************************************************************** 
2649:.\Generated_Source\PSoC4/BLE_eventHandler.c **** ##Function Name: CyBle_ErrorResponseEventHandler
2650:.\Generated_Source\PSoC4/BLE_eventHandler.c **** *******************************************************************************
2651:.\Generated_Source\PSoC4/BLE_eventHandler.c **** 
2652:.\Generated_Source\PSoC4/BLE_eventHandler.c **** Summary:
2653:.\Generated_Source\PSoC4/BLE_eventHandler.c ****  Handles the Find Info Response Event during an automatic server discovery
2654:.\Generated_Source\PSoC4/BLE_eventHandler.c ****  process.
2655:.\Generated_Source\PSoC4/BLE_eventHandler.c **** 
2656:.\Generated_Source\PSoC4/BLE_eventHandler.c **** Parameters:
2657:.\Generated_Source\PSoC4/BLE_eventHandler.c ****   *eventParam:  the event parameters for an Error Response
2658:.\Generated_Source\PSoC4/BLE_eventHandler.c **** 
2659:.\Generated_Source\PSoC4/BLE_eventHandler.c **** Return:
2660:.\Generated_Source\PSoC4/BLE_eventHandler.c ****  None
2661:.\Generated_Source\PSoC4/BLE_eventHandler.c **** 
2662:.\Generated_Source\PSoC4/BLE_eventHandler.c **** ******************************************************************************/
2663:.\Generated_Source\PSoC4/BLE_eventHandler.c **** void CyBle_ErrorResponseEventHandler(const CYBLE_GATTC_ERR_RSP_PARAM_T *eventParam)
2664:.\Generated_Source\PSoC4/BLE_eventHandler.c **** {
 2962              		.loc 1 2664 0
 2963              		.cfi_startproc
 2964 0000 80B5     		push	{r7, lr}
 2965              		.cfi_def_cfa_offset 8
 2966              		.cfi_offset 7, -8
 2967              		.cfi_offset 14, -4
 2968 0002 82B0     		sub	sp, sp, #8
 2969              		.cfi_def_cfa_offset 16
 2970 0004 00AF     		add	r7, sp, #0
 2971              		.cfi_def_cfa_register 7
 2972 0006 7860     		str	r0, [r7, #4]
2665:.\Generated_Source\PSoC4/BLE_eventHandler.c ****     if((0u != (cyBle_eventHandlerFlag & CYBLE_AUTO_DISCOVERY)) &&
 2973              		.loc 1 2665 0
 2974 0008 AA4B     		ldr	r3, .L261
 2975 000a 1B78     		ldrb	r3, [r3]
 2976 000c DBB2     		uxtb	r3, r3
 2977 000e 1A1C     		mov	r2, r3
 2978 0010 0223     		mov	r3, #2
 2979 0012 1340     		and	r3, r2
 2980 0014 00D1     		bne	.LCB2598
 2981 0016 49E1     		b	.L209	@long jump
ARM GAS  C:\Users\Zachary\AppData\Local\Temp\ccmvMQUz.s 			page 101


 2982              	.LCB2598:
2666:.\Generated_Source\PSoC4/BLE_eventHandler.c ****         (eventParam->errorCode == CYBLE_GATT_ERR_ATTRIBUTE_NOT_FOUND))
 2983              		.loc 1 2666 0 discriminator 1
 2984 0018 7B68     		ldr	r3, [r7, #4]
 2985 001a 9B79     		ldrb	r3, [r3, #6]
2665:.\Generated_Source\PSoC4/BLE_eventHandler.c ****     if((0u != (cyBle_eventHandlerFlag & CYBLE_AUTO_DISCOVERY)) &&
 2986              		.loc 1 2665 0 discriminator 1
 2987 001c 0A2B     		cmp	r3, #10
 2988 001e 00D0     		beq	.LCB2602
 2989 0020 44E1     		b	.L209	@long jump
 2990              	.LCB2602:
2667:.\Generated_Source\PSoC4/BLE_eventHandler.c ****     {
2668:.\Generated_Source\PSoC4/BLE_eventHandler.c ****         switch(CyBle_GetClientState())
 2991              		.loc 1 2668 0
 2992 0022 A54B     		ldr	r3, .L261+4
 2993 0024 1B78     		ldrb	r3, [r3]
 2994 0026 052B     		cmp	r3, #5
 2995 0028 00D9     		bls	.LCB2606
 2996 002a 3EE1     		b	.L253	@long jump
 2997              	.LCB2606:
 2998 002c 9A00     		lsl	r2, r3, #2
 2999 002e A34B     		ldr	r3, .L261+8
 3000 0030 D318     		add	r3, r2, r3
 3001 0032 1B68     		ldr	r3, [r3]
 3002 0034 9F46     		mov	pc, r3
 3003              		.section	.rodata
 3004              		.align	2
 3005              	.L213:
 3006 01dc AA020000 		.word	.L253
 3007 01e0 36000000 		.word	.L212
 3008 01e4 FE000000 		.word	.L214
 3009 01e8 A8010000 		.word	.L215
 3010 01ec 42020000 		.word	.L216
 3011 01f0 AA020000 		.word	.L253
 3012              		.section	.text.CyBle_ErrorResponseEventHandler
 3013              	.L212:
2669:.\Generated_Source\PSoC4/BLE_eventHandler.c ****         {
2670:.\Generated_Source\PSoC4/BLE_eventHandler.c ****         case CYBLE_CLIENT_STATE_SRVC_DISCOVERING:
2671:.\Generated_Source\PSoC4/BLE_eventHandler.c ****         #if(CYBLE_STACK_MODE_DEBUG)
2672:.\Generated_Source\PSoC4/BLE_eventHandler.c ****             CyBle_ApplCallback(CYBLE_EVT_GATTC_SRVC_DISCOVERY_COMPLETE, NULL);
2673:.\Generated_Source\PSoC4/BLE_eventHandler.c ****         #endif /* CYBLE_STACK_MODE_DEBUG */            
2674:.\Generated_Source\PSoC4/BLE_eventHandler.c ****             CyBle_SetClientState(CYBLE_CLIENT_STATE_INCL_DISCOVERING);
 3014              		.loc 1 2674 0
 3015 0036 A04B     		ldr	r3, .L261+4
 3016 0038 0222     		mov	r2, #2
 3017 003a 1A70     		strb	r2, [r3]
2675:.\Generated_Source\PSoC4/BLE_eventHandler.c ****             cyBle_disCount = 0u;
 3018              		.loc 1 2675 0
 3019 003c A04B     		ldr	r3, .L261+12
 3020 003e 0022     		mov	r2, #0
 3021 0040 1A70     		strb	r2, [r3]
2676:.\Generated_Source\PSoC4/BLE_eventHandler.c ****             switch(CyBle_NextInclDiscovery())
 3022              		.loc 1 2676 0
 3023 0042 FFF7FEFF 		bl	CyBle_NextInclDiscovery
 3024 0046 031C     		mov	r3, r0
 3025 0048 002B     		cmp	r3, #0
 3026 004a 4ED0     		beq	.L254
ARM GAS  C:\Users\Zachary\AppData\Local\Temp\ccmvMQUz.s 			page 102


 3027 004c 8022     		mov	r2, #128
 3028 004e 5200     		lsl	r2, r2, #1
 3029 0050 9342     		cmp	r3, r2
 3030 0052 3AD1     		bne	.L246
2677:.\Generated_Source\PSoC4/BLE_eventHandler.c ****             {
2678:.\Generated_Source\PSoC4/BLE_eventHandler.c ****                 case CYBLE_ERROR_OK:
2679:.\Generated_Source\PSoC4/BLE_eventHandler.c ****                     break;
2680:.\Generated_Source\PSoC4/BLE_eventHandler.c **** 
2681:.\Generated_Source\PSoC4/BLE_eventHandler.c ****                 case CYBLE_INCL_DISC_DONE:
2682:.\Generated_Source\PSoC4/BLE_eventHandler.c ****                     CyBle_ApplCallback(CYBLE_EVT_GATTC_INCL_DISCOVERY_COMPLETE, NULL);
 3031              		.loc 1 2682 0
 3032 0054 9B4B     		ldr	r3, .L261+16
 3033 0056 1B68     		ldr	r3, [r3]
 3034 0058 1022     		mov	r2, #16
 3035 005a FF32     		add	r2, r2, #255
 3036 005c 101C     		mov	r0, r2
 3037 005e 0021     		mov	r1, #0
 3038 0060 9847     		blx	r3
2683:.\Generated_Source\PSoC4/BLE_eventHandler.c ****                     CyBle_SetClientState(CYBLE_CLIENT_STATE_CHAR_DISCOVERING);
 3039              		.loc 1 2683 0
 3040 0062 954B     		ldr	r3, .L261+4
 3041 0064 0322     		mov	r2, #3
 3042 0066 1A70     		strb	r2, [r3]
2684:.\Generated_Source\PSoC4/BLE_eventHandler.c ****                     cyBle_disCount = 0u;
 3043              		.loc 1 2684 0
 3044 0068 954B     		ldr	r3, .L261+12
 3045 006a 0022     		mov	r2, #0
 3046 006c 1A70     		strb	r2, [r3]
2685:.\Generated_Source\PSoC4/BLE_eventHandler.c ****                 #ifdef CYBLE_HIDS_CLIENT
2686:.\Generated_Source\PSoC4/BLE_eventHandler.c ****                     disServiceIndex = 0u;
2687:.\Generated_Source\PSoC4/BLE_eventHandler.c ****                 #endif /* CYBLE_HIDS_CLIENT */
2688:.\Generated_Source\PSoC4/BLE_eventHandler.c ****                     
2689:.\Generated_Source\PSoC4/BLE_eventHandler.c ****                     switch(CyBle_NextCharDiscovery())
 3047              		.loc 1 2689 0
 3048 006e FFF7FEFF 		bl	CyBle_NextCharDiscovery
 3049 0072 031C     		mov	r3, r0
 3050 0074 002B     		cmp	r3, #0
 3051 0076 26D0     		beq	.L255
 3052 0078 0222     		mov	r2, #2
 3053 007a FF32     		add	r2, r2, #255
 3054 007c 9342     		cmp	r3, r2
 3055 007e 12D1     		bne	.L247
2690:.\Generated_Source\PSoC4/BLE_eventHandler.c ****                     {
2691:.\Generated_Source\PSoC4/BLE_eventHandler.c ****                         case CYBLE_ERROR_OK:
2692:.\Generated_Source\PSoC4/BLE_eventHandler.c ****                             break;
2693:.\Generated_Source\PSoC4/BLE_eventHandler.c ****                         
2694:.\Generated_Source\PSoC4/BLE_eventHandler.c ****                         case CYBLE_CHAR_DISC_DONE:
2695:.\Generated_Source\PSoC4/BLE_eventHandler.c ****                             CyBle_SetClientState(CYBLE_CLIENT_STATE_DISCOVERED);
 3056              		.loc 1 2695 0
 3057 0080 8D4B     		ldr	r3, .L261+4
 3058 0082 0522     		mov	r2, #5
 3059 0084 1A70     		strb	r2, [r3]
2696:.\Generated_Source\PSoC4/BLE_eventHandler.c ****                             CyBle_ApplCallback(CYBLE_EVT_GATTC_DISCOVERY_COMPLETE, NULL);
 3060              		.loc 1 2696 0
 3061 0086 8F4B     		ldr	r3, .L261+16
 3062 0088 1B68     		ldr	r3, [r3]
 3063 008a 1222     		mov	r2, #18
ARM GAS  C:\Users\Zachary\AppData\Local\Temp\ccmvMQUz.s 			page 103


 3064 008c FF32     		add	r2, r2, #255
 3065 008e 101C     		mov	r0, r2
 3066 0090 0021     		mov	r1, #0
 3067 0092 9847     		blx	r3
2697:.\Generated_Source\PSoC4/BLE_eventHandler.c ****                             cyBle_eventHandlerFlag &= (uint8)~CYBLE_AUTO_DISCOVERY;
 3068              		.loc 1 2697 0
 3069 0094 874B     		ldr	r3, .L261
 3070 0096 1B78     		ldrb	r3, [r3]
 3071 0098 DBB2     		uxtb	r3, r3
 3072 009a 0222     		mov	r2, #2
 3073 009c 9343     		bic	r3, r2
 3074 009e DAB2     		uxtb	r2, r3
 3075 00a0 844B     		ldr	r3, .L261
 3076 00a2 1A70     		strb	r2, [r3]
2698:.\Generated_Source\PSoC4/BLE_eventHandler.c ****                             break;
 3077              		.loc 1 2698 0
 3078 00a4 10E0     		b	.L225
 3079              	.L247:
2699:.\Generated_Source\PSoC4/BLE_eventHandler.c ****                         
2700:.\Generated_Source\PSoC4/BLE_eventHandler.c ****                         default:
2701:.\Generated_Source\PSoC4/BLE_eventHandler.c ****                             CyBle_ApplCallback(CYBLE_EVT_GATTC_CHAR_DISCOVERY_FAILED, NULL);
 3080              		.loc 1 2701 0
 3081 00a6 874B     		ldr	r3, .L261+16
 3082 00a8 1B68     		ldr	r3, [r3]
 3083 00aa 0A22     		mov	r2, #10
 3084 00ac FF32     		add	r2, r2, #255
 3085 00ae 101C     		mov	r0, r2
 3086 00b0 0021     		mov	r1, #0
 3087 00b2 9847     		blx	r3
2702:.\Generated_Source\PSoC4/BLE_eventHandler.c ****                             cyBle_eventHandlerFlag &= (uint8)~CYBLE_AUTO_DISCOVERY;
 3088              		.loc 1 2702 0
 3089 00b4 7F4B     		ldr	r3, .L261
 3090 00b6 1B78     		ldrb	r3, [r3]
 3091 00b8 DBB2     		uxtb	r3, r3
 3092 00ba 0222     		mov	r2, #2
 3093 00bc 9343     		bic	r3, r2
 3094 00be DAB2     		uxtb	r2, r3
 3095 00c0 7C4B     		ldr	r3, .L261
 3096 00c2 1A70     		strb	r2, [r3]
2703:.\Generated_Source\PSoC4/BLE_eventHandler.c ****                             break;                     
 3097              		.loc 1 2703 0
 3098 00c4 00E0     		b	.L225
 3099              	.L255:
2692:.\Generated_Source\PSoC4/BLE_eventHandler.c ****                             break;
 3100              		.loc 1 2692 0
 3101 00c6 C046     		mov	r8, r8
 3102              	.L225:
2704:.\Generated_Source\PSoC4/BLE_eventHandler.c ****                     }
2705:.\Generated_Source\PSoC4/BLE_eventHandler.c ****                     break;
 3103              		.loc 1 2705 0
 3104 00c8 10E0     		b	.L221
 3105              	.L246:
2706:.\Generated_Source\PSoC4/BLE_eventHandler.c **** 
2707:.\Generated_Source\PSoC4/BLE_eventHandler.c ****                 default:
2708:.\Generated_Source\PSoC4/BLE_eventHandler.c ****                     CyBle_ApplCallback(CYBLE_EVT_GATTC_INCL_DISCOVERY_FAILED, NULL);
 3106              		.loc 1 2708 0
 3107 00ca 7E4B     		ldr	r3, .L261+16
ARM GAS  C:\Users\Zachary\AppData\Local\Temp\ccmvMQUz.s 			page 104


 3108 00cc 1B68     		ldr	r3, [r3]
 3109 00ce 8422     		mov	r2, #132
 3110 00d0 5200     		lsl	r2, r2, #1
 3111 00d2 101C     		mov	r0, r2
 3112 00d4 0021     		mov	r1, #0
 3113 00d6 9847     		blx	r3
2709:.\Generated_Source\PSoC4/BLE_eventHandler.c ****                     cyBle_eventHandlerFlag &= (uint8)~CYBLE_AUTO_DISCOVERY;
 3114              		.loc 1 2709 0
 3115 00d8 764B     		ldr	r3, .L261
 3116 00da 1B78     		ldrb	r3, [r3]
 3117 00dc DBB2     		uxtb	r3, r3
 3118 00de 0222     		mov	r2, #2
 3119 00e0 9343     		bic	r3, r2
 3120 00e2 DAB2     		uxtb	r2, r3
 3121 00e4 734B     		ldr	r3, .L261
 3122 00e6 1A70     		strb	r2, [r3]
2710:.\Generated_Source\PSoC4/BLE_eventHandler.c ****                     break;
 3123              		.loc 1 2710 0
 3124 00e8 00E0     		b	.L221
 3125              	.L254:
2679:.\Generated_Source\PSoC4/BLE_eventHandler.c ****                     break;
 3126              		.loc 1 2679 0
 3127 00ea C046     		mov	r8, r8
 3128              	.L221:
2711:.\Generated_Source\PSoC4/BLE_eventHandler.c ****             }
2712:.\Generated_Source\PSoC4/BLE_eventHandler.c ****             cyBle_eventHandlerFlag &= (uint8)~CYBLE_CALLBACK;
 3129              		.loc 1 2712 0
 3130 00ec 714B     		ldr	r3, .L261
 3131 00ee 1B78     		ldrb	r3, [r3]
 3132 00f0 DBB2     		uxtb	r3, r3
 3133 00f2 0122     		mov	r2, #1
 3134 00f4 9343     		bic	r3, r2
 3135 00f6 DAB2     		uxtb	r2, r3
 3136 00f8 6E4B     		ldr	r3, .L261
 3137 00fa 1A70     		strb	r2, [r3]
2713:.\Generated_Source\PSoC4/BLE_eventHandler.c ****             break;
 3138              		.loc 1 2713 0
 3139 00fc D6E0     		b	.L209
 3140              	.L214:
2714:.\Generated_Source\PSoC4/BLE_eventHandler.c **** 
2715:.\Generated_Source\PSoC4/BLE_eventHandler.c ****         case CYBLE_CLIENT_STATE_INCL_DISCOVERING:
2716:.\Generated_Source\PSoC4/BLE_eventHandler.c ****             cyBle_disCount++;
 3141              		.loc 1 2716 0
 3142 00fe 704B     		ldr	r3, .L261+12
 3143 0100 1B78     		ldrb	r3, [r3]
 3144 0102 0133     		add	r3, r3, #1
 3145 0104 DAB2     		uxtb	r2, r3
 3146 0106 6E4B     		ldr	r3, .L261+12
 3147 0108 1A70     		strb	r2, [r3]
2717:.\Generated_Source\PSoC4/BLE_eventHandler.c ****             switch(CyBle_NextInclDiscovery())
 3148              		.loc 1 2717 0
 3149 010a FFF7FEFF 		bl	CyBle_NextInclDiscovery
 3150 010e 031C     		mov	r3, r0
 3151 0110 002B     		cmp	r3, #0
 3152 0112 3FD0     		beq	.L256
 3153 0114 8022     		mov	r2, #128
 3154 0116 5200     		lsl	r2, r2, #1
ARM GAS  C:\Users\Zachary\AppData\Local\Temp\ccmvMQUz.s 			page 105


 3155 0118 9342     		cmp	r3, r2
 3156 011a 33D1     		bne	.L248
2718:.\Generated_Source\PSoC4/BLE_eventHandler.c ****             {
2719:.\Generated_Source\PSoC4/BLE_eventHandler.c ****                 case CYBLE_ERROR_OK:                    
2720:.\Generated_Source\PSoC4/BLE_eventHandler.c ****                     break;
2721:.\Generated_Source\PSoC4/BLE_eventHandler.c **** 
2722:.\Generated_Source\PSoC4/BLE_eventHandler.c ****                 case CYBLE_INCL_DISC_DONE:    
2723:.\Generated_Source\PSoC4/BLE_eventHandler.c ****                 #if(CYBLE_STACK_MODE_DEBUG)
2724:.\Generated_Source\PSoC4/BLE_eventHandler.c ****                     CyBle_ApplCallback(CYBLE_EVT_GATTC_INCL_DISCOVERY_COMPLETE, NULL);
2725:.\Generated_Source\PSoC4/BLE_eventHandler.c ****                 #endif /* CYBLE_STACK_MODE_DEBUG */
2726:.\Generated_Source\PSoC4/BLE_eventHandler.c ****                     cyBle_eventHandlerFlag &= (uint8)~CYBLE_CALLBACK;
 3157              		.loc 1 2726 0
 3158 011c 654B     		ldr	r3, .L261
 3159 011e 1B78     		ldrb	r3, [r3]
 3160 0120 DBB2     		uxtb	r3, r3
 3161 0122 0122     		mov	r2, #1
 3162 0124 9343     		bic	r3, r2
 3163 0126 DAB2     		uxtb	r2, r3
 3164 0128 624B     		ldr	r3, .L261
 3165 012a 1A70     		strb	r2, [r3]
2727:.\Generated_Source\PSoC4/BLE_eventHandler.c ****                     CyBle_SetClientState(CYBLE_CLIENT_STATE_CHAR_DISCOVERING);
 3166              		.loc 1 2727 0
 3167 012c 624B     		ldr	r3, .L261+4
 3168 012e 0322     		mov	r2, #3
 3169 0130 1A70     		strb	r2, [r3]
2728:.\Generated_Source\PSoC4/BLE_eventHandler.c ****                     cyBle_disCount = 0u;
 3170              		.loc 1 2728 0
 3171 0132 634B     		ldr	r3, .L261+12
 3172 0134 0022     		mov	r2, #0
 3173 0136 1A70     		strb	r2, [r3]
2729:.\Generated_Source\PSoC4/BLE_eventHandler.c ****                     #ifdef CYBLE_HIDS_CLIENT
2730:.\Generated_Source\PSoC4/BLE_eventHandler.c ****                         disServiceIndex = 0u;
2731:.\Generated_Source\PSoC4/BLE_eventHandler.c ****                     #endif /* CYBLE_HIDS_CLIENT */
2732:.\Generated_Source\PSoC4/BLE_eventHandler.c ****                     
2733:.\Generated_Source\PSoC4/BLE_eventHandler.c ****                     switch(CyBle_NextCharDiscovery())
 3174              		.loc 1 2733 0
 3175 0138 FFF7FEFF 		bl	CyBle_NextCharDiscovery
 3176 013c 031C     		mov	r3, r0
 3177 013e 002B     		cmp	r3, #0
 3178 0140 1ED0     		beq	.L257
 3179 0142 0222     		mov	r2, #2
 3180 0144 FF32     		add	r2, r2, #255
 3181 0146 9342     		cmp	r3, r2
 3182 0148 12D1     		bne	.L249
2734:.\Generated_Source\PSoC4/BLE_eventHandler.c ****                     {
2735:.\Generated_Source\PSoC4/BLE_eventHandler.c ****                         case CYBLE_ERROR_OK:                            
2736:.\Generated_Source\PSoC4/BLE_eventHandler.c ****                             break;
2737:.\Generated_Source\PSoC4/BLE_eventHandler.c ****                         
2738:.\Generated_Source\PSoC4/BLE_eventHandler.c ****                         case CYBLE_CHAR_DISC_DONE:
2739:.\Generated_Source\PSoC4/BLE_eventHandler.c ****                             CyBle_SetClientState(CYBLE_CLIENT_STATE_DISCOVERED);
 3183              		.loc 1 2739 0
 3184 014a 5B4B     		ldr	r3, .L261+4
 3185 014c 0522     		mov	r2, #5
 3186 014e 1A70     		strb	r2, [r3]
2740:.\Generated_Source\PSoC4/BLE_eventHandler.c ****                             CyBle_ApplCallback(CYBLE_EVT_GATTC_DISCOVERY_COMPLETE, NULL);
 3187              		.loc 1 2740 0
 3188 0150 5C4B     		ldr	r3, .L261+16
ARM GAS  C:\Users\Zachary\AppData\Local\Temp\ccmvMQUz.s 			page 106


 3189 0152 1B68     		ldr	r3, [r3]
 3190 0154 1222     		mov	r2, #18
 3191 0156 FF32     		add	r2, r2, #255
 3192 0158 101C     		mov	r0, r2
 3193 015a 0021     		mov	r1, #0
 3194 015c 9847     		blx	r3
2741:.\Generated_Source\PSoC4/BLE_eventHandler.c ****                             cyBle_eventHandlerFlag &= (uint8)~CYBLE_AUTO_DISCOVERY;
 3195              		.loc 1 2741 0
 3196 015e 554B     		ldr	r3, .L261
 3197 0160 1B78     		ldrb	r3, [r3]
 3198 0162 DBB2     		uxtb	r3, r3
 3199 0164 0222     		mov	r2, #2
 3200 0166 9343     		bic	r3, r2
 3201 0168 DAB2     		uxtb	r2, r3
 3202 016a 524B     		ldr	r3, .L261
 3203 016c 1A70     		strb	r2, [r3]
2742:.\Generated_Source\PSoC4/BLE_eventHandler.c ****                             break;
 3204              		.loc 1 2742 0
 3205 016e 08E0     		b	.L233
 3206              	.L249:
2743:.\Generated_Source\PSoC4/BLE_eventHandler.c ****                         
2744:.\Generated_Source\PSoC4/BLE_eventHandler.c ****                         default:
2745:.\Generated_Source\PSoC4/BLE_eventHandler.c ****                             CyBle_ApplCallback(CYBLE_EVT_GATTC_CHAR_DISCOVERY_FAILED, NULL);
 3207              		.loc 1 2745 0
 3208 0170 544B     		ldr	r3, .L261+16
 3209 0172 1B68     		ldr	r3, [r3]
 3210 0174 0A22     		mov	r2, #10
 3211 0176 FF32     		add	r2, r2, #255
 3212 0178 101C     		mov	r0, r2
 3213 017a 0021     		mov	r1, #0
 3214 017c 9847     		blx	r3
2746:.\Generated_Source\PSoC4/BLE_eventHandler.c ****                             break;                     
 3215              		.loc 1 2746 0
 3216 017e 00E0     		b	.L233
 3217              	.L257:
2736:.\Generated_Source\PSoC4/BLE_eventHandler.c ****                             break;
 3218              		.loc 1 2736 0
 3219 0180 C046     		mov	r8, r8
 3220              	.L233:
2747:.\Generated_Source\PSoC4/BLE_eventHandler.c ****                     }
2748:.\Generated_Source\PSoC4/BLE_eventHandler.c ****                     break;
 3221              		.loc 1 2748 0
 3222 0182 08E0     		b	.L229
 3223              	.L248:
2749:.\Generated_Source\PSoC4/BLE_eventHandler.c **** 
2750:.\Generated_Source\PSoC4/BLE_eventHandler.c ****                 default:
2751:.\Generated_Source\PSoC4/BLE_eventHandler.c ****                     CyBle_ApplCallback(CYBLE_EVT_GATTC_INCL_DISCOVERY_FAILED, NULL);
 3224              		.loc 1 2751 0
 3225 0184 4F4B     		ldr	r3, .L261+16
 3226 0186 1B68     		ldr	r3, [r3]
 3227 0188 8422     		mov	r2, #132
 3228 018a 5200     		lsl	r2, r2, #1
 3229 018c 101C     		mov	r0, r2
 3230 018e 0021     		mov	r1, #0
 3231 0190 9847     		blx	r3
2752:.\Generated_Source\PSoC4/BLE_eventHandler.c ****                     break;
 3232              		.loc 1 2752 0
ARM GAS  C:\Users\Zachary\AppData\Local\Temp\ccmvMQUz.s 			page 107


 3233 0192 00E0     		b	.L229
 3234              	.L256:
2720:.\Generated_Source\PSoC4/BLE_eventHandler.c ****                     break;
 3235              		.loc 1 2720 0
 3236 0194 C046     		mov	r8, r8
 3237              	.L229:
2753:.\Generated_Source\PSoC4/BLE_eventHandler.c ****             }
2754:.\Generated_Source\PSoC4/BLE_eventHandler.c ****             cyBle_eventHandlerFlag &= (uint8)~CYBLE_CALLBACK;
 3238              		.loc 1 2754 0
 3239 0196 474B     		ldr	r3, .L261
 3240 0198 1B78     		ldrb	r3, [r3]
 3241 019a DBB2     		uxtb	r3, r3
 3242 019c 0122     		mov	r2, #1
 3243 019e 9343     		bic	r3, r2
 3244 01a0 DAB2     		uxtb	r2, r3
 3245 01a2 444B     		ldr	r3, .L261
 3246 01a4 1A70     		strb	r2, [r3]
2755:.\Generated_Source\PSoC4/BLE_eventHandler.c ****             break;
 3247              		.loc 1 2755 0
 3248 01a6 81E0     		b	.L209
 3249              	.L215:
2756:.\Generated_Source\PSoC4/BLE_eventHandler.c **** 
2757:.\Generated_Source\PSoC4/BLE_eventHandler.c ****         case CYBLE_CLIENT_STATE_CHAR_DISCOVERING:
2758:.\Generated_Source\PSoC4/BLE_eventHandler.c ****             cyBle_disCount++;
 3250              		.loc 1 2758 0
 3251 01a8 454B     		ldr	r3, .L261+12
 3252 01aa 1B78     		ldrb	r3, [r3]
 3253 01ac 0133     		add	r3, r3, #1
 3254 01ae DAB2     		uxtb	r2, r3
 3255 01b0 434B     		ldr	r3, .L261+12
 3256 01b2 1A70     		strb	r2, [r3]
2759:.\Generated_Source\PSoC4/BLE_eventHandler.c ****             switch(CyBle_NextCharDiscovery())
 3257              		.loc 1 2759 0
 3258 01b4 FFF7FEFF 		bl	CyBle_NextCharDiscovery
 3259 01b8 031C     		mov	r3, r0
 3260 01ba 002B     		cmp	r3, #0
 3261 01bc 37D0     		beq	.L258
 3262 01be 0222     		mov	r2, #2
 3263 01c0 FF32     		add	r2, r2, #255
 3264 01c2 9342     		cmp	r3, r2
 3265 01c4 2BD1     		bne	.L250
2760:.\Generated_Source\PSoC4/BLE_eventHandler.c ****             {
2761:.\Generated_Source\PSoC4/BLE_eventHandler.c ****                 case CYBLE_ERROR_OK:
2762:.\Generated_Source\PSoC4/BLE_eventHandler.c ****                     break;
2763:.\Generated_Source\PSoC4/BLE_eventHandler.c **** 
2764:.\Generated_Source\PSoC4/BLE_eventHandler.c ****                 case CYBLE_CHAR_DISC_DONE:
2765:.\Generated_Source\PSoC4/BLE_eventHandler.c ****                 #if(CYBLE_STACK_MODE_DEBUG)
2766:.\Generated_Source\PSoC4/BLE_eventHandler.c ****                     CyBle_ApplCallback(CYBLE_EVT_GATTC_CHAR_DISCOVERY_COMPLETE, NULL);
2767:.\Generated_Source\PSoC4/BLE_eventHandler.c ****                 #endif /* CYBLE_STACK_MODE_DEBUG */
2768:.\Generated_Source\PSoC4/BLE_eventHandler.c ****                     CyBle_SetClientState(CYBLE_CLIENT_STATE_DESCR_DISCOVERING);
 3266              		.loc 1 2768 0
 3267 01c6 3C4B     		ldr	r3, .L261+4
 3268 01c8 0422     		mov	r2, #4
 3269 01ca 1A70     		strb	r2, [r3]
2769:.\Generated_Source\PSoC4/BLE_eventHandler.c ****                     cyBle_disCount = 0u;
 3270              		.loc 1 2769 0
 3271 01cc 3C4B     		ldr	r3, .L261+12
ARM GAS  C:\Users\Zachary\AppData\Local\Temp\ccmvMQUz.s 			page 108


 3272 01ce 0022     		mov	r2, #0
 3273 01d0 1A70     		strb	r2, [r3]
2770:.\Generated_Source\PSoC4/BLE_eventHandler.c ****                     switch(CyBle_NextCharDscrDiscovery())
 3274              		.loc 1 2770 0
 3275 01d2 FFF7FEFF 		bl	CyBle_NextCharDscrDiscovery
 3276 01d6 031C     		mov	r3, r0
 3277 01d8 002B     		cmp	r3, #0
 3278 01da 1ED0     		beq	.L259
 3279 01dc 8122     		mov	r2, #129
 3280 01de 5200     		lsl	r2, r2, #1
 3281 01e0 9342     		cmp	r3, r2
 3282 01e2 12D1     		bne	.L251
2771:.\Generated_Source\PSoC4/BLE_eventHandler.c ****                     {
2772:.\Generated_Source\PSoC4/BLE_eventHandler.c ****                         case CYBLE_ERROR_OK:
2773:.\Generated_Source\PSoC4/BLE_eventHandler.c ****                             break;
2774:.\Generated_Source\PSoC4/BLE_eventHandler.c **** 
2775:.\Generated_Source\PSoC4/BLE_eventHandler.c ****                         case CYBLE_DESCR_DISC_DONE:
2776:.\Generated_Source\PSoC4/BLE_eventHandler.c ****                             CyBle_SetClientState(CYBLE_CLIENT_STATE_DISCOVERED);
 3283              		.loc 1 2776 0
 3284 01e4 344B     		ldr	r3, .L261+4
 3285 01e6 0522     		mov	r2, #5
 3286 01e8 1A70     		strb	r2, [r3]
2777:.\Generated_Source\PSoC4/BLE_eventHandler.c ****                             CyBle_ApplCallback(CYBLE_EVT_GATTC_DISCOVERY_COMPLETE, NULL);
 3287              		.loc 1 2777 0
 3288 01ea 364B     		ldr	r3, .L261+16
 3289 01ec 1B68     		ldr	r3, [r3]
 3290 01ee 1222     		mov	r2, #18
 3291 01f0 FF32     		add	r2, r2, #255
 3292 01f2 101C     		mov	r0, r2
 3293 01f4 0021     		mov	r1, #0
 3294 01f6 9847     		blx	r3
2778:.\Generated_Source\PSoC4/BLE_eventHandler.c ****                             cyBle_eventHandlerFlag &= (uint8)~CYBLE_AUTO_DISCOVERY;
 3295              		.loc 1 2778 0
 3296 01f8 2E4B     		ldr	r3, .L261
 3297 01fa 1B78     		ldrb	r3, [r3]
 3298 01fc DBB2     		uxtb	r3, r3
 3299 01fe 0222     		mov	r2, #2
 3300 0200 9343     		bic	r3, r2
 3301 0202 DAB2     		uxtb	r2, r3
 3302 0204 2B4B     		ldr	r3, .L261
 3303 0206 1A70     		strb	r2, [r3]
2779:.\Generated_Source\PSoC4/BLE_eventHandler.c ****                             break;
 3304              		.loc 1 2779 0
 3305 0208 08E0     		b	.L241
 3306              	.L251:
2780:.\Generated_Source\PSoC4/BLE_eventHandler.c **** 
2781:.\Generated_Source\PSoC4/BLE_eventHandler.c ****                         default:
2782:.\Generated_Source\PSoC4/BLE_eventHandler.c ****                             CyBle_ApplCallback(CYBLE_EVT_GATTC_DESCR_DISCOVERY_FAILED, NULL);
 3307              		.loc 1 2782 0
 3308 020a 2E4B     		ldr	r3, .L261+16
 3309 020c 1B68     		ldr	r3, [r3]
 3310 020e 8522     		mov	r2, #133
 3311 0210 5200     		lsl	r2, r2, #1
 3312 0212 101C     		mov	r0, r2
 3313 0214 0021     		mov	r1, #0
 3314 0216 9847     		blx	r3
2783:.\Generated_Source\PSoC4/BLE_eventHandler.c ****                             break;
ARM GAS  C:\Users\Zachary\AppData\Local\Temp\ccmvMQUz.s 			page 109


 3315              		.loc 1 2783 0
 3316 0218 00E0     		b	.L241
 3317              	.L259:
2773:.\Generated_Source\PSoC4/BLE_eventHandler.c ****                             break;
 3318              		.loc 1 2773 0
 3319 021a C046     		mov	r8, r8
 3320              	.L241:
2784:.\Generated_Source\PSoC4/BLE_eventHandler.c ****                     }
2785:.\Generated_Source\PSoC4/BLE_eventHandler.c ****                     break;
 3321              		.loc 1 2785 0
 3322 021c 08E0     		b	.L237
 3323              	.L250:
2786:.\Generated_Source\PSoC4/BLE_eventHandler.c **** 
2787:.\Generated_Source\PSoC4/BLE_eventHandler.c ****                 default:
2788:.\Generated_Source\PSoC4/BLE_eventHandler.c ****                     CyBle_ApplCallback(CYBLE_EVT_GATTC_CHAR_DISCOVERY_FAILED, NULL);
 3324              		.loc 1 2788 0
 3325 021e 294B     		ldr	r3, .L261+16
 3326 0220 1B68     		ldr	r3, [r3]
 3327 0222 0A22     		mov	r2, #10
 3328 0224 FF32     		add	r2, r2, #255
 3329 0226 101C     		mov	r0, r2
 3330 0228 0021     		mov	r1, #0
 3331 022a 9847     		blx	r3
2789:.\Generated_Source\PSoC4/BLE_eventHandler.c ****                     break;
 3332              		.loc 1 2789 0
 3333 022c 00E0     		b	.L237
 3334              	.L258:
2762:.\Generated_Source\PSoC4/BLE_eventHandler.c ****                     break;
 3335              		.loc 1 2762 0
 3336 022e C046     		mov	r8, r8
 3337              	.L237:
2790:.\Generated_Source\PSoC4/BLE_eventHandler.c ****             }
2791:.\Generated_Source\PSoC4/BLE_eventHandler.c ****             cyBle_eventHandlerFlag &= (uint8)~CYBLE_CALLBACK;
 3338              		.loc 1 2791 0
 3339 0230 204B     		ldr	r3, .L261
 3340 0232 1B78     		ldrb	r3, [r3]
 3341 0234 DBB2     		uxtb	r3, r3
 3342 0236 0122     		mov	r2, #1
 3343 0238 9343     		bic	r3, r2
 3344 023a DAB2     		uxtb	r2, r3
 3345 023c 1D4B     		ldr	r3, .L261
 3346 023e 1A70     		strb	r2, [r3]
2792:.\Generated_Source\PSoC4/BLE_eventHandler.c ****             break;
 3347              		.loc 1 2792 0
 3348 0240 34E0     		b	.L209
 3349              	.L216:
2793:.\Generated_Source\PSoC4/BLE_eventHandler.c **** 
2794:.\Generated_Source\PSoC4/BLE_eventHandler.c ****         case CYBLE_CLIENT_STATE_DESCR_DISCOVERING:
2795:.\Generated_Source\PSoC4/BLE_eventHandler.c ****             #ifdef CYBLE_HIDS_CLIENT
2796:.\Generated_Source\PSoC4/BLE_eventHandler.c ****                 #if(CYBLE_HIDSC_SERVICE_COUNT > 1u)
2797:.\Generated_Source\PSoC4/BLE_eventHandler.c ****                     if((cyBle_disCount == CYBLE_SCDI_HIDS_REPORT_END) && (disServiceIndex < (CYBLE_
2798:.\Generated_Source\PSoC4/BLE_eventHandler.c ****                     {
2799:.\Generated_Source\PSoC4/BLE_eventHandler.c ****                         disServiceIndex++;      /* Discover descriptors for next HID service */
2800:.\Generated_Source\PSoC4/BLE_eventHandler.c ****                         /* Set characteristic index to first characteristic of HID service */
2801:.\Generated_Source\PSoC4/BLE_eventHandler.c ****                         cyBle_disCount = CYBLE_SCDI_HIDS_REPORT_MAP;
2802:.\Generated_Source\PSoC4/BLE_eventHandler.c ****                     }
2803:.\Generated_Source\PSoC4/BLE_eventHandler.c ****                     else
ARM GAS  C:\Users\Zachary\AppData\Local\Temp\ccmvMQUz.s 			page 110


2804:.\Generated_Source\PSoC4/BLE_eventHandler.c ****                     {
2805:.\Generated_Source\PSoC4/BLE_eventHandler.c ****                         cyBle_disCount++;
2806:.\Generated_Source\PSoC4/BLE_eventHandler.c ****                     }
2807:.\Generated_Source\PSoC4/BLE_eventHandler.c ****                 #else
2808:.\Generated_Source\PSoC4/BLE_eventHandler.c ****                     cyBle_disCount++;
2809:.\Generated_Source\PSoC4/BLE_eventHandler.c ****                 #endif /* CYBLE_HIDSC_SERVICE_COUNT > 1u) */
2810:.\Generated_Source\PSoC4/BLE_eventHandler.c ****             #else
2811:.\Generated_Source\PSoC4/BLE_eventHandler.c ****                 cyBle_disCount++;
 3350              		.loc 1 2811 0
 3351 0242 1F4B     		ldr	r3, .L261+12
 3352 0244 1B78     		ldrb	r3, [r3]
 3353 0246 0133     		add	r3, r3, #1
 3354 0248 DAB2     		uxtb	r2, r3
 3355 024a 1D4B     		ldr	r3, .L261+12
 3356 024c 1A70     		strb	r2, [r3]
2812:.\Generated_Source\PSoC4/BLE_eventHandler.c ****             #endif /* CYBLE_HIDS_CLIENT */
2813:.\Generated_Source\PSoC4/BLE_eventHandler.c **** 
2814:.\Generated_Source\PSoC4/BLE_eventHandler.c ****             switch(CyBle_NextCharDscrDiscovery())
 3357              		.loc 1 2814 0
 3358 024e FFF7FEFF 		bl	CyBle_NextCharDscrDiscovery
 3359 0252 031C     		mov	r3, r0
 3360 0254 002B     		cmp	r3, #0
 3361 0256 1ED0     		beq	.L260
 3362 0258 8122     		mov	r2, #129
 3363 025a 5200     		lsl	r2, r2, #1
 3364 025c 9342     		cmp	r3, r2
 3365 025e 12D1     		bne	.L252
2815:.\Generated_Source\PSoC4/BLE_eventHandler.c ****             {
2816:.\Generated_Source\PSoC4/BLE_eventHandler.c ****                 case CYBLE_ERROR_OK:
2817:.\Generated_Source\PSoC4/BLE_eventHandler.c ****                     break;
2818:.\Generated_Source\PSoC4/BLE_eventHandler.c **** 
2819:.\Generated_Source\PSoC4/BLE_eventHandler.c ****                 case CYBLE_DESCR_DISC_DONE:
2820:.\Generated_Source\PSoC4/BLE_eventHandler.c ****                     CyBle_SetClientState(CYBLE_CLIENT_STATE_DISCOVERED);
 3366              		.loc 1 2820 0
 3367 0260 154B     		ldr	r3, .L261+4
 3368 0262 0522     		mov	r2, #5
 3369 0264 1A70     		strb	r2, [r3]
2821:.\Generated_Source\PSoC4/BLE_eventHandler.c ****                     CyBle_ApplCallback(CYBLE_EVT_GATTC_DISCOVERY_COMPLETE, NULL);
 3370              		.loc 1 2821 0
 3371 0266 174B     		ldr	r3, .L261+16
 3372 0268 1B68     		ldr	r3, [r3]
 3373 026a 1222     		mov	r2, #18
 3374 026c FF32     		add	r2, r2, #255
 3375 026e 101C     		mov	r0, r2
 3376 0270 0021     		mov	r1, #0
 3377 0272 9847     		blx	r3
2822:.\Generated_Source\PSoC4/BLE_eventHandler.c ****                     cyBle_eventHandlerFlag &= (uint8)~CYBLE_AUTO_DISCOVERY;
 3378              		.loc 1 2822 0
 3379 0274 0F4B     		ldr	r3, .L261
 3380 0276 1B78     		ldrb	r3, [r3]
 3381 0278 DBB2     		uxtb	r3, r3
 3382 027a 0222     		mov	r2, #2
 3383 027c 9343     		bic	r3, r2
 3384 027e DAB2     		uxtb	r2, r3
 3385 0280 0C4B     		ldr	r3, .L261
 3386 0282 1A70     		strb	r2, [r3]
2823:.\Generated_Source\PSoC4/BLE_eventHandler.c ****                     break;
ARM GAS  C:\Users\Zachary\AppData\Local\Temp\ccmvMQUz.s 			page 111


 3387              		.loc 1 2823 0
 3388 0284 08E0     		b	.L245
 3389              	.L252:
2824:.\Generated_Source\PSoC4/BLE_eventHandler.c **** 
2825:.\Generated_Source\PSoC4/BLE_eventHandler.c ****                 default:
2826:.\Generated_Source\PSoC4/BLE_eventHandler.c ****                     CyBle_ApplCallback(CYBLE_EVT_GATTC_DESCR_DISCOVERY_FAILED, NULL);
 3390              		.loc 1 2826 0
 3391 0286 0F4B     		ldr	r3, .L261+16
 3392 0288 1B68     		ldr	r3, [r3]
 3393 028a 8522     		mov	r2, #133
 3394 028c 5200     		lsl	r2, r2, #1
 3395 028e 101C     		mov	r0, r2
 3396 0290 0021     		mov	r1, #0
 3397 0292 9847     		blx	r3
2827:.\Generated_Source\PSoC4/BLE_eventHandler.c ****                     break;
 3398              		.loc 1 2827 0
 3399 0294 00E0     		b	.L245
 3400              	.L260:
2817:.\Generated_Source\PSoC4/BLE_eventHandler.c ****                     break;
 3401              		.loc 1 2817 0
 3402 0296 C046     		mov	r8, r8
 3403              	.L245:
2828:.\Generated_Source\PSoC4/BLE_eventHandler.c ****             }
2829:.\Generated_Source\PSoC4/BLE_eventHandler.c ****             cyBle_eventHandlerFlag &= (uint8)~CYBLE_CALLBACK;
 3404              		.loc 1 2829 0
 3405 0298 064B     		ldr	r3, .L261
 3406 029a 1B78     		ldrb	r3, [r3]
 3407 029c DBB2     		uxtb	r3, r3
 3408 029e 0122     		mov	r2, #1
 3409 02a0 9343     		bic	r3, r2
 3410 02a2 DAB2     		uxtb	r2, r3
 3411 02a4 034B     		ldr	r3, .L261
 3412 02a6 1A70     		strb	r2, [r3]
2830:.\Generated_Source\PSoC4/BLE_eventHandler.c ****             break;
 3413              		.loc 1 2830 0
 3414 02a8 00E0     		b	.L209
 3415              	.L253:
2831:.\Generated_Source\PSoC4/BLE_eventHandler.c **** 
2832:.\Generated_Source\PSoC4/BLE_eventHandler.c ****         case CYBLE_CLIENT_STATE_DISCOVERED:
2833:.\Generated_Source\PSoC4/BLE_eventHandler.c ****             #ifdef CYBLE_ANS_CLIENT
2834:.\Generated_Source\PSoC4/BLE_eventHandler.c ****                 CyBle_AnscErrorResponseEventHandler(eventParam);
2835:.\Generated_Source\PSoC4/BLE_eventHandler.c ****             #endif /* CYBLE_ANS_CLIENT */
2836:.\Generated_Source\PSoC4/BLE_eventHandler.c ****             #ifdef CYBLE_BAS_CLIENT
2837:.\Generated_Source\PSoC4/BLE_eventHandler.c ****                 if((cyBle_eventHandlerFlag & CYBLE_CALLBACK) != 0u)
2838:.\Generated_Source\PSoC4/BLE_eventHandler.c ****                 {
2839:.\Generated_Source\PSoC4/BLE_eventHandler.c ****                     CyBle_BascErrorResponseEventHandler(eventParam);
2840:.\Generated_Source\PSoC4/BLE_eventHandler.c ****                 }
2841:.\Generated_Source\PSoC4/BLE_eventHandler.c ****             #endif /* CYBLE_BAS_CLIENT */
2842:.\Generated_Source\PSoC4/BLE_eventHandler.c ****             #ifdef CYBLE_BLS_CLIENT
2843:.\Generated_Source\PSoC4/BLE_eventHandler.c ****                 if((cyBle_eventHandlerFlag & CYBLE_CALLBACK) != 0u)
2844:.\Generated_Source\PSoC4/BLE_eventHandler.c ****                 {
2845:.\Generated_Source\PSoC4/BLE_eventHandler.c ****                     CyBle_BlscErrorResponseEventHandler(eventParam);
2846:.\Generated_Source\PSoC4/BLE_eventHandler.c ****                 }
2847:.\Generated_Source\PSoC4/BLE_eventHandler.c ****             #endif /* CYBLE_BLS_CLIENT */
2848:.\Generated_Source\PSoC4/BLE_eventHandler.c ****             #ifdef CYBLE_CGMS_CLIENT
2849:.\Generated_Source\PSoC4/BLE_eventHandler.c ****                 if((cyBle_eventHandlerFlag & CYBLE_CALLBACK) != 0u)
2850:.\Generated_Source\PSoC4/BLE_eventHandler.c ****                 {
ARM GAS  C:\Users\Zachary\AppData\Local\Temp\ccmvMQUz.s 			page 112


2851:.\Generated_Source\PSoC4/BLE_eventHandler.c ****                     CyBle_CgmscErrorResponseEventHandler(eventParam);
2852:.\Generated_Source\PSoC4/BLE_eventHandler.c ****                 }
2853:.\Generated_Source\PSoC4/BLE_eventHandler.c ****             #endif /* CYBLE_CGMS_CLIENT */
2854:.\Generated_Source\PSoC4/BLE_eventHandler.c ****             #ifdef CYBLE_CPS_CLIENT
2855:.\Generated_Source\PSoC4/BLE_eventHandler.c ****                 if((cyBle_eventHandlerFlag & CYBLE_CALLBACK) != 0u)
2856:.\Generated_Source\PSoC4/BLE_eventHandler.c ****                 {
2857:.\Generated_Source\PSoC4/BLE_eventHandler.c ****                     CyBle_CpscErrorResponseEventHandler(eventParam);
2858:.\Generated_Source\PSoC4/BLE_eventHandler.c ****                 }
2859:.\Generated_Source\PSoC4/BLE_eventHandler.c ****             #endif /* CYBLE_CPS_CLIENT */
2860:.\Generated_Source\PSoC4/BLE_eventHandler.c ****             #ifdef CYBLE_CSCS_CLIENT
2861:.\Generated_Source\PSoC4/BLE_eventHandler.c ****                 if((cyBle_eventHandlerFlag & CYBLE_CALLBACK) != 0u)
2862:.\Generated_Source\PSoC4/BLE_eventHandler.c ****                 {
2863:.\Generated_Source\PSoC4/BLE_eventHandler.c ****                     CyBle_CscscErrorResponseEventHandler(eventParam);
2864:.\Generated_Source\PSoC4/BLE_eventHandler.c ****                 }
2865:.\Generated_Source\PSoC4/BLE_eventHandler.c ****             #endif /* CYBLE_CSCS_CLIENT */
2866:.\Generated_Source\PSoC4/BLE_eventHandler.c ****             #ifdef CYBLE_CTS_CLIENT
2867:.\Generated_Source\PSoC4/BLE_eventHandler.c ****                 if((cyBle_eventHandlerFlag & CYBLE_CALLBACK) != 0u)
2868:.\Generated_Source\PSoC4/BLE_eventHandler.c ****                 {
2869:.\Generated_Source\PSoC4/BLE_eventHandler.c ****                     CyBle_CtscErrorResponseEventHandler(eventParam);
2870:.\Generated_Source\PSoC4/BLE_eventHandler.c ****                 }
2871:.\Generated_Source\PSoC4/BLE_eventHandler.c ****             #endif /* CYBLE_CTS_CLIENT */
2872:.\Generated_Source\PSoC4/BLE_eventHandler.c ****             #ifdef CYBLE_DIS_CLIENT
2873:.\Generated_Source\PSoC4/BLE_eventHandler.c ****                 if((cyBle_eventHandlerFlag & CYBLE_CALLBACK) != 0u)
2874:.\Generated_Source\PSoC4/BLE_eventHandler.c ****                 {
2875:.\Generated_Source\PSoC4/BLE_eventHandler.c ****                     CyBle_DiscErrorResponseEventHandler(eventParam);
2876:.\Generated_Source\PSoC4/BLE_eventHandler.c ****                 }
2877:.\Generated_Source\PSoC4/BLE_eventHandler.c ****             #endif /* CYBLE_DIS_CLIENT */
2878:.\Generated_Source\PSoC4/BLE_eventHandler.c ****             #ifdef CYBLE_GLS_CLIENT
2879:.\Generated_Source\PSoC4/BLE_eventHandler.c ****                 if((cyBle_eventHandlerFlag & CYBLE_CALLBACK) != 0u)
2880:.\Generated_Source\PSoC4/BLE_eventHandler.c ****                 {
2881:.\Generated_Source\PSoC4/BLE_eventHandler.c ****                     CyBle_GlscErrorResponseEventHandler(eventParam);
2882:.\Generated_Source\PSoC4/BLE_eventHandler.c ****                 }
2883:.\Generated_Source\PSoC4/BLE_eventHandler.c ****             #endif /* CYBLE_GLS_CLIENT */
2884:.\Generated_Source\PSoC4/BLE_eventHandler.c ****             #ifdef CYBLE_HIDS_CLIENT
2885:.\Generated_Source\PSoC4/BLE_eventHandler.c ****                 if((cyBle_eventHandlerFlag & CYBLE_CALLBACK) != 0u)
2886:.\Generated_Source\PSoC4/BLE_eventHandler.c ****                 {
2887:.\Generated_Source\PSoC4/BLE_eventHandler.c ****                     CyBle_HidscErrorResponseEventHandler(eventParam);
2888:.\Generated_Source\PSoC4/BLE_eventHandler.c ****                 }
2889:.\Generated_Source\PSoC4/BLE_eventHandler.c ****             #endif /* CYBLE_HIDS_CLIENT */
2890:.\Generated_Source\PSoC4/BLE_eventHandler.c ****             #ifdef CYBLE_HRS_CLIENT
2891:.\Generated_Source\PSoC4/BLE_eventHandler.c ****                 if((cyBle_eventHandlerFlag & CYBLE_CALLBACK) != 0u)
2892:.\Generated_Source\PSoC4/BLE_eventHandler.c ****                 {
2893:.\Generated_Source\PSoC4/BLE_eventHandler.c ****                     CyBle_HrscErrorResponseEventHandler(eventParam);
2894:.\Generated_Source\PSoC4/BLE_eventHandler.c ****                 }
2895:.\Generated_Source\PSoC4/BLE_eventHandler.c ****             #endif /* CYBLE_HRS_CLIENT */
2896:.\Generated_Source\PSoC4/BLE_eventHandler.c ****             #ifdef CYBLE_HTS_CLIENT
2897:.\Generated_Source\PSoC4/BLE_eventHandler.c ****                 if((cyBle_eventHandlerFlag & CYBLE_CALLBACK) != 0u)
2898:.\Generated_Source\PSoC4/BLE_eventHandler.c ****                 {
2899:.\Generated_Source\PSoC4/BLE_eventHandler.c ****                     CyBle_HtscErrorResponseEventHandler(eventParam);
2900:.\Generated_Source\PSoC4/BLE_eventHandler.c ****                 }
2901:.\Generated_Source\PSoC4/BLE_eventHandler.c ****             #endif /* CYBLE_HTS_CLIENT */
2902:.\Generated_Source\PSoC4/BLE_eventHandler.c ****             #ifdef CYBLE_RSCS_CLIENT
2903:.\Generated_Source\PSoC4/BLE_eventHandler.c ****                 if((cyBle_eventHandlerFlag & CYBLE_CALLBACK) != 0u)
2904:.\Generated_Source\PSoC4/BLE_eventHandler.c ****                 {
2905:.\Generated_Source\PSoC4/BLE_eventHandler.c ****                     CyBle_RscscErrorResponseEventHandler(eventParam);
2906:.\Generated_Source\PSoC4/BLE_eventHandler.c ****                 }
2907:.\Generated_Source\PSoC4/BLE_eventHandler.c ****             #endif /* CYBLE_RSCS_CLIENT */
ARM GAS  C:\Users\Zachary\AppData\Local\Temp\ccmvMQUz.s 			page 113


2908:.\Generated_Source\PSoC4/BLE_eventHandler.c ****             #ifdef CYBLE_SCPS_CLIENT
2909:.\Generated_Source\PSoC4/BLE_eventHandler.c ****                 if((cyBle_eventHandlerFlag & CYBLE_CALLBACK) != 0u)
2910:.\Generated_Source\PSoC4/BLE_eventHandler.c ****                 {
2911:.\Generated_Source\PSoC4/BLE_eventHandler.c ****                     CyBle_ScpscErrorResponseEventHandler(eventParam);
2912:.\Generated_Source\PSoC4/BLE_eventHandler.c ****                 }
2913:.\Generated_Source\PSoC4/BLE_eventHandler.c ****             #endif /* CYBLE_SCPS_CLIENT */
2914:.\Generated_Source\PSoC4/BLE_eventHandler.c ****             #ifdef CYBLE_LLS_CLIENT
2915:.\Generated_Source\PSoC4/BLE_eventHandler.c ****                 if((cyBle_eventHandlerFlag & CYBLE_CALLBACK) != 0u)
2916:.\Generated_Source\PSoC4/BLE_eventHandler.c ****                 {
2917:.\Generated_Source\PSoC4/BLE_eventHandler.c ****                     CyBle_LlscErrorResponseEventHandler(eventParam);
2918:.\Generated_Source\PSoC4/BLE_eventHandler.c ****                 }
2919:.\Generated_Source\PSoC4/BLE_eventHandler.c ****             #endif /* CYBLE_LLS_CLIENT */
2920:.\Generated_Source\PSoC4/BLE_eventHandler.c ****             #ifdef CYBLE_LNS_CLIENT
2921:.\Generated_Source\PSoC4/BLE_eventHandler.c ****                 if((cyBle_eventHandlerFlag & CYBLE_CALLBACK) != 0u)
2922:.\Generated_Source\PSoC4/BLE_eventHandler.c ****                 {
2923:.\Generated_Source\PSoC4/BLE_eventHandler.c ****                     CyBle_LnscErrorResponseEventHandler(eventParam);
2924:.\Generated_Source\PSoC4/BLE_eventHandler.c ****                 }
2925:.\Generated_Source\PSoC4/BLE_eventHandler.c ****             #endif /* CYBLE_LNS_CLIENT */
2926:.\Generated_Source\PSoC4/BLE_eventHandler.c ****             #ifdef CYBLE_PASS_CLIENT
2927:.\Generated_Source\PSoC4/BLE_eventHandler.c ****                 if((cyBle_eventHandlerFlag & CYBLE_CALLBACK) != 0u)
2928:.\Generated_Source\PSoC4/BLE_eventHandler.c ****                 {
2929:.\Generated_Source\PSoC4/BLE_eventHandler.c ****                     CyBle_PasscErrorResponseEventHandler(eventParam);
2930:.\Generated_Source\PSoC4/BLE_eventHandler.c ****                 }
2931:.\Generated_Source\PSoC4/BLE_eventHandler.c ****             #endif /* CYBLE_PASS_CLIENT */
2932:.\Generated_Source\PSoC4/BLE_eventHandler.c ****             #ifdef CYBLE_TPS_CLIENT
2933:.\Generated_Source\PSoC4/BLE_eventHandler.c ****                 if((cyBle_eventHandlerFlag & CYBLE_CALLBACK) != 0u)
2934:.\Generated_Source\PSoC4/BLE_eventHandler.c ****                 {
2935:.\Generated_Source\PSoC4/BLE_eventHandler.c ****                     CyBle_TpscErrorResponseEventHandler(eventParam);
2936:.\Generated_Source\PSoC4/BLE_eventHandler.c ****                 }
2937:.\Generated_Source\PSoC4/BLE_eventHandler.c ****             #endif /* CYBLE_TPS_CLIENT */
2938:.\Generated_Source\PSoC4/BLE_eventHandler.c ****             #ifdef CYBLE_UDS_CLIENT
2939:.\Generated_Source\PSoC4/BLE_eventHandler.c ****                 if((cyBle_eventHandlerFlag & CYBLE_CALLBACK) != 0u)
2940:.\Generated_Source\PSoC4/BLE_eventHandler.c ****                 {
2941:.\Generated_Source\PSoC4/BLE_eventHandler.c ****                     CyBle_UdscErrorResponseEventHandler(eventParam);
2942:.\Generated_Source\PSoC4/BLE_eventHandler.c ****                 }
2943:.\Generated_Source\PSoC4/BLE_eventHandler.c ****             #endif /* CYBLE_UDS_CLIENT */
2944:.\Generated_Source\PSoC4/BLE_eventHandler.c ****             break;
2945:.\Generated_Source\PSoC4/BLE_eventHandler.c ****             
2946:.\Generated_Source\PSoC4/BLE_eventHandler.c ****         default:
2947:.\Generated_Source\PSoC4/BLE_eventHandler.c ****             break;
 3416              		.loc 1 2947 0
 3417 02aa C046     		mov	r8, r8
 3418              	.L209:
2948:.\Generated_Source\PSoC4/BLE_eventHandler.c ****         }
2949:.\Generated_Source\PSoC4/BLE_eventHandler.c ****     }
2950:.\Generated_Source\PSoC4/BLE_eventHandler.c **** }
 3419              		.loc 1 2950 0
 3420 02ac BD46     		mov	sp, r7
 3421 02ae 02B0     		add	sp, sp, #8
 3422              		@ sp needed
 3423 02b0 80BD     		pop	{r7, pc}
 3424              	.L262:
 3425 02b2 C046     		.align	2
 3426              	.L261:
 3427 02b4 00000000 		.word	cyBle_eventHandlerFlag
 3428 02b8 00000000 		.word	cyBle_clientState
 3429 02bc DC010000 		.word	.L213
ARM GAS  C:\Users\Zachary\AppData\Local\Temp\ccmvMQUz.s 			page 114


 3430 02c0 00000000 		.word	cyBle_disCount
 3431 02c4 00000000 		.word	CyBle_ApplCallback
 3432              		.cfi_endproc
 3433              	.LFE21:
 3434              		.size	CyBle_ErrorResponseEventHandler, .-CyBle_ErrorResponseEventHandler
 3435              		.text
 3436              	.Letext0:
 3437              		.file 2 ".\\Generated_Source\\PSoC4\\cytypes.h"
 3438              		.file 3 ".\\Generated_Source\\PSoC4\\BLE_Stack.h"
 3439              		.file 4 ".\\Generated_Source\\PSoC4\\BLE_StackHostMain.h"
 3440              		.file 5 ".\\Generated_Source\\PSoC4\\BLE_StackGap.h"
 3441              		.file 6 ".\\Generated_Source\\PSoC4\\BLE_StackGatt.h"
 3442              		.file 7 ".\\Generated_Source\\PSoC4\\BLE_StackGattClient.h"
 3443              		.file 8 ".\\Generated_Source\\PSoC4\\BLE.h"
 3444              		.file 9 ".\\Generated_Source\\PSoC4\\BLE_gatt.h"
 3445              		.file 10 ".\\Generated_Source\\PSoC4\\BLE_eventHandler.h"
 3446              		.section	.debug_info,"",%progbits
 3447              	.Ldebug_info0:
 3448 0000 A3170000 		.4byte	0x17a3
 3449 0004 0400     		.2byte	0x4
 3450 0006 00000000 		.4byte	.Ldebug_abbrev0
 3451 000a 04       		.byte	0x4
 3452 000b 01       		.uleb128 0x1
 3453 000c 8F230000 		.4byte	.LASF554
 3454 0010 01       		.byte	0x1
 3455 0011 F90B0000 		.4byte	.LASF555
 3456 0015 BB0F0000 		.4byte	.LASF556
 3457 0019 00000000 		.4byte	.Ldebug_ranges0+0
 3458 001d 00000000 		.4byte	0
 3459 0021 00000000 		.4byte	.Ldebug_line0
 3460 0025 02       		.uleb128 0x2
 3461 0026 01       		.byte	0x1
 3462 0027 06       		.byte	0x6
 3463 0028 340D0000 		.4byte	.LASF0
 3464 002c 02       		.uleb128 0x2
 3465 002d 01       		.byte	0x1
 3466 002e 08       		.byte	0x8
 3467 002f 770E0000 		.4byte	.LASF1
 3468 0033 02       		.uleb128 0x2
 3469 0034 02       		.byte	0x2
 3470 0035 05       		.byte	0x5
 3471 0036 3A330000 		.4byte	.LASF2
 3472 003a 02       		.uleb128 0x2
 3473 003b 02       		.byte	0x2
 3474 003c 07       		.byte	0x7
 3475 003d 673A0000 		.4byte	.LASF3
 3476 0041 02       		.uleb128 0x2
 3477 0042 04       		.byte	0x4
 3478 0043 05       		.byte	0x5
 3479 0044 240A0000 		.4byte	.LASF4
 3480 0048 02       		.uleb128 0x2
 3481 0049 04       		.byte	0x4
 3482 004a 07       		.byte	0x7
 3483 004b 7E1A0000 		.4byte	.LASF5
 3484 004f 02       		.uleb128 0x2
 3485 0050 08       		.byte	0x8
 3486 0051 05       		.byte	0x5
ARM GAS  C:\Users\Zachary\AppData\Local\Temp\ccmvMQUz.s 			page 115


 3487 0052 BE1E0000 		.4byte	.LASF6
 3488 0056 02       		.uleb128 0x2
 3489 0057 08       		.byte	0x8
 3490 0058 07       		.byte	0x7
 3491 0059 F22A0000 		.4byte	.LASF7
 3492 005d 03       		.uleb128 0x3
 3493 005e 04       		.byte	0x4
 3494 005f 05       		.byte	0x5
 3495 0060 696E7400 		.ascii	"int\000"
 3496 0064 02       		.uleb128 0x2
 3497 0065 04       		.byte	0x4
 3498 0066 07       		.byte	0x7
 3499 0067 98220000 		.4byte	.LASF8
 3500 006b 04       		.uleb128 0x4
 3501 006c 95320000 		.4byte	.LASF9
 3502 0070 02       		.byte	0x2
 3503 0071 A1       		.byte	0xa1
 3504 0072 2C000000 		.4byte	0x2c
 3505 0076 04       		.uleb128 0x4
 3506 0077 283D0000 		.4byte	.LASF10
 3507 007b 02       		.byte	0x2
 3508 007c A2       		.byte	0xa2
 3509 007d 3A000000 		.4byte	0x3a
 3510 0081 04       		.uleb128 0x4
 3511 0082 B0020000 		.4byte	.LASF11
 3512 0086 02       		.byte	0x2
 3513 0087 A3       		.byte	0xa3
 3514 0088 48000000 		.4byte	0x48
 3515 008c 02       		.uleb128 0x2
 3516 008d 04       		.byte	0x4
 3517 008e 04       		.byte	0x4
 3518 008f AA210000 		.4byte	.LASF12
 3519 0093 02       		.uleb128 0x2
 3520 0094 08       		.byte	0x8
 3521 0095 04       		.byte	0x4
 3522 0096 08200000 		.4byte	.LASF13
 3523 009a 02       		.uleb128 0x2
 3524 009b 01       		.byte	0x1
 3525 009c 08       		.byte	0x8
 3526 009d 51110000 		.4byte	.LASF14
 3527 00a1 05       		.uleb128 0x5
 3528 00a2 6B000000 		.4byte	0x6b
 3529 00a6 02       		.uleb128 0x2
 3530 00a7 04       		.byte	0x4
 3531 00a8 07       		.byte	0x7
 3532 00a9 64000000 		.4byte	.LASF15
 3533 00ad 06       		.uleb128 0x6
 3534 00ae 04       		.byte	0x4
 3535 00af 07       		.uleb128 0x7
 3536 00b0 01       		.byte	0x1
 3537 00b1 03       		.byte	0x3
 3538 00b2 58       		.byte	0x58
 3539 00b3 1F020000 		.4byte	0x21f
 3540 00b7 08       		.uleb128 0x8
 3541 00b8 0C120000 		.4byte	.LASF16
 3542 00bc 00       		.sleb128 0
 3543 00bd 08       		.uleb128 0x8
ARM GAS  C:\Users\Zachary\AppData\Local\Temp\ccmvMQUz.s 			page 116


 3544 00be 1B0B0000 		.4byte	.LASF17
 3545 00c2 01       		.sleb128 1
 3546 00c3 08       		.uleb128 0x8
 3547 00c4 272B0000 		.4byte	.LASF18
 3548 00c8 02       		.sleb128 2
 3549 00c9 08       		.uleb128 0x8
 3550 00ca 980D0000 		.4byte	.LASF19
 3551 00ce 03       		.sleb128 3
 3552 00cf 08       		.uleb128 0x8
 3553 00d0 C63B0000 		.4byte	.LASF20
 3554 00d4 04       		.sleb128 4
 3555 00d5 08       		.uleb128 0x8
 3556 00d6 A4380000 		.4byte	.LASF21
 3557 00da 05       		.sleb128 5
 3558 00db 08       		.uleb128 0x8
 3559 00dc 64350000 		.4byte	.LASF22
 3560 00e0 20       		.sleb128 32
 3561 00e1 08       		.uleb128 0x8
 3562 00e2 8D070000 		.4byte	.LASF23
 3563 00e6 21       		.sleb128 33
 3564 00e7 08       		.uleb128 0x8
 3565 00e8 B01D0000 		.4byte	.LASF24
 3566 00ec 22       		.sleb128 34
 3567 00ed 08       		.uleb128 0x8
 3568 00ee 6C260000 		.4byte	.LASF25
 3569 00f2 23       		.sleb128 35
 3570 00f3 08       		.uleb128 0x8
 3571 00f4 2D190000 		.4byte	.LASF26
 3572 00f8 24       		.sleb128 36
 3573 00f9 08       		.uleb128 0x8
 3574 00fa 6D190000 		.4byte	.LASF27
 3575 00fe 25       		.sleb128 37
 3576 00ff 08       		.uleb128 0x8
 3577 0100 05320000 		.4byte	.LASF28
 3578 0104 26       		.sleb128 38
 3579 0105 08       		.uleb128 0x8
 3580 0106 0E020000 		.4byte	.LASF29
 3581 010a 27       		.sleb128 39
 3582 010b 08       		.uleb128 0x8
 3583 010c A13C0000 		.4byte	.LASF30
 3584 0110 28       		.sleb128 40
 3585 0111 08       		.uleb128 0x8
 3586 0112 23290000 		.4byte	.LASF31
 3587 0116 29       		.sleb128 41
 3588 0117 08       		.uleb128 0x8
 3589 0118 951C0000 		.4byte	.LASF32
 3590 011c 2A       		.sleb128 42
 3591 011d 08       		.uleb128 0x8
 3592 011e 79250000 		.4byte	.LASF33
 3593 0122 2B       		.sleb128 43
 3594 0123 08       		.uleb128 0x8
 3595 0124 0E390000 		.4byte	.LASF34
 3596 0128 2C       		.sleb128 44
 3597 0129 08       		.uleb128 0x8
 3598 012a EF330000 		.4byte	.LASF35
 3599 012e C000     		.sleb128 64
 3600 0130 08       		.uleb128 0x8
ARM GAS  C:\Users\Zachary\AppData\Local\Temp\ccmvMQUz.s 			page 117


 3601 0131 4E020000 		.4byte	.LASF36
 3602 0135 C100     		.sleb128 65
 3603 0137 08       		.uleb128 0x8
 3604 0138 DB3B0000 		.4byte	.LASF37
 3605 013c C200     		.sleb128 66
 3606 013e 08       		.uleb128 0x8
 3607 013f 8D290000 		.4byte	.LASF38
 3608 0143 C300     		.sleb128 67
 3609 0145 08       		.uleb128 0x8
 3610 0146 850E0000 		.4byte	.LASF39
 3611 014a C400     		.sleb128 68
 3612 014c 08       		.uleb128 0x8
 3613 014d 190E0000 		.4byte	.LASF40
 3614 0151 C500     		.sleb128 69
 3615 0153 08       		.uleb128 0x8
 3616 0154 AB2F0000 		.4byte	.LASF41
 3617 0158 C600     		.sleb128 70
 3618 015a 08       		.uleb128 0x8
 3619 015b 8D2F0000 		.4byte	.LASF42
 3620 015f C700     		.sleb128 71
 3621 0161 08       		.uleb128 0x8
 3622 0162 05110000 		.4byte	.LASF43
 3623 0166 C800     		.sleb128 72
 3624 0168 08       		.uleb128 0x8
 3625 0169 E1260000 		.4byte	.LASF44
 3626 016d C900     		.sleb128 73
 3627 016f 08       		.uleb128 0x8
 3628 0170 9A120000 		.4byte	.LASF45
 3629 0174 CA00     		.sleb128 74
 3630 0176 08       		.uleb128 0x8
 3631 0177 A2110000 		.4byte	.LASF46
 3632 017b CB00     		.sleb128 75
 3633 017d 08       		.uleb128 0x8
 3634 017e 17260000 		.4byte	.LASF47
 3635 0182 CC00     		.sleb128 76
 3636 0184 08       		.uleb128 0x8
 3637 0185 06310000 		.4byte	.LASF48
 3638 0189 CD00     		.sleb128 77
 3639 018b 08       		.uleb128 0x8
 3640 018c E2090000 		.4byte	.LASF49
 3641 0190 CE00     		.sleb128 78
 3642 0192 08       		.uleb128 0x8
 3643 0193 A5220000 		.4byte	.LASF50
 3644 0197 CF00     		.sleb128 79
 3645 0199 08       		.uleb128 0x8
 3646 019a 45350000 		.4byte	.LASF51
 3647 019e D000     		.sleb128 80
 3648 01a0 08       		.uleb128 0x8
 3649 01a1 15130000 		.4byte	.LASF52
 3650 01a5 D100     		.sleb128 81
 3651 01a7 08       		.uleb128 0x8
 3652 01a8 6C070000 		.4byte	.LASF53
 3653 01ac D200     		.sleb128 82
 3654 01ae 08       		.uleb128 0x8
 3655 01af 1A380000 		.4byte	.LASF54
 3656 01b3 D300     		.sleb128 83
 3657 01b5 08       		.uleb128 0x8
ARM GAS  C:\Users\Zachary\AppData\Local\Temp\ccmvMQUz.s 			page 118


 3658 01b6 E33C0000 		.4byte	.LASF55
 3659 01ba D400     		.sleb128 84
 3660 01bc 08       		.uleb128 0x8
 3661 01bd 5F050000 		.4byte	.LASF56
 3662 01c1 D500     		.sleb128 85
 3663 01c3 08       		.uleb128 0x8
 3664 01c4 84390000 		.4byte	.LASF57
 3665 01c8 F000     		.sleb128 112
 3666 01ca 08       		.uleb128 0x8
 3667 01cb FB170000 		.4byte	.LASF58
 3668 01cf F100     		.sleb128 113
 3669 01d1 08       		.uleb128 0x8
 3670 01d2 9A0C0000 		.4byte	.LASF59
 3671 01d6 F200     		.sleb128 114
 3672 01d8 08       		.uleb128 0x8
 3673 01d9 27350000 		.4byte	.LASF60
 3674 01dd F300     		.sleb128 115
 3675 01df 08       		.uleb128 0x8
 3676 01e0 4E270000 		.4byte	.LASF61
 3677 01e4 F400     		.sleb128 116
 3678 01e6 08       		.uleb128 0x8
 3679 01e7 301D0000 		.4byte	.LASF62
 3680 01eb F500     		.sleb128 117
 3681 01ed 08       		.uleb128 0x8
 3682 01ee E4100000 		.4byte	.LASF63
 3683 01f2 F600     		.sleb128 118
 3684 01f4 08       		.uleb128 0x8
 3685 01f5 F62B0000 		.4byte	.LASF64
 3686 01f9 F700     		.sleb128 119
 3687 01fb 08       		.uleb128 0x8
 3688 01fc 83050000 		.4byte	.LASF65
 3689 0200 F800     		.sleb128 120
 3690 0202 08       		.uleb128 0x8
 3691 0203 730F0000 		.4byte	.LASF66
 3692 0207 F900     		.sleb128 121
 3693 0209 08       		.uleb128 0x8
 3694 020a 3F3C0000 		.4byte	.LASF67
 3695 020e FA00     		.sleb128 122
 3696 0210 08       		.uleb128 0x8
 3697 0211 31200000 		.4byte	.LASF68
 3698 0215 FA01     		.sleb128 250
 3699 0217 08       		.uleb128 0x8
 3700 0218 6B250000 		.4byte	.LASF69
 3701 021c FF01     		.sleb128 255
 3702 021e 00       		.byte	0
 3703 021f 09       		.uleb128 0x9
 3704 0220 02       		.byte	0x2
 3705 0221 03       		.byte	0x3
 3706 0222 9A01     		.2byte	0x19a
 3707 0224 EB020000 		.4byte	0x2eb
 3708 0228 08       		.uleb128 0x8
 3709 0229 C40D0000 		.4byte	.LASF70
 3710 022d 00       		.sleb128 0
 3711 022e 08       		.uleb128 0x8
 3712 022f DA140000 		.4byte	.LASF71
 3713 0233 01       		.sleb128 1
 3714 0234 08       		.uleb128 0x8
ARM GAS  C:\Users\Zachary\AppData\Local\Temp\ccmvMQUz.s 			page 119


 3715 0235 A83B0000 		.4byte	.LASF72
 3716 0239 02       		.sleb128 2
 3717 023a 08       		.uleb128 0x8
 3718 023b 2E160000 		.4byte	.LASF73
 3719 023f 03       		.sleb128 3
 3720 0240 08       		.uleb128 0x8
 3721 0241 FA190000 		.4byte	.LASF74
 3722 0245 04       		.sleb128 4
 3723 0246 08       		.uleb128 0x8
 3724 0247 C71F0000 		.4byte	.LASF75
 3725 024b 05       		.sleb128 5
 3726 024c 08       		.uleb128 0x8
 3727 024d 0E370000 		.4byte	.LASF76
 3728 0251 06       		.sleb128 6
 3729 0252 08       		.uleb128 0x8
 3730 0253 7D120000 		.4byte	.LASF77
 3731 0257 07       		.sleb128 7
 3732 0258 08       		.uleb128 0x8
 3733 0259 68210000 		.4byte	.LASF78
 3734 025d 08       		.sleb128 8
 3735 025e 08       		.uleb128 0x8
 3736 025f BB350000 		.4byte	.LASF79
 3737 0263 09       		.sleb128 9
 3738 0264 08       		.uleb128 0x8
 3739 0265 2F3D0000 		.4byte	.LASF80
 3740 0269 0A       		.sleb128 10
 3741 026a 08       		.uleb128 0x8
 3742 026b 03080000 		.4byte	.LASF81
 3743 026f 0B       		.sleb128 11
 3744 0270 08       		.uleb128 0x8
 3745 0271 8D380000 		.4byte	.LASF82
 3746 0275 0C       		.sleb128 12
 3747 0276 08       		.uleb128 0x8
 3748 0277 90240000 		.4byte	.LASF83
 3749 027b 0D       		.sleb128 13
 3750 027c 08       		.uleb128 0x8
 3751 027d B11B0000 		.4byte	.LASF84
 3752 0281 0E       		.sleb128 14
 3753 0282 08       		.uleb128 0x8
 3754 0283 A21F0000 		.4byte	.LASF85
 3755 0287 0F       		.sleb128 15
 3756 0288 08       		.uleb128 0x8
 3757 0289 B6040000 		.4byte	.LASF86
 3758 028d 10       		.sleb128 16
 3759 028e 08       		.uleb128 0x8
 3760 028f 44210000 		.4byte	.LASF87
 3761 0293 11       		.sleb128 17
 3762 0294 08       		.uleb128 0x8
 3763 0295 2E0B0000 		.4byte	.LASF88
 3764 0299 12       		.sleb128 18
 3765 029a 08       		.uleb128 0x8
 3766 029b 0C0D0000 		.4byte	.LASF89
 3767 029f 13       		.sleb128 19
 3768 02a0 08       		.uleb128 0x8
 3769 02a1 0F200000 		.4byte	.LASF90
 3770 02a5 27       		.sleb128 39
 3771 02a6 08       		.uleb128 0x8
ARM GAS  C:\Users\Zachary\AppData\Local\Temp\ccmvMQUz.s 			page 120


 3772 02a7 EF210000 		.4byte	.LASF91
 3773 02ab 28       		.sleb128 40
 3774 02ac 08       		.uleb128 0x8
 3775 02ad 08050000 		.4byte	.LASF92
 3776 02b1 29       		.sleb128 41
 3777 02b2 08       		.uleb128 0x8
 3778 02b3 C8170000 		.4byte	.LASF93
 3779 02b7 FF01     		.sleb128 255
 3780 02b9 08       		.uleb128 0x8
 3781 02ba A4190000 		.4byte	.LASF94
 3782 02be 8002     		.sleb128 256
 3783 02c0 08       		.uleb128 0x8
 3784 02c1 003A0000 		.4byte	.LASF95
 3785 02c5 8102     		.sleb128 257
 3786 02c7 08       		.uleb128 0x8
 3787 02c8 FA150000 		.4byte	.LASF96
 3788 02cc 8202     		.sleb128 258
 3789 02ce 08       		.uleb128 0x8
 3790 02cf AB260000 		.4byte	.LASF97
 3791 02d3 8302     		.sleb128 259
 3792 02d5 08       		.uleb128 0x8
 3793 02d6 92260000 		.4byte	.LASF98
 3794 02da 8402     		.sleb128 260
 3795 02dc 08       		.uleb128 0x8
 3796 02dd 250C0000 		.4byte	.LASF99
 3797 02e1 8502     		.sleb128 261
 3798 02e3 08       		.uleb128 0x8
 3799 02e4 B02B0000 		.4byte	.LASF100
 3800 02e8 8602     		.sleb128 262
 3801 02ea 00       		.byte	0
 3802 02eb 0A       		.uleb128 0xa
 3803 02ec 54370000 		.4byte	.LASF101
 3804 02f0 03       		.byte	0x3
 3805 02f1 F401     		.2byte	0x1f4
 3806 02f3 1F020000 		.4byte	0x21f
 3807 02f7 09       		.uleb128 0x9
 3808 02f8 01       		.byte	0x1
 3809 02f9 03       		.byte	0x3
 3810 02fa 2502     		.2byte	0x225
 3811 02fc 37030000 		.4byte	0x337
 3812 0300 08       		.uleb128 0x8
 3813 0301 400D0000 		.4byte	.LASF102
 3814 0305 01       		.sleb128 1
 3815 0306 08       		.uleb128 0x8
 3816 0307 37090000 		.4byte	.LASF103
 3817 030b 02       		.sleb128 2
 3818 030c 08       		.uleb128 0x8
 3819 030d 2D280000 		.4byte	.LASF104
 3820 0311 03       		.sleb128 3
 3821 0312 08       		.uleb128 0x8
 3822 0313 6C080000 		.4byte	.LASF105
 3823 0317 04       		.sleb128 4
 3824 0318 08       		.uleb128 0x8
 3825 0319 56110000 		.4byte	.LASF106
 3826 031d 05       		.sleb128 5
 3827 031e 08       		.uleb128 0x8
 3828 031f E61A0000 		.4byte	.LASF107
ARM GAS  C:\Users\Zachary\AppData\Local\Temp\ccmvMQUz.s 			page 121


 3829 0323 06       		.sleb128 6
 3830 0324 08       		.uleb128 0x8
 3831 0325 28370000 		.4byte	.LASF108
 3832 0329 07       		.sleb128 7
 3833 032a 08       		.uleb128 0x8
 3834 032b 671A0000 		.4byte	.LASF109
 3835 032f 08       		.sleb128 8
 3836 0330 08       		.uleb128 0x8
 3837 0331 78200000 		.4byte	.LASF110
 3838 0335 09       		.sleb128 9
 3839 0336 00       		.byte	0
 3840 0337 0A       		.uleb128 0xa
 3841 0338 D41D0000 		.4byte	.LASF111
 3842 033c 03       		.byte	0x3
 3843 033d 2F02     		.2byte	0x22f
 3844 033f F7020000 		.4byte	0x2f7
 3845 0343 09       		.uleb128 0x9
 3846 0344 01       		.byte	0x1
 3847 0345 03       		.byte	0x3
 3848 0346 3302     		.2byte	0x233
 3849 0348 5F030000 		.4byte	0x35f
 3850 034c 08       		.uleb128 0x8
 3851 034d 3F370000 		.4byte	.LASF112
 3852 0351 00       		.sleb128 0
 3853 0352 08       		.uleb128 0x8
 3854 0353 53230000 		.4byte	.LASF113
 3855 0357 01       		.sleb128 1
 3856 0358 08       		.uleb128 0x8
 3857 0359 6F390000 		.4byte	.LASF114
 3858 035d 02       		.sleb128 2
 3859 035e 00       		.byte	0
 3860 035f 0A       		.uleb128 0xa
 3861 0360 D30D0000 		.4byte	.LASF115
 3862 0364 03       		.byte	0x3
 3863 0365 3A02     		.2byte	0x23a
 3864 0367 43030000 		.4byte	0x343
 3865 036b 0B       		.uleb128 0xb
 3866 036c 02       		.byte	0x2
 3867 036d 03       		.byte	0x3
 3868 036e 3D02     		.2byte	0x23d
 3869 0370 8F030000 		.4byte	0x38f
 3870 0374 0C       		.uleb128 0xc
 3871 0375 03030000 		.4byte	.LASF116
 3872 0379 03       		.byte	0x3
 3873 037a 4002     		.2byte	0x240
 3874 037c 37030000 		.4byte	0x337
 3875 0380 00       		.byte	0
 3876 0381 0C       		.uleb128 0xc
 3877 0382 730C0000 		.4byte	.LASF117
 3878 0386 03       		.byte	0x3
 3879 0387 4202     		.2byte	0x242
 3880 0389 5F030000 		.4byte	0x35f
 3881 038d 01       		.byte	0x1
 3882 038e 00       		.byte	0
 3883 038f 0A       		.uleb128 0xa
 3884 0390 4F390000 		.4byte	.LASF118
 3885 0394 03       		.byte	0x3
ARM GAS  C:\Users\Zachary\AppData\Local\Temp\ccmvMQUz.s 			page 122


 3886 0395 4302     		.2byte	0x243
 3887 0397 6B030000 		.4byte	0x36b
 3888 039b 0B       		.uleb128 0xb
 3889 039c 07       		.byte	0x7
 3890 039d 03       		.byte	0x3
 3891 039e 7502     		.2byte	0x275
 3892 03a0 BF030000 		.4byte	0x3bf
 3893 03a4 0C       		.uleb128 0xc
 3894 03a5 5D360000 		.4byte	.LASF119
 3895 03a9 03       		.byte	0x3
 3896 03aa 7702     		.2byte	0x277
 3897 03ac BF030000 		.4byte	0x3bf
 3898 03b0 00       		.byte	0
 3899 03b1 0C       		.uleb128 0xc
 3900 03b2 13060000 		.4byte	.LASF120
 3901 03b6 03       		.byte	0x3
 3902 03b7 7802     		.2byte	0x278
 3903 03b9 6B000000 		.4byte	0x6b
 3904 03bd 06       		.byte	0x6
 3905 03be 00       		.byte	0
 3906 03bf 0D       		.uleb128 0xd
 3907 03c0 6B000000 		.4byte	0x6b
 3908 03c4 CF030000 		.4byte	0x3cf
 3909 03c8 0E       		.uleb128 0xe
 3910 03c9 A6000000 		.4byte	0xa6
 3911 03cd 05       		.byte	0x5
 3912 03ce 00       		.byte	0
 3913 03cf 0A       		.uleb128 0xa
 3914 03d0 ED2D0000 		.4byte	.LASF121
 3915 03d4 03       		.byte	0x3
 3916 03d5 7902     		.2byte	0x279
 3917 03d7 9B030000 		.4byte	0x39b
 3918 03db 07       		.uleb128 0x7
 3919 03dc 01       		.byte	0x1
 3920 03dd 04       		.byte	0x4
 3921 03de 44       		.byte	0x44
 3922 03df FC030000 		.4byte	0x3fc
 3923 03e3 08       		.uleb128 0x8
 3924 03e4 1A2E0000 		.4byte	.LASF122
 3925 03e8 01       		.sleb128 1
 3926 03e9 08       		.uleb128 0x8
 3927 03ea 5B2D0000 		.4byte	.LASF123
 3928 03ee 02       		.sleb128 2
 3929 03ef 08       		.uleb128 0x8
 3930 03f0 073C0000 		.4byte	.LASF124
 3931 03f4 03       		.sleb128 3
 3932 03f5 08       		.uleb128 0x8
 3933 03f6 4F2F0000 		.4byte	.LASF125
 3934 03fa 04       		.sleb128 4
 3935 03fb 00       		.byte	0
 3936 03fc 04       		.uleb128 0x4
 3937 03fd 18060000 		.4byte	.LASF126
 3938 0401 04       		.byte	0x4
 3939 0402 51       		.byte	0x51
 3940 0403 DB030000 		.4byte	0x3db
 3941 0407 07       		.uleb128 0x7
 3942 0408 01       		.byte	0x1
ARM GAS  C:\Users\Zachary\AppData\Local\Temp\ccmvMQUz.s 			page 123


 3943 0409 05       		.byte	0x5
 3944 040a B1       		.byte	0xb1
 3945 040b 28040000 		.4byte	0x428
 3946 040f 08       		.uleb128 0x8
 3947 0410 B70A0000 		.4byte	.LASF127
 3948 0414 00       		.sleb128 0
 3949 0415 08       		.uleb128 0x8
 3950 0416 CD0A0000 		.4byte	.LASF128
 3951 041a 01       		.sleb128 1
 3952 041b 08       		.uleb128 0x8
 3953 041c E30A0000 		.4byte	.LASF129
 3954 0420 02       		.sleb128 2
 3955 0421 08       		.uleb128 0x8
 3956 0422 E5130000 		.4byte	.LASF130
 3957 0426 0F       		.sleb128 15
 3958 0427 00       		.byte	0
 3959 0428 07       		.uleb128 0x7
 3960 0429 01       		.byte	0x1
 3961 042a 05       		.byte	0x5
 3962 042b CB       		.byte	0xcb
 3963 042c 4F040000 		.4byte	0x44f
 3964 0430 08       		.uleb128 0x8
 3965 0431 40080000 		.4byte	.LASF131
 3966 0435 00       		.sleb128 0
 3967 0436 08       		.uleb128 0x8
 3968 0437 CC380000 		.4byte	.LASF132
 3969 043b 01       		.sleb128 1
 3970 043c 08       		.uleb128 0x8
 3971 043d D7110000 		.4byte	.LASF133
 3972 0441 02       		.sleb128 2
 3973 0442 08       		.uleb128 0x8
 3974 0443 2D020000 		.4byte	.LASF134
 3975 0447 03       		.sleb128 3
 3976 0448 08       		.uleb128 0x8
 3977 0449 09340000 		.4byte	.LASF135
 3978 044d 04       		.sleb128 4
 3979 044e 00       		.byte	0
 3980 044f 07       		.uleb128 0x7
 3981 0450 01       		.byte	0x1
 3982 0451 05       		.byte	0x5
 3983 0452 E1       		.byte	0xe1
 3984 0453 A6040000 		.4byte	0x4a6
 3985 0457 08       		.uleb128 0x8
 3986 0458 09290000 		.4byte	.LASF136
 3987 045c 00       		.sleb128 0
 3988 045d 08       		.uleb128 0x8
 3989 045e E0080000 		.4byte	.LASF137
 3990 0462 01       		.sleb128 1
 3991 0463 08       		.uleb128 0x8
 3992 0464 E8290000 		.4byte	.LASF138
 3993 0468 02       		.sleb128 2
 3994 0469 08       		.uleb128 0x8
 3995 046a 2C1B0000 		.4byte	.LASF139
 3996 046e 03       		.sleb128 3
 3997 046f 08       		.uleb128 0x8
 3998 0470 393B0000 		.4byte	.LASF140
 3999 0474 04       		.sleb128 4
ARM GAS  C:\Users\Zachary\AppData\Local\Temp\ccmvMQUz.s 			page 124


 4000 0475 08       		.uleb128 0x8
 4001 0476 012F0000 		.4byte	.LASF141
 4002 047a 05       		.sleb128 5
 4003 047b 08       		.uleb128 0x8
 4004 047c 6C1E0000 		.4byte	.LASF142
 4005 0480 06       		.sleb128 6
 4006 0481 08       		.uleb128 0x8
 4007 0482 011B0000 		.4byte	.LASF143
 4008 0486 07       		.sleb128 7
 4009 0487 08       		.uleb128 0x8
 4010 0488 A0060000 		.4byte	.LASF144
 4011 048c 08       		.sleb128 8
 4012 048d 08       		.uleb128 0x8
 4013 048e 091D0000 		.4byte	.LASF145
 4014 0492 09       		.sleb128 9
 4015 0493 08       		.uleb128 0x8
 4016 0494 8C100000 		.4byte	.LASF146
 4017 0498 0A       		.sleb128 10
 4018 0499 08       		.uleb128 0x8
 4019 049a 52060000 		.4byte	.LASF147
 4020 049e 15       		.sleb128 21
 4021 049f 08       		.uleb128 0x8
 4022 04a0 21180000 		.4byte	.LASF148
 4023 04a4 18       		.sleb128 24
 4024 04a5 00       		.byte	0
 4025 04a6 0A       		.uleb128 0xa
 4026 04a7 F8250000 		.4byte	.LASF149
 4027 04ab 05       		.byte	0x5
 4028 04ac 0D01     		.2byte	0x10d
 4029 04ae 4F040000 		.4byte	0x44f
 4030 04b2 0B       		.uleb128 0xb
 4031 04b3 04       		.byte	0x4
 4032 04b4 05       		.byte	0x5
 4033 04b5 2601     		.2byte	0x126
 4034 04b7 F0040000 		.4byte	0x4f0
 4035 04bb 0C       		.uleb128 0xc
 4036 04bc CC320000 		.4byte	.LASF150
 4037 04c0 05       		.byte	0x5
 4038 04c1 2F01     		.2byte	0x12f
 4039 04c3 6B000000 		.4byte	0x6b
 4040 04c7 00       		.byte	0
 4041 04c8 0C       		.uleb128 0xc
 4042 04c9 8B220000 		.4byte	.LASF151
 4043 04cd 05       		.byte	0x5
 4044 04ce 3501     		.2byte	0x135
 4045 04d0 6B000000 		.4byte	0x6b
 4046 04d4 01       		.byte	0x1
 4047 04d5 0C       		.uleb128 0xc
 4048 04d6 C5000000 		.4byte	.LASF152
 4049 04da 05       		.byte	0x5
 4050 04db 3B01     		.2byte	0x13b
 4051 04dd 6B000000 		.4byte	0x6b
 4052 04e1 02       		.byte	0x2
 4053 04e2 0C       		.uleb128 0xc
 4054 04e3 44330000 		.4byte	.LASF153
 4055 04e7 05       		.byte	0x5
 4056 04e8 3F01     		.2byte	0x13f
ARM GAS  C:\Users\Zachary\AppData\Local\Temp\ccmvMQUz.s 			page 125


 4057 04ea A6040000 		.4byte	0x4a6
 4058 04ee 03       		.byte	0x3
 4059 04ef 00       		.byte	0
 4060 04f0 0A       		.uleb128 0xa
 4061 04f1 C1110000 		.4byte	.LASF154
 4062 04f5 05       		.byte	0x5
 4063 04f6 4101     		.2byte	0x141
 4064 04f8 B2040000 		.4byte	0x4b2
 4065 04fc 0D       		.uleb128 0xd
 4066 04fd 6B000000 		.4byte	0x6b
 4067 0501 0C050000 		.4byte	0x50c
 4068 0505 0E       		.uleb128 0xe
 4069 0506 A6000000 		.4byte	0xa6
 4070 050a 0F       		.byte	0xf
 4071 050b 00       		.byte	0
 4072 050c 0F       		.uleb128 0xf
 4073 050d 04       		.byte	0x4
 4074 050e 6B000000 		.4byte	0x6b
 4075 0512 0B       		.uleb128 0xb
 4076 0513 08       		.byte	0x8
 4077 0514 05       		.byte	0x5
 4078 0515 AD02     		.2byte	0x2ad
 4079 0517 50050000 		.4byte	0x550
 4080 051b 0C       		.uleb128 0xc
 4081 051c DF1A0000 		.4byte	.LASF155
 4082 0520 05       		.byte	0x5
 4083 0521 B102     		.2byte	0x2b1
 4084 0523 6B000000 		.4byte	0x6b
 4085 0527 00       		.byte	0
 4086 0528 0C       		.uleb128 0xc
 4087 0529 5E3A0000 		.4byte	.LASF156
 4088 052d 05       		.byte	0x5
 4089 052e B702     		.2byte	0x2b7
 4090 0530 76000000 		.4byte	0x76
 4091 0534 02       		.byte	0x2
 4092 0535 0C       		.uleb128 0xc
 4093 0536 C0380000 		.4byte	.LASF157
 4094 053a 05       		.byte	0x5
 4095 053b BC02     		.2byte	0x2bc
 4096 053d 76000000 		.4byte	0x76
 4097 0541 04       		.byte	0x4
 4098 0542 0C       		.uleb128 0xc
 4099 0543 F93B0000 		.4byte	.LASF158
 4100 0547 05       		.byte	0x5
 4101 0548 C202     		.2byte	0x2c2
 4102 054a 76000000 		.4byte	0x76
 4103 054e 06       		.byte	0x6
 4104 054f 00       		.byte	0
 4105 0550 0A       		.uleb128 0xa
 4106 0551 A22A0000 		.4byte	.LASF159
 4107 0555 05       		.byte	0x5
 4108 0556 C402     		.2byte	0x2c4
 4109 0558 12050000 		.4byte	0x512
 4110 055c 07       		.uleb128 0x7
 4111 055d 01       		.byte	0x1
 4112 055e 06       		.byte	0x6
 4113 055f 48       		.byte	0x48
ARM GAS  C:\Users\Zachary\AppData\Local\Temp\ccmvMQUz.s 			page 126


 4114 0560 16060000 		.4byte	0x616
 4115 0564 08       		.uleb128 0x8
 4116 0565 C5140000 		.4byte	.LASF160
 4117 0569 01       		.sleb128 1
 4118 056a 08       		.uleb128 0x8
 4119 056b 64120000 		.4byte	.LASF161
 4120 056f 02       		.sleb128 2
 4121 0570 08       		.uleb128 0x8
 4122 0571 83090000 		.4byte	.LASF162
 4123 0575 03       		.sleb128 3
 4124 0576 08       		.uleb128 0x8
 4125 0577 7F0D0000 		.4byte	.LASF163
 4126 057b 04       		.sleb128 4
 4127 057c 08       		.uleb128 0x8
 4128 057d CF290000 		.4byte	.LASF164
 4129 0581 05       		.sleb128 5
 4130 0582 08       		.uleb128 0x8
 4131 0583 F6270000 		.4byte	.LASF165
 4132 0587 06       		.sleb128 6
 4133 0588 08       		.uleb128 0x8
 4134 0589 F90A0000 		.4byte	.LASF166
 4135 058d 07       		.sleb128 7
 4136 058e 08       		.uleb128 0x8
 4137 058f 32270000 		.4byte	.LASF167
 4138 0593 08       		.sleb128 8
 4139 0594 08       		.uleb128 0x8
 4140 0595 E4060000 		.4byte	.LASF168
 4141 0599 09       		.sleb128 9
 4142 059a 08       		.uleb128 0x8
 4143 059b 901A0000 		.4byte	.LASF169
 4144 059f 0A       		.sleb128 10
 4145 05a0 08       		.uleb128 0x8
 4146 05a1 D7360000 		.4byte	.LASF170
 4147 05a5 0B       		.sleb128 11
 4148 05a6 08       		.uleb128 0x8
 4149 05a7 012E0000 		.4byte	.LASF171
 4150 05ab 0C       		.sleb128 12
 4151 05ac 08       		.uleb128 0x8
 4152 05ad B60C0000 		.4byte	.LASF172
 4153 05b1 0D       		.sleb128 13
 4154 05b2 08       		.uleb128 0x8
 4155 05b3 C4260000 		.4byte	.LASF173
 4156 05b7 0E       		.sleb128 14
 4157 05b8 08       		.uleb128 0x8
 4158 05b9 DC050000 		.4byte	.LASF174
 4159 05bd 0F       		.sleb128 15
 4160 05be 08       		.uleb128 0x8
 4161 05bf 113B0000 		.4byte	.LASF175
 4162 05c3 10       		.sleb128 16
 4163 05c4 08       		.uleb128 0x8
 4164 05c5 DD190000 		.4byte	.LASF176
 4165 05c9 11       		.sleb128 17
 4166 05ca 08       		.uleb128 0x8
 4167 05cb 25330000 		.4byte	.LASF177
 4168 05cf 12       		.sleb128 18
 4169 05d0 08       		.uleb128 0x8
 4170 05d1 8D110000 		.4byte	.LASF178
ARM GAS  C:\Users\Zachary\AppData\Local\Temp\ccmvMQUz.s 			page 127


 4171 05d5 13       		.sleb128 19
 4172 05d6 08       		.uleb128 0x8
 4173 05d7 9B020000 		.4byte	.LASF179
 4174 05db D200     		.sleb128 82
 4175 05dd 08       		.uleb128 0x8
 4176 05de 73040000 		.4byte	.LASF180
 4177 05e2 16       		.sleb128 22
 4178 05e3 08       		.uleb128 0x8
 4179 05e4 B5240000 		.4byte	.LASF181
 4180 05e8 17       		.sleb128 23
 4181 05e9 08       		.uleb128 0x8
 4182 05ea 32390000 		.4byte	.LASF182
 4183 05ee 18       		.sleb128 24
 4184 05ef 08       		.uleb128 0x8
 4185 05f0 AB170000 		.4byte	.LASF183
 4186 05f4 19       		.sleb128 25
 4187 05f5 08       		.uleb128 0x8
 4188 05f6 731B0000 		.4byte	.LASF184
 4189 05fa 1B       		.sleb128 27
 4190 05fb 08       		.uleb128 0x8
 4191 05fc C70E0000 		.4byte	.LASF185
 4192 0600 1D       		.sleb128 29
 4193 0601 08       		.uleb128 0x8
 4194 0602 ED000000 		.4byte	.LASF186
 4195 0606 1E       		.sleb128 30
 4196 0607 08       		.uleb128 0x8
 4197 0608 14170000 		.4byte	.LASF187
 4198 060c D201     		.sleb128 210
 4199 060e 08       		.uleb128 0x8
 4200 060f 852B0000 		.4byte	.LASF188
 4201 0613 FF01     		.sleb128 255
 4202 0615 00       		.byte	0
 4203 0616 04       		.uleb128 0x4
 4204 0617 510A0000 		.4byte	.LASF189
 4205 061b 06       		.byte	0x6
 4206 061c A0       		.byte	0xa0
 4207 061d 5C050000 		.4byte	0x55c
 4208 0621 07       		.uleb128 0x7
 4209 0622 01       		.byte	0x1
 4210 0623 06       		.byte	0x6
 4211 0624 A4       		.byte	0xa4
 4212 0625 DC060000 		.4byte	0x6dc
 4213 0629 08       		.uleb128 0x8
 4214 062a 152C0000 		.4byte	.LASF190
 4215 062e 00       		.sleb128 0
 4216 062f 08       		.uleb128 0x8
 4217 0630 092B0000 		.4byte	.LASF191
 4218 0634 01       		.sleb128 1
 4219 0635 08       		.uleb128 0x8
 4220 0636 2C040000 		.4byte	.LASF192
 4221 063a 02       		.sleb128 2
 4222 063b 08       		.uleb128 0x8
 4223 063c 3B3A0000 		.4byte	.LASF193
 4224 0640 03       		.sleb128 3
 4225 0641 08       		.uleb128 0x8
 4226 0642 DE0B0000 		.4byte	.LASF194
 4227 0646 04       		.sleb128 4
ARM GAS  C:\Users\Zachary\AppData\Local\Temp\ccmvMQUz.s 			page 128


 4228 0647 08       		.uleb128 0x8
 4229 0648 C4220000 		.4byte	.LASF195
 4230 064c 05       		.sleb128 5
 4231 064d 08       		.uleb128 0x8
 4232 064e CA330000 		.4byte	.LASF196
 4233 0652 06       		.sleb128 6
 4234 0653 08       		.uleb128 0x8
 4235 0654 14270000 		.4byte	.LASF197
 4236 0658 07       		.sleb128 7
 4237 0659 08       		.uleb128 0x8
 4238 065a 3A220000 		.4byte	.LASF198
 4239 065e 08       		.sleb128 8
 4240 065f 08       		.uleb128 0x8
 4241 0660 7A1F0000 		.4byte	.LASF199
 4242 0664 09       		.sleb128 9
 4243 0665 08       		.uleb128 0x8
 4244 0666 F7240000 		.4byte	.LASF200
 4245 066a 0A       		.sleb128 10
 4246 066b 08       		.uleb128 0x8
 4247 066c 6A130000 		.4byte	.LASF201
 4248 0670 0B       		.sleb128 11
 4249 0671 08       		.uleb128 0x8
 4250 0672 4F200000 		.4byte	.LASF202
 4251 0676 0C       		.sleb128 12
 4252 0677 08       		.uleb128 0x8
 4253 0678 CF0C0000 		.4byte	.LASF203
 4254 067c 0D       		.sleb128 13
 4255 067d 08       		.uleb128 0x8
 4256 067e 23120000 		.4byte	.LASF204
 4257 0682 0E       		.sleb128 14
 4258 0683 08       		.uleb128 0x8
 4259 0684 7A3A0000 		.4byte	.LASF205
 4260 0688 0F       		.sleb128 15
 4261 0689 08       		.uleb128 0x8
 4262 068a 90040000 		.4byte	.LASF206
 4263 068e 10       		.sleb128 16
 4264 068f 08       		.uleb128 0x8
 4265 0690 4E040000 		.4byte	.LASF207
 4266 0694 11       		.sleb128 17
 4267 0695 08       		.uleb128 0x8
 4268 0696 34130000 		.4byte	.LASF208
 4269 069a 8001     		.sleb128 128
 4270 069c 08       		.uleb128 0x8
 4271 069d E5180000 		.4byte	.LASF209
 4272 06a1 8001     		.sleb128 128
 4273 06a3 08       		.uleb128 0x8
 4274 06a4 76330000 		.4byte	.LASF210
 4275 06a8 8001     		.sleb128 128
 4276 06aa 08       		.uleb128 0x8
 4277 06ab 6D2D0000 		.4byte	.LASF211
 4278 06af 8001     		.sleb128 128
 4279 06b1 08       		.uleb128 0x8
 4280 06b2 27240000 		.4byte	.LASF212
 4281 06b6 8001     		.sleb128 128
 4282 06b8 08       		.uleb128 0x8
 4283 06b9 52170000 		.4byte	.LASF213
 4284 06bd 8101     		.sleb128 129
ARM GAS  C:\Users\Zachary\AppData\Local\Temp\ccmvMQUz.s 			page 129


 4285 06bf 08       		.uleb128 0x8
 4286 06c0 64360000 		.4byte	.LASF214
 4287 06c4 A001     		.sleb128 160
 4288 06c6 08       		.uleb128 0x8
 4289 06c7 EF0D0000 		.4byte	.LASF215
 4290 06cb FD01     		.sleb128 253
 4291 06cd 08       		.uleb128 0x8
 4292 06ce A9200000 		.4byte	.LASF216
 4293 06d2 FE01     		.sleb128 254
 4294 06d4 08       		.uleb128 0x8
 4295 06d5 A9270000 		.4byte	.LASF217
 4296 06d9 FF01     		.sleb128 255
 4297 06db 00       		.byte	0
 4298 06dc 0A       		.uleb128 0xa
 4299 06dd 222D0000 		.4byte	.LASF218
 4300 06e1 06       		.byte	0x6
 4301 06e2 3001     		.2byte	0x130
 4302 06e4 21060000 		.4byte	0x621
 4303 06e8 0A       		.uleb128 0xa
 4304 06e9 EE1C0000 		.4byte	.LASF219
 4305 06ed 06       		.byte	0x6
 4306 06ee 3801     		.2byte	0x138
 4307 06f0 76000000 		.4byte	0x76
 4308 06f4 0B       		.uleb128 0xb
 4309 06f5 10       		.byte	0x10
 4310 06f6 06       		.byte	0x6
 4311 06f7 3D01     		.2byte	0x13d
 4312 06f9 0B070000 		.4byte	0x70b
 4313 06fd 0C       		.uleb128 0xc
 4314 06fe 292C0000 		.4byte	.LASF220
 4315 0702 06       		.byte	0x6
 4316 0703 3F01     		.2byte	0x13f
 4317 0705 FC040000 		.4byte	0x4fc
 4318 0709 00       		.byte	0
 4319 070a 00       		.byte	0
 4320 070b 0A       		.uleb128 0xa
 4321 070c DA1B0000 		.4byte	.LASF221
 4322 0710 06       		.byte	0x6
 4323 0711 4001     		.2byte	0x140
 4324 0713 F4060000 		.4byte	0x6f4
 4325 0717 10       		.uleb128 0x10
 4326 0718 10       		.byte	0x10
 4327 0719 06       		.byte	0x6
 4328 071a 4501     		.2byte	0x145
 4329 071c 39070000 		.4byte	0x739
 4330 0720 11       		.uleb128 0x11
 4331 0721 B02C0000 		.4byte	.LASF222
 4332 0725 06       		.byte	0x6
 4333 0726 4801     		.2byte	0x148
 4334 0728 E8060000 		.4byte	0x6e8
 4335 072c 11       		.uleb128 0x11
 4336 072d 40290000 		.4byte	.LASF223
 4337 0731 06       		.byte	0x6
 4338 0732 4C01     		.2byte	0x14c
 4339 0734 0B070000 		.4byte	0x70b
 4340 0738 00       		.byte	0
 4341 0739 0A       		.uleb128 0xa
ARM GAS  C:\Users\Zachary\AppData\Local\Temp\ccmvMQUz.s 			page 130


 4342 073a 6E3D0000 		.4byte	.LASF224
 4343 073e 06       		.byte	0x6
 4344 073f 4F01     		.2byte	0x14f
 4345 0741 17070000 		.4byte	0x717
 4346 0745 0A       		.uleb128 0xa
 4347 0746 CA2B0000 		.4byte	.LASF225
 4348 074a 06       		.byte	0x6
 4349 074b 5201     		.2byte	0x152
 4350 074d 76000000 		.4byte	0x76
 4351 0751 0B       		.uleb128 0xb
 4352 0752 02       		.byte	0x2
 4353 0753 06       		.byte	0x6
 4354 0754 5501     		.2byte	0x155
 4355 0756 75070000 		.4byte	0x775
 4356 075a 0C       		.uleb128 0xc
 4357 075b 93080000 		.4byte	.LASF226
 4358 075f 06       		.byte	0x6
 4359 0760 5C01     		.2byte	0x15c
 4360 0762 6B000000 		.4byte	0x6b
 4361 0766 00       		.byte	0
 4362 0767 0C       		.uleb128 0xc
 4363 0768 A23B0000 		.4byte	.LASF227
 4364 076c 06       		.byte	0x6
 4365 076d 6201     		.2byte	0x162
 4366 076f 6B000000 		.4byte	0x6b
 4367 0773 01       		.byte	0x1
 4368 0774 00       		.byte	0
 4369 0775 0A       		.uleb128 0xa
 4370 0776 CC070000 		.4byte	.LASF228
 4371 077a 06       		.byte	0x6
 4372 077b 6401     		.2byte	0x164
 4373 077d 51070000 		.4byte	0x751
 4374 0781 0B       		.uleb128 0xb
 4375 0782 08       		.byte	0x8
 4376 0783 06       		.byte	0x6
 4377 0784 7901     		.2byte	0x179
 4378 0786 B2070000 		.4byte	0x7b2
 4379 078a 12       		.uleb128 0x12
 4380 078b 76616C00 		.ascii	"val\000"
 4381 078f 06       		.byte	0x6
 4382 0790 7C01     		.2byte	0x17c
 4383 0792 0C050000 		.4byte	0x50c
 4384 0796 00       		.byte	0
 4385 0797 12       		.uleb128 0x12
 4386 0798 6C656E00 		.ascii	"len\000"
 4387 079c 06       		.byte	0x6
 4388 079d 7F01     		.2byte	0x17f
 4389 079f 76000000 		.4byte	0x76
 4390 07a3 04       		.byte	0x4
 4391 07a4 0C       		.uleb128 0xc
 4392 07a5 FC3A0000 		.4byte	.LASF229
 4393 07a9 06       		.byte	0x6
 4394 07aa 8601     		.2byte	0x186
 4395 07ac 76000000 		.4byte	0x76
 4396 07b0 06       		.byte	0x6
 4397 07b1 00       		.byte	0
 4398 07b2 0A       		.uleb128 0xa
ARM GAS  C:\Users\Zachary\AppData\Local\Temp\ccmvMQUz.s 			page 131


 4399 07b3 A6050000 		.4byte	.LASF230
 4400 07b7 06       		.byte	0x6
 4401 07b8 8801     		.2byte	0x188
 4402 07ba 81070000 		.4byte	0x781
 4403 07be 0B       		.uleb128 0xb
 4404 07bf 0C       		.byte	0xc
 4405 07c0 06       		.byte	0x6
 4406 07c1 8B01     		.2byte	0x18b
 4407 07c3 E2070000 		.4byte	0x7e2
 4408 07c7 0C       		.uleb128 0xc
 4409 07c8 292C0000 		.4byte	.LASF220
 4410 07cc 06       		.byte	0x6
 4411 07cd 8E01     		.2byte	0x18e
 4412 07cf B2070000 		.4byte	0x7b2
 4413 07d3 00       		.byte	0
 4414 07d4 0C       		.uleb128 0xc
 4415 07d5 64220000 		.4byte	.LASF231
 4416 07d9 06       		.byte	0x6
 4417 07da 9101     		.2byte	0x191
 4418 07dc 45070000 		.4byte	0x745
 4419 07e0 08       		.byte	0x8
 4420 07e1 00       		.byte	0
 4421 07e2 0A       		.uleb128 0xa
 4422 07e3 540C0000 		.4byte	.LASF232
 4423 07e7 06       		.byte	0x6
 4424 07e8 9301     		.2byte	0x193
 4425 07ea BE070000 		.4byte	0x7be
 4426 07ee 0B       		.uleb128 0xb
 4427 07ef 04       		.byte	0x4
 4428 07f0 06       		.byte	0x6
 4429 07f1 9601     		.2byte	0x196
 4430 07f3 12080000 		.4byte	0x812
 4431 07f7 0C       		.uleb128 0xc
 4432 07f8 D9180000 		.4byte	.LASF233
 4433 07fc 06       		.byte	0x6
 4434 07fd 9901     		.2byte	0x199
 4435 07ff 45070000 		.4byte	0x745
 4436 0803 00       		.byte	0
 4437 0804 0C       		.uleb128 0xc
 4438 0805 15360000 		.4byte	.LASF234
 4439 0809 06       		.byte	0x6
 4440 080a 9C01     		.2byte	0x19c
 4441 080c 45070000 		.4byte	0x745
 4442 0810 02       		.byte	0x2
 4443 0811 00       		.byte	0
 4444 0812 0A       		.uleb128 0xa
 4445 0813 2A340000 		.4byte	.LASF235
 4446 0817 06       		.byte	0x6
 4447 0818 9E01     		.2byte	0x19e
 4448 081a EE070000 		.4byte	0x7ee
 4449 081e 0B       		.uleb128 0xb
 4450 081f 04       		.byte	0x4
 4451 0820 06       		.byte	0x6
 4452 0821 A101     		.2byte	0x1a1
 4453 0823 42080000 		.4byte	0x842
 4454 0827 0C       		.uleb128 0xc
 4455 0828 882E0000 		.4byte	.LASF236
ARM GAS  C:\Users\Zachary\AppData\Local\Temp\ccmvMQUz.s 			page 132


 4456 082c 06       		.byte	0x6
 4457 082d A401     		.2byte	0x1a4
 4458 082f 75070000 		.4byte	0x775
 4459 0833 00       		.byte	0
 4460 0834 12       		.uleb128 0x12
 4461 0835 6D747500 		.ascii	"mtu\000"
 4462 0839 06       		.byte	0x6
 4463 083a A701     		.2byte	0x1a7
 4464 083c 76000000 		.4byte	0x76
 4465 0840 02       		.byte	0x2
 4466 0841 00       		.byte	0
 4467 0842 0A       		.uleb128 0xa
 4468 0843 14230000 		.4byte	.LASF237
 4469 0847 06       		.byte	0x6
 4470 0848 A901     		.2byte	0x1a9
 4471 084a 1E080000 		.4byte	0x81e
 4472 084e 13       		.uleb128 0x13
 4473 084f 08       		.byte	0x8
 4474 0850 07       		.byte	0x7
 4475 0851 27       		.byte	0x27
 4476 0852 87080000 		.4byte	0x887
 4477 0856 14       		.uleb128 0x14
 4478 0857 882E0000 		.4byte	.LASF236
 4479 085b 07       		.byte	0x7
 4480 085c 2A       		.byte	0x2a
 4481 085d 75070000 		.4byte	0x775
 4482 0861 00       		.byte	0
 4483 0862 14       		.uleb128 0x14
 4484 0863 A2200000 		.4byte	.LASF238
 4485 0867 07       		.byte	0x7
 4486 0868 2D       		.byte	0x2d
 4487 0869 16060000 		.4byte	0x616
 4488 086d 02       		.byte	0x2
 4489 086e 14       		.uleb128 0x14
 4490 086f 64220000 		.4byte	.LASF231
 4491 0873 07       		.byte	0x7
 4492 0874 30       		.byte	0x30
 4493 0875 45070000 		.4byte	0x745
 4494 0879 04       		.byte	0x4
 4495 087a 14       		.uleb128 0x14
 4496 087b 6F100000 		.4byte	.LASF239
 4497 087f 07       		.byte	0x7
 4498 0880 33       		.byte	0x33
 4499 0881 DC060000 		.4byte	0x6dc
 4500 0885 06       		.byte	0x6
 4501 0886 00       		.byte	0
 4502 0887 04       		.uleb128 0x4
 4503 0888 062D0000 		.4byte	.LASF240
 4504 088c 07       		.byte	0x7
 4505 088d 35       		.byte	0x35
 4506 088e 4E080000 		.4byte	0x84e
 4507 0892 04       		.uleb128 0x4
 4508 0893 BF370000 		.4byte	.LASF241
 4509 0897 07       		.byte	0x7
 4510 0898 49       		.byte	0x49
 4511 0899 12080000 		.4byte	0x812
 4512 089d 13       		.uleb128 0x13
ARM GAS  C:\Users\Zachary\AppData\Local\Temp\ccmvMQUz.s 			page 133


 4513 089e 0C       		.byte	0xc
 4514 089f 07       		.byte	0x7
 4515 08a0 77       		.byte	0x77
 4516 08a1 BE080000 		.4byte	0x8be
 4517 08a5 14       		.uleb128 0x14
 4518 08a6 882E0000 		.4byte	.LASF236
 4519 08aa 07       		.byte	0x7
 4520 08ab 7A       		.byte	0x7a
 4521 08ac 75070000 		.4byte	0x775
 4522 08b0 00       		.byte	0
 4523 08b1 14       		.uleb128 0x14
 4524 08b2 292C0000 		.4byte	.LASF220
 4525 08b6 07       		.byte	0x7
 4526 08b7 7D       		.byte	0x7d
 4527 08b8 B2070000 		.4byte	0x7b2
 4528 08bc 04       		.byte	0x4
 4529 08bd 00       		.byte	0
 4530 08be 04       		.uleb128 0x4
 4531 08bf 57340000 		.4byte	.LASF242
 4532 08c3 07       		.byte	0x7
 4533 08c4 7F       		.byte	0x7f
 4534 08c5 9D080000 		.4byte	0x89d
 4535 08c9 13       		.uleb128 0x13
 4536 08ca 10       		.byte	0x10
 4537 08cb 07       		.byte	0x7
 4538 08cc 82       		.byte	0x82
 4539 08cd EA080000 		.4byte	0x8ea
 4540 08d1 14       		.uleb128 0x14
 4541 08d2 882E0000 		.4byte	.LASF236
 4542 08d6 07       		.byte	0x7
 4543 08d7 85       		.byte	0x85
 4544 08d8 75070000 		.4byte	0x775
 4545 08dc 00       		.byte	0
 4546 08dd 14       		.uleb128 0x14
 4547 08de 552E0000 		.4byte	.LASF243
 4548 08e2 07       		.byte	0x7
 4549 08e3 88       		.byte	0x88
 4550 08e4 E2070000 		.4byte	0x7e2
 4551 08e8 04       		.byte	0x4
 4552 08e9 00       		.byte	0
 4553 08ea 04       		.uleb128 0x4
 4554 08eb 47070000 		.4byte	.LASF244
 4555 08ef 07       		.byte	0x7
 4556 08f0 8A       		.byte	0x8a
 4557 08f1 C9080000 		.4byte	0x8c9
 4558 08f5 04       		.uleb128 0x4
 4559 08f6 6F2C0000 		.4byte	.LASF245
 4560 08fa 07       		.byte	0x7
 4561 08fb 8D       		.byte	0x8d
 4562 08fc EA080000 		.4byte	0x8ea
 4563 0900 13       		.uleb128 0x13
 4564 0901 08       		.byte	0x8
 4565 0902 07       		.byte	0x7
 4566 0903 90       		.byte	0x90
 4567 0904 2D090000 		.4byte	0x92d
 4568 0908 14       		.uleb128 0x14
 4569 0909 B5160000 		.4byte	.LASF246
ARM GAS  C:\Users\Zachary\AppData\Local\Temp\ccmvMQUz.s 			page 134


 4570 090d 07       		.byte	0x7
 4571 090e 93       		.byte	0x93
 4572 090f 0C050000 		.4byte	0x50c
 4573 0913 00       		.byte	0
 4574 0914 14       		.uleb128 0x14
 4575 0915 5C2B0000 		.4byte	.LASF247
 4576 0919 07       		.byte	0x7
 4577 091a 96       		.byte	0x96
 4578 091b 76000000 		.4byte	0x76
 4579 091f 04       		.byte	0x4
 4580 0920 14       		.uleb128 0x14
 4581 0921 67390000 		.4byte	.LASF248
 4582 0925 07       		.byte	0x7
 4583 0926 99       		.byte	0x99
 4584 0927 76000000 		.4byte	0x76
 4585 092b 06       		.byte	0x6
 4586 092c 00       		.byte	0
 4587 092d 04       		.uleb128 0x4
 4588 092e 9B010000 		.4byte	.LASF249
 4589 0932 07       		.byte	0x7
 4590 0933 9A       		.byte	0x9a
 4591 0934 00090000 		.4byte	0x900
 4592 0938 13       		.uleb128 0x13
 4593 0939 0C       		.byte	0xc
 4594 093a 07       		.byte	0x7
 4595 093b 9E       		.byte	0x9e
 4596 093c 59090000 		.4byte	0x959
 4597 0940 14       		.uleb128 0x14
 4598 0941 882E0000 		.4byte	.LASF236
 4599 0945 07       		.byte	0x7
 4600 0946 A1       		.byte	0xa1
 4601 0947 75070000 		.4byte	0x775
 4602 094b 00       		.byte	0
 4603 094c 14       		.uleb128 0x14
 4604 094d 6C1D0000 		.4byte	.LASF250
 4605 0951 07       		.byte	0x7
 4606 0952 A4       		.byte	0xa4
 4607 0953 2D090000 		.4byte	0x92d
 4608 0957 04       		.byte	0x4
 4609 0958 00       		.byte	0
 4610 0959 04       		.uleb128 0x4
 4611 095a B9190000 		.4byte	.LASF251
 4612 095e 07       		.byte	0x7
 4613 095f A6       		.byte	0xa6
 4614 0960 38090000 		.4byte	0x938
 4615 0964 04       		.uleb128 0x4
 4616 0965 20310000 		.4byte	.LASF252
 4617 0969 07       		.byte	0x7
 4618 096a A9       		.byte	0xa9
 4619 096b 59090000 		.4byte	0x959
 4620 096f 13       		.uleb128 0x13
 4621 0970 08       		.byte	0x8
 4622 0971 07       		.byte	0x7
 4623 0972 BA       		.byte	0xba
 4624 0973 90090000 		.4byte	0x990
 4625 0977 14       		.uleb128 0x14
 4626 0978 4E250000 		.4byte	.LASF253
ARM GAS  C:\Users\Zachary\AppData\Local\Temp\ccmvMQUz.s 			page 135


 4627 097c 07       		.byte	0x7
 4628 097d BE       		.byte	0xbe
 4629 097e 0C050000 		.4byte	0x50c
 4630 0982 00       		.byte	0
 4631 0983 14       		.uleb128 0x14
 4632 0984 13190000 		.4byte	.LASF254
 4633 0988 07       		.byte	0x7
 4634 0989 C1       		.byte	0xc1
 4635 098a 76000000 		.4byte	0x76
 4636 098e 04       		.byte	0x4
 4637 098f 00       		.byte	0
 4638 0990 04       		.uleb128 0x4
 4639 0991 4E0F0000 		.4byte	.LASF255
 4640 0995 07       		.byte	0x7
 4641 0996 C3       		.byte	0xc3
 4642 0997 6F090000 		.4byte	0x96f
 4643 099b 13       		.uleb128 0x13
 4644 099c 10       		.byte	0x10
 4645 099d 07       		.byte	0x7
 4646 099e C6       		.byte	0xc6
 4647 099f C8090000 		.4byte	0x9c8
 4648 09a3 14       		.uleb128 0x14
 4649 09a4 882E0000 		.4byte	.LASF236
 4650 09a8 07       		.byte	0x7
 4651 09a9 C9       		.byte	0xc9
 4652 09aa 75070000 		.4byte	0x775
 4653 09ae 00       		.byte	0
 4654 09af 14       		.uleb128 0x14
 4655 09b0 A02B0000 		.4byte	.LASF256
 4656 09b4 07       		.byte	0x7
 4657 09b5 CC       		.byte	0xcc
 4658 09b6 90090000 		.4byte	0x990
 4659 09ba 04       		.byte	0x4
 4660 09bb 14       		.uleb128 0x14
 4661 09bc B4100000 		.4byte	.LASF257
 4662 09c0 07       		.byte	0x7
 4663 09c1 CF       		.byte	0xcf
 4664 09c2 6B000000 		.4byte	0x6b
 4665 09c6 0C       		.byte	0xc
 4666 09c7 00       		.byte	0
 4667 09c8 04       		.uleb128 0x4
 4668 09c9 48280000 		.4byte	.LASF258
 4669 09cd 07       		.byte	0x7
 4670 09ce D1       		.byte	0xd1
 4671 09cf 9B090000 		.4byte	0x99b
 4672 09d3 04       		.uleb128 0x4
 4673 09d4 00070000 		.4byte	.LASF259
 4674 09d8 08       		.byte	0x8
 4675 09d9 FB       		.byte	0xfb
 4676 09da DE090000 		.4byte	0x9de
 4677 09de 0F       		.uleb128 0xf
 4678 09df 04       		.byte	0x4
 4679 09e0 E4090000 		.4byte	0x9e4
 4680 09e4 15       		.uleb128 0x15
 4681 09e5 F4090000 		.4byte	0x9f4
 4682 09e9 16       		.uleb128 0x16
 4683 09ea 81000000 		.4byte	0x81
ARM GAS  C:\Users\Zachary\AppData\Local\Temp\ccmvMQUz.s 			page 136


 4684 09ee 16       		.uleb128 0x16
 4685 09ef AD000000 		.4byte	0xad
 4686 09f3 00       		.byte	0
 4687 09f4 13       		.uleb128 0x13
 4688 09f5 06       		.byte	0x6
 4689 09f6 09       		.byte	0x9
 4690 09f7 40       		.byte	0x40
 4691 09f8 150A0000 		.4byte	0xa15
 4692 09fc 14       		.uleb128 0x14
 4693 09fd 70330000 		.4byte	.LASF260
 4694 0a01 09       		.byte	0x9
 4695 0a02 42       		.byte	0x42
 4696 0a03 12080000 		.4byte	0x812
 4697 0a07 00       		.byte	0
 4698 0a08 14       		.uleb128 0x14
 4699 0a09 93220000 		.4byte	.LASF261
 4700 0a0d 09       		.byte	0x9
 4701 0a0e 43       		.byte	0x43
 4702 0a0f 76000000 		.4byte	0x76
 4703 0a13 04       		.byte	0x4
 4704 0a14 00       		.byte	0
 4705 0a15 04       		.uleb128 0x4
 4706 0a16 10240000 		.4byte	.LASF262
 4707 0a1a 09       		.byte	0x9
 4708 0a1b 44       		.byte	0x44
 4709 0a1c F4090000 		.4byte	0x9f4
 4710 0a20 13       		.uleb128 0x13
 4711 0a21 18       		.byte	0x18
 4712 0a22 09       		.byte	0x9
 4713 0a23 47       		.byte	0x47
 4714 0a24 590A0000 		.4byte	0xa59
 4715 0a28 14       		.uleb128 0x14
 4716 0a29 21140000 		.4byte	.LASF263
 4717 0a2d 09       		.byte	0x9
 4718 0a2e 49       		.byte	0x49
 4719 0a2f 45070000 		.4byte	0x745
 4720 0a33 00       		.byte	0
 4721 0a34 14       		.uleb128 0x14
 4722 0a35 91140000 		.4byte	.LASF264
 4723 0a39 09       		.byte	0x9
 4724 0a3a 4A       		.byte	0x4a
 4725 0a3b 12080000 		.4byte	0x812
 4726 0a3f 02       		.byte	0x2
 4727 0a40 14       		.uleb128 0x14
 4728 0a41 93220000 		.4byte	.LASF261
 4729 0a45 09       		.byte	0x9
 4730 0a46 4B       		.byte	0x4b
 4731 0a47 39070000 		.4byte	0x739
 4732 0a4b 06       		.byte	0x6
 4733 0a4c 14       		.uleb128 0x14
 4734 0a4d B4100000 		.4byte	.LASF257
 4735 0a51 09       		.byte	0x9
 4736 0a52 4C       		.byte	0x4c
 4737 0a53 6B000000 		.4byte	0x6b
 4738 0a57 16       		.byte	0x16
 4739 0a58 00       		.byte	0
 4740 0a59 04       		.uleb128 0x4
ARM GAS  C:\Users\Zachary\AppData\Local\Temp\ccmvMQUz.s 			page 137


 4741 0a5a AA180000 		.4byte	.LASF265
 4742 0a5e 09       		.byte	0x9
 4743 0a5f 4D       		.byte	0x4d
 4744 0a60 200A0000 		.4byte	0xa20
 4745 0a64 13       		.uleb128 0x13
 4746 0a65 18       		.byte	0x18
 4747 0a66 09       		.byte	0x9
 4748 0a67 50       		.byte	0x50
 4749 0a68 A90A0000 		.4byte	0xaa9
 4750 0a6c 14       		.uleb128 0x14
 4751 0a6d 632B0000 		.4byte	.LASF266
 4752 0a71 09       		.byte	0x9
 4753 0a72 52       		.byte	0x52
 4754 0a73 45070000 		.4byte	0x745
 4755 0a77 00       		.byte	0
 4756 0a78 14       		.uleb128 0x14
 4757 0a79 AD2E0000 		.4byte	.LASF267
 4758 0a7d 09       		.byte	0x9
 4759 0a7e 53       		.byte	0x53
 4760 0a7f 6B000000 		.4byte	0x6b
 4761 0a83 02       		.byte	0x2
 4762 0a84 14       		.uleb128 0x14
 4763 0a85 BA3D0000 		.4byte	.LASF268
 4764 0a89 09       		.byte	0x9
 4765 0a8a 54       		.byte	0x54
 4766 0a8b 45070000 		.4byte	0x745
 4767 0a8f 04       		.byte	0x4
 4768 0a90 14       		.uleb128 0x14
 4769 0a91 93220000 		.4byte	.LASF261
 4770 0a95 09       		.byte	0x9
 4771 0a96 55       		.byte	0x55
 4772 0a97 39070000 		.4byte	0x739
 4773 0a9b 06       		.byte	0x6
 4774 0a9c 14       		.uleb128 0x14
 4775 0a9d B4100000 		.4byte	.LASF257
 4776 0aa1 09       		.byte	0x9
 4777 0aa2 56       		.byte	0x56
 4778 0aa3 6B000000 		.4byte	0x6b
 4779 0aa7 16       		.byte	0x16
 4780 0aa8 00       		.byte	0
 4781 0aa9 04       		.uleb128 0x4
 4782 0aaa DF270000 		.4byte	.LASF269
 4783 0aae 09       		.byte	0x9
 4784 0aaf 57       		.byte	0x57
 4785 0ab0 640A0000 		.4byte	0xa64
 4786 0ab4 13       		.uleb128 0x13
 4787 0ab5 04       		.byte	0x4
 4788 0ab6 09       		.byte	0x9
 4789 0ab7 5A       		.byte	0x5a
 4790 0ab8 D50A0000 		.4byte	0xad5
 4791 0abc 14       		.uleb128 0x14
 4792 0abd AD2E0000 		.4byte	.LASF267
 4793 0ac1 09       		.byte	0x9
 4794 0ac2 5D       		.byte	0x5d
 4795 0ac3 6B000000 		.4byte	0x6b
 4796 0ac7 00       		.byte	0
 4797 0ac8 14       		.uleb128 0x14
ARM GAS  C:\Users\Zachary\AppData\Local\Temp\ccmvMQUz.s 			page 138


 4798 0ac9 BA3D0000 		.4byte	.LASF268
 4799 0acd 09       		.byte	0x9
 4800 0ace 60       		.byte	0x60
 4801 0acf 45070000 		.4byte	0x745
 4802 0ad3 02       		.byte	0x2
 4803 0ad4 00       		.byte	0
 4804 0ad5 04       		.uleb128 0x4
 4805 0ad6 5C1B0000 		.4byte	.LASF270
 4806 0ada 09       		.byte	0x9
 4807 0adb 61       		.byte	0x61
 4808 0adc B40A0000 		.4byte	0xab4
 4809 0ae0 13       		.uleb128 0x13
 4810 0ae1 16       		.byte	0x16
 4811 0ae2 09       		.byte	0x9
 4812 0ae3 64       		.byte	0x64
 4813 0ae4 190B0000 		.4byte	0xb19
 4814 0ae8 14       		.uleb128 0x14
 4815 0ae9 882E0000 		.4byte	.LASF236
 4816 0aed 09       		.byte	0x9
 4817 0aee 66       		.byte	0x66
 4818 0aef 75070000 		.4byte	0x775
 4819 0af3 00       		.byte	0
 4820 0af4 14       		.uleb128 0x14
 4821 0af5 87080000 		.4byte	.LASF271
 4822 0af9 09       		.byte	0x9
 4823 0afa 67       		.byte	0x67
 4824 0afb 45070000 		.4byte	0x745
 4825 0aff 02       		.byte	0x2
 4826 0b00 14       		.uleb128 0x14
 4827 0b01 93220000 		.4byte	.LASF261
 4828 0b05 09       		.byte	0x9
 4829 0b06 68       		.byte	0x68
 4830 0b07 39070000 		.4byte	0x739
 4831 0b0b 04       		.byte	0x4
 4832 0b0c 14       		.uleb128 0x14
 4833 0b0d B4100000 		.4byte	.LASF257
 4834 0b11 09       		.byte	0x9
 4835 0b12 69       		.byte	0x69
 4836 0b13 6B000000 		.4byte	0x6b
 4837 0b17 14       		.byte	0x14
 4838 0b18 00       		.byte	0
 4839 0b19 04       		.uleb128 0x4
 4840 0b1a C1180000 		.4byte	.LASF272
 4841 0b1e 09       		.byte	0x9
 4842 0b1f 6A       		.byte	0x6a
 4843 0b20 E00A0000 		.4byte	0xae0
 4844 0b24 13       		.uleb128 0x13
 4845 0b25 06       		.byte	0x6
 4846 0b26 09       		.byte	0x9
 4847 0b27 7C       		.byte	0x7c
 4848 0b28 450B0000 		.4byte	0xb45
 4849 0b2c 14       		.uleb128 0x14
 4850 0b2d 8C020000 		.4byte	.LASF273
 4851 0b31 09       		.byte	0x9
 4852 0b32 7E       		.byte	0x7e
 4853 0b33 D50A0000 		.4byte	0xad5
 4854 0b37 00       		.byte	0
ARM GAS  C:\Users\Zachary\AppData\Local\Temp\ccmvMQUz.s 			page 139


 4855 0b38 14       		.uleb128 0x14
 4856 0b39 063B0000 		.4byte	.LASF274
 4857 0b3d 09       		.byte	0x9
 4858 0b3e 7F       		.byte	0x7f
 4859 0b3f 45070000 		.4byte	0x745
 4860 0b43 04       		.byte	0x4
 4861 0b44 00       		.byte	0
 4862 0b45 04       		.uleb128 0x4
 4863 0b46 46100000 		.4byte	.LASF275
 4864 0b4a 09       		.byte	0x9
 4865 0b4b 80       		.byte	0x80
 4866 0b4c 240B0000 		.4byte	0xb24
 4867 0b50 07       		.uleb128 0x7
 4868 0b51 02       		.byte	0x2
 4869 0b52 0A       		.byte	0xa
 4870 0b53 80       		.byte	0x80
 4871 0b54 B6100000 		.4byte	0x10b6
 4872 0b58 08       		.uleb128 0x8
 4873 0b59 6D240000 		.4byte	.LASF276
 4874 0b5d 8002     		.sleb128 256
 4875 0b5f 08       		.uleb128 0x8
 4876 0b60 633C0000 		.4byte	.LASF277
 4877 0b64 8102     		.sleb128 257
 4878 0b66 08       		.uleb128 0x8
 4879 0b67 DA3A0000 		.4byte	.LASF278
 4880 0b6b 8202     		.sleb128 258
 4881 0b6d 08       		.uleb128 0x8
 4882 0b6e 193C0000 		.4byte	.LASF279
 4883 0b72 8302     		.sleb128 259
 4884 0b74 08       		.uleb128 0x8
 4885 0b75 CF2A0000 		.4byte	.LASF280
 4886 0b79 8402     		.sleb128 260
 4887 0b7b 08       		.uleb128 0x8
 4888 0b7c 4C330000 		.4byte	.LASF281
 4889 0b80 8502     		.sleb128 261
 4890 0b82 08       		.uleb128 0x8
 4891 0b83 54100000 		.4byte	.LASF282
 4892 0b87 8602     		.sleb128 262
 4893 0b89 08       		.uleb128 0x8
 4894 0b8a B4340000 		.4byte	.LASF283
 4895 0b8e 8702     		.sleb128 263
 4896 0b90 08       		.uleb128 0x8
 4897 0b91 153A0000 		.4byte	.LASF284
 4898 0b95 8802     		.sleb128 264
 4899 0b97 08       		.uleb128 0x8
 4900 0b98 39050000 		.4byte	.LASF285
 4901 0b9c 8902     		.sleb128 265
 4902 0b9e 08       		.uleb128 0x8
 4903 0b9f B7020000 		.4byte	.LASF286
 4904 0ba3 8A02     		.sleb128 266
 4905 0ba5 08       		.uleb128 0x8
 4906 0ba6 8D2D0000 		.4byte	.LASF287
 4907 0baa 8B02     		.sleb128 267
 4908 0bac 08       		.uleb128 0x8
 4909 0bad 0F1F0000 		.4byte	.LASF288
 4910 0bb1 8C02     		.sleb128 268
 4911 0bb3 08       		.uleb128 0x8
ARM GAS  C:\Users\Zachary\AppData\Local\Temp\ccmvMQUz.s 			page 140


 4912 0bb4 6B290000 		.4byte	.LASF289
 4913 0bb8 8D02     		.sleb128 269
 4914 0bba 08       		.uleb128 0x8
 4915 0bbb 59030000 		.4byte	.LASF290
 4916 0bbf 8E02     		.sleb128 270
 4917 0bc1 08       		.uleb128 0x8
 4918 0bc2 09010000 		.4byte	.LASF291
 4919 0bc6 8F02     		.sleb128 271
 4920 0bc8 08       		.uleb128 0x8
 4921 0bc9 A4070000 		.4byte	.LASF292
 4922 0bcd 9002     		.sleb128 272
 4923 0bcf 08       		.uleb128 0x8
 4924 0bd0 9C370000 		.4byte	.LASF293
 4925 0bd4 9102     		.sleb128 273
 4926 0bd6 08       		.uleb128 0x8
 4927 0bd7 B3250000 		.4byte	.LASF294
 4928 0bdb 9202     		.sleb128 274
 4929 0bdd 08       		.uleb128 0x8
 4930 0bde 7B3D0000 		.4byte	.LASF295
 4931 0be2 9302     		.sleb128 275
 4932 0be4 08       		.uleb128 0x8
 4933 0be5 FC340000 		.4byte	.LASF296
 4934 0be9 9402     		.sleb128 276
 4935 0beb 08       		.uleb128 0x8
 4936 0bec 853C0000 		.4byte	.LASF297
 4937 0bf0 9502     		.sleb128 277
 4938 0bf2 08       		.uleb128 0x8
 4939 0bf3 8F1B0000 		.4byte	.LASF298
 4940 0bf7 9602     		.sleb128 278
 4941 0bf9 08       		.uleb128 0x8
 4942 0bfa 48180000 		.4byte	.LASF299
 4943 0bfe 9702     		.sleb128 279
 4944 0c00 08       		.uleb128 0x8
 4945 0c01 09040000 		.4byte	.LASF300
 4946 0c05 9802     		.sleb128 280
 4947 0c07 08       		.uleb128 0x8
 4948 0c08 382A0000 		.4byte	.LASF301
 4949 0c0c 9902     		.sleb128 281
 4950 0c0e 08       		.uleb128 0x8
 4951 0c0f 111C0000 		.4byte	.LASF302
 4952 0c13 9A02     		.sleb128 282
 4953 0c15 08       		.uleb128 0x8
 4954 0c16 B82E0000 		.4byte	.LASF303
 4955 0c1a 9B02     		.sleb128 283
 4956 0c1c 08       		.uleb128 0x8
 4957 0c1d 74340000 		.4byte	.LASF304
 4958 0c21 9C02     		.sleb128 284
 4959 0c23 08       		.uleb128 0x8
 4960 0c24 1F360000 		.4byte	.LASF305
 4961 0c28 9D02     		.sleb128 285
 4962 0c2a 08       		.uleb128 0x8
 4963 0c2b 5C0D0000 		.4byte	.LASF306
 4964 0c2f 9E02     		.sleb128 286
 4965 0c31 08       		.uleb128 0x8
 4966 0c32 90340000 		.4byte	.LASF307
 4967 0c36 9F02     		.sleb128 287
 4968 0c38 08       		.uleb128 0x8
ARM GAS  C:\Users\Zachary\AppData\Local\Temp\ccmvMQUz.s 			page 141


 4969 0c39 7E060000 		.4byte	.LASF308
 4970 0c3d A002     		.sleb128 288
 4971 0c3f 08       		.uleb128 0x8
 4972 0c40 30230000 		.4byte	.LASF309
 4973 0c44 A102     		.sleb128 289
 4974 0c46 08       		.uleb128 0x8
 4975 0c47 2D320000 		.4byte	.LASF310
 4976 0c4b A202     		.sleb128 290
 4977 0c4d 08       		.uleb128 0x8
 4978 0c4e A1140000 		.4byte	.LASF311
 4979 0c52 A302     		.sleb128 291
 4980 0c54 08       		.uleb128 0x8
 4981 0c55 D2240000 		.4byte	.LASF312
 4982 0c59 A402     		.sleb128 292
 4983 0c5b 08       		.uleb128 0x8
 4984 0c5c BF160000 		.4byte	.LASF313
 4985 0c60 A502     		.sleb128 293
 4986 0c62 08       		.uleb128 0x8
 4987 0c63 C8060000 		.4byte	.LASF314
 4988 0c67 A602     		.sleb128 294
 4989 0c69 08       		.uleb128 0x8
 4990 0c6a EC010000 		.4byte	.LASF315
 4991 0c6e A702     		.sleb128 295
 4992 0c70 08       		.uleb128 0x8
 4993 0c71 14090000 		.4byte	.LASF316
 4994 0c75 A802     		.sleb128 296
 4995 0c77 08       		.uleb128 0x8
 4996 0c78 4B2C0000 		.4byte	.LASF317
 4997 0c7c A902     		.sleb128 297
 4998 0c7e 08       		.uleb128 0x8
 4999 0c7f E51F0000 		.4byte	.LASF318
 5000 0c83 AA02     		.sleb128 298
 5001 0c85 08       		.uleb128 0x8
 5002 0c86 67370000 		.4byte	.LASF319
 5003 0c8a AB02     		.sleb128 299
 5004 0c8c 08       		.uleb128 0x8
 5005 0c8d 9C080000 		.4byte	.LASF320
 5006 0c91 AC02     		.sleb128 300
 5007 0c93 08       		.uleb128 0x8
 5008 0c94 960F0000 		.4byte	.LASF321
 5009 0c98 AD02     		.sleb128 301
 5010 0c9a 08       		.uleb128 0x8
 5011 0c9b AA390000 		.4byte	.LASF322
 5012 0c9f AE02     		.sleb128 302
 5013 0ca1 08       		.uleb128 0x8
 5014 0ca2 DB370000 		.4byte	.LASF323
 5015 0ca6 AF02     		.sleb128 303
 5016 0ca8 08       		.uleb128 0x8
 5017 0ca9 87000000 		.4byte	.LASF324
 5018 0cad B002     		.sleb128 304
 5019 0caf 08       		.uleb128 0x8
 5020 0cb0 AD330000 		.4byte	.LASF325
 5021 0cb4 B102     		.sleb128 305
 5022 0cb6 08       		.uleb128 0x8
 5023 0cb7 BE1C0000 		.4byte	.LASF326
 5024 0cbb B202     		.sleb128 306
 5025 0cbd 08       		.uleb128 0x8
ARM GAS  C:\Users\Zachary\AppData\Local\Temp\ccmvMQUz.s 			page 142


 5026 0cbe 71320000 		.4byte	.LASF327
 5027 0cc2 B302     		.sleb128 307
 5028 0cc4 08       		.uleb128 0x8
 5029 0cc5 F22F0000 		.4byte	.LASF328
 5030 0cc9 B402     		.sleb128 308
 5031 0ccb 08       		.uleb128 0x8
 5032 0ccc 76010000 		.4byte	.LASF329
 5033 0cd0 B502     		.sleb128 309
 5034 0cd2 08       		.uleb128 0x8
 5035 0cd3 DD2E0000 		.4byte	.LASF330
 5036 0cd7 B602     		.sleb128 310
 5037 0cd9 08       		.uleb128 0x8
 5038 0cda E30E0000 		.4byte	.LASF331
 5039 0cde B702     		.sleb128 311
 5040 0ce0 08       		.uleb128 0x8
 5041 0ce1 9C090000 		.4byte	.LASF332
 5042 0ce5 B802     		.sleb128 312
 5043 0ce7 08       		.uleb128 0x8
 5044 0ce8 60090000 		.4byte	.LASF333
 5045 0cec B902     		.sleb128 313
 5046 0cee 08       		.uleb128 0x8
 5047 0cef A30E0000 		.4byte	.LASF334
 5048 0cf3 BA02     		.sleb128 314
 5049 0cf5 08       		.uleb128 0x8
 5050 0cf6 0F1E0000 		.4byte	.LASF335
 5051 0cfa BB02     		.sleb128 315
 5052 0cfc 08       		.uleb128 0x8
 5053 0cfd 803B0000 		.4byte	.LASF336
 5054 0d01 BC02     		.sleb128 316
 5055 0d03 08       		.uleb128 0x8
 5056 0d04 3A140000 		.4byte	.LASF337
 5057 0d08 BD02     		.sleb128 317
 5058 0d0a 08       		.uleb128 0x8
 5059 0d0b 2F2C0000 		.4byte	.LASF338
 5060 0d0f BE02     		.sleb128 318
 5061 0d11 08       		.uleb128 0x8
 5062 0d12 FA260000 		.4byte	.LASF339
 5063 0d16 BF02     		.sleb128 319
 5064 0d18 08       		.uleb128 0x8
 5065 0d19 31010000 		.4byte	.LASF340
 5066 0d1d C002     		.sleb128 320
 5067 0d1f 08       		.uleb128 0x8
 5068 0d20 721C0000 		.4byte	.LASF341
 5069 0d24 C102     		.sleb128 321
 5070 0d26 08       		.uleb128 0x8
 5071 0d27 A2000000 		.4byte	.LASF342
 5072 0d2b C202     		.sleb128 322
 5073 0d2d 08       		.uleb128 0x8
 5074 0d2e 000A0000 		.4byte	.LASF343
 5075 0d32 C302     		.sleb128 323
 5076 0d34 08       		.uleb128 0x8
 5077 0d35 3B380000 		.4byte	.LASF344
 5078 0d39 C402     		.sleb128 324
 5079 0d3b 08       		.uleb128 0x8
 5080 0d3c 90160000 		.4byte	.LASF345
 5081 0d40 C502     		.sleb128 325
 5082 0d42 08       		.uleb128 0x8
ARM GAS  C:\Users\Zachary\AppData\Local\Temp\ccmvMQUz.s 			page 143


 5083 0d43 64150000 		.4byte	.LASF346
 5084 0d47 C602     		.sleb128 326
 5085 0d49 08       		.uleb128 0x8
 5086 0d4a B9050000 		.4byte	.LASF347
 5087 0d4e C702     		.sleb128 327
 5088 0d50 08       		.uleb128 0x8
 5089 0d51 2D0A0000 		.4byte	.LASF348
 5090 0d55 C802     		.sleb128 328
 5091 0d57 08       		.uleb128 0x8
 5092 0d58 1C210000 		.4byte	.LASF349
 5093 0d5c C902     		.sleb128 329
 5094 0d5e 08       		.uleb128 0x8
 5095 0d5f 511D0000 		.4byte	.LASF350
 5096 0d63 CA02     		.sleb128 330
 5097 0d65 08       		.uleb128 0x8
 5098 0d66 23080000 		.4byte	.LASF351
 5099 0d6a CB02     		.sleb128 331
 5100 0d6c 08       		.uleb128 0x8
 5101 0d6d 11070000 		.4byte	.LASF352
 5102 0d71 CC02     		.sleb128 332
 5103 0d73 08       		.uleb128 0x8
 5104 0d74 53010000 		.4byte	.LASF353
 5105 0d78 CD02     		.sleb128 333
 5106 0d7a 08       		.uleb128 0x8
 5107 0d7b 86210000 		.4byte	.LASF354
 5108 0d7f CE02     		.sleb128 334
 5109 0d81 08       		.uleb128 0x8
 5110 0d82 043D0000 		.4byte	.LASF355
 5111 0d86 CF02     		.sleb128 335
 5112 0d88 08       		.uleb128 0x8
 5113 0d89 632E0000 		.4byte	.LASF356
 5114 0d8d D002     		.sleb128 336
 5115 0d8f 08       		.uleb128 0x8
 5116 0d90 8A150000 		.4byte	.LASF357
 5117 0d94 D102     		.sleb128 337
 5118 0d96 08       		.uleb128 0x8
 5119 0d97 EF220000 		.4byte	.LASF358
 5120 0d9b D202     		.sleb128 338
 5121 0d9d 08       		.uleb128 0x8
 5122 0d9e EA2C0000 		.4byte	.LASF359
 5123 0da2 D302     		.sleb128 339
 5124 0da4 08       		.uleb128 0x8
 5125 0da5 37030000 		.4byte	.LASF360
 5126 0da9 D402     		.sleb128 340
 5127 0dab 08       		.uleb128 0x8
 5128 0dac 392B0000 		.4byte	.LASF361
 5129 0db0 D502     		.sleb128 341
 5130 0db2 08       		.uleb128 0x8
 5131 0db3 8C130000 		.4byte	.LASF362
 5132 0db7 D602     		.sleb128 342
 5133 0db9 08       		.uleb128 0x8
 5134 0dba 351C0000 		.4byte	.LASF363
 5135 0dbe D702     		.sleb128 343
 5136 0dc0 08       		.uleb128 0x8
 5137 0dc1 DA340000 		.4byte	.LASF364
 5138 0dc5 D802     		.sleb128 344
 5139 0dc7 08       		.uleb128 0x8
ARM GAS  C:\Users\Zachary\AppData\Local\Temp\ccmvMQUz.s 			page 144


 5140 0dc8 382D0000 		.4byte	.LASF365
 5141 0dcc D902     		.sleb128 345
 5142 0dce 08       		.uleb128 0x8
 5143 0dcf 7E2A0000 		.4byte	.LASF366
 5144 0dd3 DA02     		.sleb128 346
 5145 0dd5 08       		.uleb128 0x8
 5146 0dd6 301F0000 		.4byte	.LASF367
 5147 0dda DB02     		.sleb128 347
 5148 0ddc 08       		.uleb128 0x8
 5149 0ddd BC010000 		.4byte	.LASF368
 5150 0de1 DC02     		.sleb128 348
 5151 0de3 08       		.uleb128 0x8
 5152 0de4 C5270000 		.4byte	.LASF369
 5153 0de8 DD02     		.sleb128 349
 5154 0dea 08       		.uleb128 0x8
 5155 0deb 663B0000 		.4byte	.LASF370
 5156 0def DE02     		.sleb128 350
 5157 0df1 08       		.uleb128 0x8
 5158 0df2 41360000 		.4byte	.LASF371
 5159 0df6 DF02     		.sleb128 351
 5160 0df8 08       		.uleb128 0x8
 5161 0df9 5E310000 		.4byte	.LASF372
 5162 0dfd E002     		.sleb128 352
 5163 0dff 08       		.uleb128 0x8
 5164 0e00 69020000 		.4byte	.LASF373
 5165 0e04 E102     		.sleb128 353
 5166 0e06 08       		.uleb128 0x8
 5167 0e07 41120000 		.4byte	.LASF374
 5168 0e0b E202     		.sleb128 354
 5169 0e0d 08       		.uleb128 0x8
 5170 0e0e F6370000 		.4byte	.LASF375
 5171 0e12 E302     		.sleb128 355
 5172 0e14 08       		.uleb128 0x8
 5173 0e15 C63D0000 		.4byte	.LASF376
 5174 0e19 E402     		.sleb128 356
 5175 0e1b 08       		.uleb128 0x8
 5176 0e1c 14220000 		.4byte	.LASF377
 5177 0e20 E502     		.sleb128 357
 5178 0e22 08       		.uleb128 0x8
 5179 0e23 C33C0000 		.4byte	.LASF378
 5180 0e27 E602     		.sleb128 358
 5181 0e29 08       		.uleb128 0x8
 5182 0e2a CD210000 		.4byte	.LASF379
 5183 0e2e E702     		.sleb128 359
 5184 0e30 08       		.uleb128 0x8
 5185 0e31 F40C0000 		.4byte	.LASF380
 5186 0e35 E802     		.sleb128 360
 5187 0e37 08       		.uleb128 0x8
 5188 0e38 87190000 		.4byte	.LASF381
 5189 0e3c E902     		.sleb128 361
 5190 0e3e 08       		.uleb128 0x8
 5191 0e3f 30170000 		.4byte	.LASF382
 5192 0e43 EA02     		.sleb128 362
 5193 0e45 08       		.uleb128 0x8
 5194 0e46 7D0C0000 		.4byte	.LASF383
 5195 0e4a EB02     		.sleb128 363
 5196 0e4c 08       		.uleb128 0x8
ARM GAS  C:\Users\Zachary\AppData\Local\Temp\ccmvMQUz.s 			page 145


 5197 0e4d 16300000 		.4byte	.LASF384
 5198 0e51 EC02     		.sleb128 364
 5199 0e53 08       		.uleb128 0x8
 5200 0e54 431A0000 		.4byte	.LASF385
 5201 0e58 ED02     		.sleb128 365
 5202 0e5a 08       		.uleb128 0x8
 5203 0e5b C3280000 		.4byte	.LASF386
 5204 0e5f EE02     		.sleb128 366
 5205 0e61 08       		.uleb128 0x8
 5206 0e62 C0030000 		.4byte	.LASF387
 5207 0e66 EF02     		.sleb128 367
 5208 0e68 08       		.uleb128 0x8
 5209 0e69 54140000 		.4byte	.LASF388
 5210 0e6d F002     		.sleb128 368
 5211 0e6f 08       		.uleb128 0x8
 5212 0e70 1C150000 		.4byte	.LASF389
 5213 0e74 F102     		.sleb128 369
 5214 0e76 08       		.uleb128 0x8
 5215 0e77 0F3E0000 		.4byte	.LASF390
 5216 0e7b F202     		.sleb128 370
 5217 0e7d 08       		.uleb128 0x8
 5218 0e7e 6A280000 		.4byte	.LASF391
 5219 0e82 F302     		.sleb128 371
 5220 0e84 08       		.uleb128 0x8
 5221 0e85 E7280000 		.4byte	.LASF392
 5222 0e89 F402     		.sleb128 372
 5223 0e8b 08       		.uleb128 0x8
 5224 0e8c E0070000 		.4byte	.LASF393
 5225 0e90 F502     		.sleb128 373
 5226 0e92 08       		.uleb128 0x8
 5227 0e93 53160000 		.4byte	.LASF394
 5228 0e97 F602     		.sleb128 374
 5229 0e99 08       		.uleb128 0x8
 5230 0e9a C8300000 		.4byte	.LASF395
 5231 0e9e F702     		.sleb128 375
 5232 0ea0 08       		.uleb128 0x8
 5233 0ea1 BA0B0000 		.4byte	.LASF396
 5234 0ea5 F802     		.sleb128 376
 5235 0ea7 08       		.uleb128 0x8
 5236 0ea8 22000000 		.4byte	.LASF397
 5237 0eac F902     		.sleb128 377
 5238 0eae 08       		.uleb128 0x8
 5239 0eaf D0350000 		.4byte	.LASF398
 5240 0eb3 FA02     		.sleb128 378
 5241 0eb5 08       		.uleb128 0x8
 5242 0eb6 B8120000 		.4byte	.LASF399
 5243 0eba FB02     		.sleb128 379
 5244 0ebc 08       		.uleb128 0x8
 5245 0ebd EB3D0000 		.4byte	.LASF400
 5246 0ec1 FC02     		.sleb128 380
 5247 0ec3 08       		.uleb128 0x8
 5248 0ec4 F71B0000 		.4byte	.LASF401
 5249 0ec8 FD02     		.sleb128 381
 5250 0eca 08       		.uleb128 0x8
 5251 0ecb A21E0000 		.4byte	.LASF402
 5252 0ecf FE02     		.sleb128 382
 5253 0ed1 08       		.uleb128 0x8
ARM GAS  C:\Users\Zachary\AppData\Local\Temp\ccmvMQUz.s 			page 146


 5254 0ed2 A03D0000 		.4byte	.LASF403
 5255 0ed6 FF02     		.sleb128 383
 5256 0ed8 08       		.uleb128 0x8
 5257 0ed9 9B320000 		.4byte	.LASF404
 5258 0edd 8003     		.sleb128 384
 5259 0edf 08       		.uleb128 0x8
 5260 0ee0 1A250000 		.4byte	.LASF405
 5261 0ee4 8103     		.sleb128 385
 5262 0ee6 08       		.uleb128 0x8
 5263 0ee7 6C270000 		.4byte	.LASF406
 5264 0eeb 8203     		.sleb128 386
 5265 0eed 08       		.uleb128 0x8
 5266 0eee EA380000 		.4byte	.LASF407
 5267 0ef2 8303     		.sleb128 387
 5268 0ef4 08       		.uleb128 0x8
 5269 0ef5 C11A0000 		.4byte	.LASF408
 5270 0ef9 8403     		.sleb128 388
 5271 0efb 08       		.uleb128 0x8
 5272 0efc 10160000 		.4byte	.LASF409
 5273 0f00 8503     		.sleb128 389
 5274 0f02 08       		.uleb128 0x8
 5275 0f03 FA200000 		.4byte	.LASF410
 5276 0f07 8603     		.sleb128 390
 5277 0f09 08       		.uleb128 0x8
 5278 0f0a EB360000 		.4byte	.LASF411
 5279 0f0e 8703     		.sleb128 391
 5280 0f10 08       		.uleb128 0x8
 5281 0f11 CB2D0000 		.4byte	.LASF412
 5282 0f15 8803     		.sleb128 392
 5283 0f17 08       		.uleb128 0x8
 5284 0f18 14030000 		.4byte	.LASF413
 5285 0f1c 8903     		.sleb128 393
 5286 0f1e 08       		.uleb128 0x8
 5287 0f1f 142A0000 		.4byte	.LASF414
 5288 0f23 8A03     		.sleb128 394
 5289 0f25 08       		.uleb128 0x8
 5290 0f26 BE090000 		.4byte	.LASF415
 5291 0f2a 8B03     		.sleb128 395
 5292 0f2c 08       		.uleb128 0x8
 5293 0f2d EA1D0000 		.4byte	.LASF416
 5294 0f31 8C03     		.sleb128 396
 5295 0f33 08       		.uleb128 0x8
 5296 0f34 EC300000 		.4byte	.LASF417
 5297 0f38 8D03     		.sleb128 397
 5298 0f3a 08       		.uleb128 0x8
 5299 0f3b F9050000 		.4byte	.LASF418
 5300 0f3f 8E03     		.sleb128 398
 5301 0f41 08       		.uleb128 0x8
 5302 0f42 942C0000 		.4byte	.LASF419
 5303 0f46 8F03     		.sleb128 399
 5304 0f48 08       		.uleb128 0x8
 5305 0f49 5C2A0000 		.4byte	.LASF420
 5306 0f4d 9003     		.sleb128 400
 5307 0f4f 08       		.uleb128 0x8
 5308 0f50 D8170000 		.4byte	.LASF421
 5309 0f54 9103     		.sleb128 401
 5310 0f56 08       		.uleb128 0x8
ARM GAS  C:\Users\Zachary\AppData\Local\Temp\ccmvMQUz.s 			page 147


 5311 0f57 A13A0000 		.4byte	.LASF422
 5312 0f5b 9203     		.sleb128 402
 5313 0f5d 08       		.uleb128 0x8
 5314 0f5e D6200000 		.4byte	.LASF423
 5315 0f62 9303     		.sleb128 403
 5316 0f64 08       		.uleb128 0x8
 5317 0f65 48290000 		.4byte	.LASF424
 5318 0f69 9403     		.sleb128 404
 5319 0f6b 08       		.uleb128 0x8
 5320 0f6c 302E0000 		.4byte	.LASF425
 5321 0f70 9503     		.sleb128 405
 5322 0f72 08       		.uleb128 0x8
 5323 0f73 CC2F0000 		.4byte	.LASF426
 5324 0f77 9603     		.sleb128 406
 5325 0f79 08       		.uleb128 0x8
 5326 0f7a 571C0000 		.4byte	.LASF427
 5327 0f7e 9703     		.sleb128 407
 5328 0f80 08       		.uleb128 0x8
 5329 0f81 47000000 		.4byte	.LASF428
 5330 0f85 9803     		.sleb128 408
 5331 0f87 08       		.uleb128 0x8
 5332 0f88 2F060000 		.4byte	.LASF429
 5333 0f8c 9903     		.sleb128 409
 5334 0f8e 08       		.uleb128 0x8
 5335 0f8f 620A0000 		.4byte	.LASF430
 5336 0f93 9A03     		.sleb128 410
 5337 0f95 08       		.uleb128 0x8
 5338 0f96 49190000 		.4byte	.LASF431
 5339 0f9a 9B03     		.sleb128 411
 5340 0f9c 08       		.uleb128 0x8
 5341 0f9d D5320000 		.4byte	.LASF432
 5342 0fa1 9C03     		.sleb128 412
 5343 0fa3 08       		.uleb128 0x8
 5344 0fa4 493D0000 		.4byte	.LASF433
 5345 0fa8 9D03     		.sleb128 413
 5346 0faa 08       		.uleb128 0x8
 5347 0fab 1D1A0000 		.4byte	.LASF434
 5348 0faf 9E03     		.sleb128 414
 5349 0fb1 08       		.uleb128 0x8
 5350 0fb2 540E0000 		.4byte	.LASF435
 5351 0fb6 9F03     		.sleb128 415
 5352 0fb8 08       		.uleb128 0x8
 5353 0fb9 D6150000 		.4byte	.LASF436
 5354 0fbd A003     		.sleb128 416
 5355 0fbf 08       		.uleb128 0x8
 5356 0fc0 86280000 		.4byte	.LASF437
 5357 0fc4 A103     		.sleb128 417
 5358 0fc6 08       		.uleb128 0x8
 5359 0fc7 81030000 		.4byte	.LASF438
 5360 0fcb A203     		.sleb128 418
 5361 0fcd 08       		.uleb128 0x8
 5362 0fce E8310000 		.4byte	.LASF439
 5363 0fd2 A303     		.sleb128 419
 5364 0fd4 08       		.uleb128 0x8
 5365 0fd5 330F0000 		.4byte	.LASF440
 5366 0fd9 A403     		.sleb128 420
 5367 0fdb 08       		.uleb128 0x8
ARM GAS  C:\Users\Zachary\AppData\Local\Temp\ccmvMQUz.s 			page 148


 5368 0fdc 970B0000 		.4byte	.LASF441
 5369 0fe0 A503     		.sleb128 421
 5370 0fe2 08       		.uleb128 0x8
 5371 0fe3 F8140000 		.4byte	.LASF442
 5372 0fe7 A603     		.sleb128 422
 5373 0fe9 08       		.uleb128 0x8
 5374 0fea 5F380000 		.4byte	.LASF443
 5375 0fee A703     		.sleb128 423
 5376 0ff0 08       		.uleb128 0x8
 5377 0ff1 DE020000 		.4byte	.LASF444
 5378 0ff5 A803     		.sleb128 424
 5379 0ff7 08       		.uleb128 0x8
 5380 0ff8 CE000000 		.4byte	.LASF445
 5381 0ffc A903     		.sleb128 425
 5382 0ffe 08       		.uleb128 0x8
 5383 0fff DB120000 		.4byte	.LASF446
 5384 1003 AA03     		.sleb128 426
 5385 1005 08       		.uleb128 0x8
 5386 1006 BF100000 		.4byte	.LASF447
 5387 100a AB03     		.sleb128 427
 5388 100c 08       		.uleb128 0x8
 5389 100d 69230000 		.4byte	.LASF448
 5390 1011 AC03     		.sleb128 428
 5391 1013 08       		.uleb128 0x8
 5392 1014 96360000 		.4byte	.LASF449
 5393 1018 AD03     		.sleb128 429
 5394 101a 08       		.uleb128 0x8
 5395 101b B0210000 		.4byte	.LASF450
 5396 101f AE03     		.sleb128 430
 5397 1021 08       		.uleb128 0x8
 5398 1022 A4300000 		.4byte	.LASF451
 5399 1026 AF03     		.sleb128 431
 5400 1028 08       		.uleb128 0x8
 5401 1029 2C110000 		.4byte	.LASF452
 5402 102d B003     		.sleb128 432
 5403 102f 08       		.uleb128 0x8
 5404 1030 E5030000 		.4byte	.LASF453
 5405 1034 B103     		.sleb128 433
 5406 1036 08       		.uleb128 0x8
 5407 1037 7F300000 		.4byte	.LASF454
 5408 103b B203     		.sleb128 434
 5409 103d 08       		.uleb128 0x8
 5410 103e 71110000 		.4byte	.LASF455
 5411 1042 B303     		.sleb128 435
 5412 1044 08       		.uleb128 0x8
 5413 1045 ED1E0000 		.4byte	.LASF456
 5414 1049 B403     		.sleb128 436
 5415 104b 08       		.uleb128 0x8
 5416 104c 2C2F0000 		.4byte	.LASF457
 5417 1050 B503     		.sleb128 437
 5418 1052 08       		.uleb128 0x8
 5419 1053 40150000 		.4byte	.LASF458
 5420 1057 B603     		.sleb128 438
 5421 1059 08       		.uleb128 0x8
 5422 105a 99350000 		.4byte	.LASF459
 5423 105e B703     		.sleb128 439
 5424 1060 08       		.uleb128 0x8
ARM GAS  C:\Users\Zachary\AppData\Local\Temp\ccmvMQUz.s 			page 149


 5425 1061 FE130000 		.4byte	.LASF460
 5426 1065 B803     		.sleb128 440
 5427 1067 08       		.uleb128 0x8
 5428 1068 930A0000 		.4byte	.LASF461
 5429 106c B903     		.sleb128 441
 5430 106e 08       		.uleb128 0x8
 5431 106f AB290000 		.4byte	.LASF462
 5432 1073 BA03     		.sleb128 442
 5433 1075 08       		.uleb128 0x8
 5434 1076 6B180000 		.4byte	.LASF463
 5435 107a BB03     		.sleb128 443
 5436 107c 08       		.uleb128 0x8
 5437 107d 90180000 		.4byte	.LASF464
 5438 1081 BC03     		.sleb128 444
 5439 1083 08       		.uleb128 0x8
 5440 1084 6D000000 		.4byte	.LASF465
 5441 1088 BD03     		.sleb128 445
 5442 108a 08       		.uleb128 0x8
 5443 108b 6F220000 		.4byte	.LASF466
 5444 108f BE03     		.sleb128 446
 5445 1091 08       		.uleb128 0x8
 5446 1092 00000000 		.4byte	.LASF467
 5447 1096 BF03     		.sleb128 447
 5448 1098 08       		.uleb128 0x8
 5449 1099 31260000 		.4byte	.LASF468
 5450 109d C003     		.sleb128 448
 5451 109f 08       		.uleb128 0x8
 5452 10a0 F2350000 		.4byte	.LASF469
 5453 10a4 C103     		.sleb128 449
 5454 10a6 08       		.uleb128 0x8
 5455 10a7 9C030000 		.4byte	.LASF470
 5456 10ab C203     		.sleb128 450
 5457 10ad 08       		.uleb128 0x8
 5458 10ae 8F270000 		.4byte	.LASF471
 5459 10b2 80C003   		.sleb128 57344
 5460 10b5 00       		.byte	0
 5461 10b6 09       		.uleb128 0x9
 5462 10b7 01       		.byte	0x1
 5463 10b8 0A       		.byte	0xa
 5464 10b9 9505     		.2byte	0x595
 5465 10bb E4100000 		.4byte	0x10e4
 5466 10bf 08       		.uleb128 0x8
 5467 10c0 400E0000 		.4byte	.LASF472
 5468 10c4 00       		.sleb128 0
 5469 10c5 08       		.uleb128 0x8
 5470 10c6 BE360000 		.4byte	.LASF473
 5471 10ca 01       		.sleb128 1
 5472 10cb 08       		.uleb128 0x8
 5473 10cc C43A0000 		.4byte	.LASF474
 5474 10d0 02       		.sleb128 2
 5475 10d1 08       		.uleb128 0x8
 5476 10d2 24050000 		.4byte	.LASF475
 5477 10d6 03       		.sleb128 3
 5478 10d7 08       		.uleb128 0x8
 5479 10d8 F5110000 		.4byte	.LASF476
 5480 10dc 04       		.sleb128 4
 5481 10dd 08       		.uleb128 0x8
ARM GAS  C:\Users\Zachary\AppData\Local\Temp\ccmvMQUz.s 			page 150


 5482 10de 45310000 		.4byte	.LASF477
 5483 10e2 05       		.sleb128 5
 5484 10e3 00       		.byte	0
 5485 10e4 0A       		.uleb128 0xa
 5486 10e5 49340000 		.4byte	.LASF478
 5487 10e9 0A       		.byte	0xa
 5488 10ea A305     		.2byte	0x5a3
 5489 10ec B6100000 		.4byte	0x10b6
 5490 10f0 09       		.uleb128 0x9
 5491 10f1 01       		.byte	0x1
 5492 10f2 0A       		.byte	0xa
 5493 10f3 A905     		.2byte	0x5a9
 5494 10f5 30110000 		.4byte	0x1130
 5495 10f9 08       		.uleb128 0x8
 5496 10fa AE2D0000 		.4byte	.LASF479
 5497 10fe 00       		.sleb128 0
 5498 10ff 08       		.uleb128 0x8
 5499 1100 B0130000 		.4byte	.LASF480
 5500 1104 01       		.sleb128 1
 5501 1105 08       		.uleb128 0x8
 5502 1106 80310000 		.4byte	.LASF481
 5503 110a 02       		.sleb128 2
 5504 110b 08       		.uleb128 0x8
 5505 110c E4040000 		.4byte	.LASF482
 5506 1110 03       		.sleb128 3
 5507 1111 08       		.uleb128 0x8
 5508 1112 5A300000 		.4byte	.LASF483
 5509 1116 04       		.sleb128 4
 5510 1117 08       		.uleb128 0x8
 5511 1118 602F0000 		.4byte	.LASF484
 5512 111c 05       		.sleb128 5
 5513 111d 08       		.uleb128 0x8
 5514 111e D7250000 		.4byte	.LASF485
 5515 1122 06       		.sleb128 6
 5516 1123 08       		.uleb128 0x8
 5517 1124 080F0000 		.4byte	.LASF486
 5518 1128 07       		.sleb128 7
 5519 1129 08       		.uleb128 0x8
 5520 112a 751D0000 		.4byte	.LASF487
 5521 112e 08       		.sleb128 8
 5522 112f 00       		.byte	0
 5523 1130 0A       		.uleb128 0xa
 5524 1131 18280000 		.4byte	.LASF488
 5525 1135 0A       		.byte	0xa
 5526 1136 B305     		.2byte	0x5b3
 5527 1138 F0100000 		.4byte	0x10f0
 5528 113c 0B       		.uleb128 0xb
 5529 113d 0A       		.byte	0xa
 5530 113e 0A       		.byte	0xa
 5531 113f B605     		.2byte	0x5b6
 5532 1141 87110000 		.4byte	0x1187
 5533 1145 0C       		.uleb128 0xc
 5534 1146 8D200000 		.4byte	.LASF489
 5535 114a 0A       		.byte	0xa
 5536 114b B905     		.2byte	0x5b9
 5537 114d 45070000 		.4byte	0x745
 5538 1151 00       		.byte	0
ARM GAS  C:\Users\Zachary\AppData\Local\Temp\ccmvMQUz.s 			page 151


 5539 1152 0C       		.uleb128 0xc
 5540 1153 AE280000 		.4byte	.LASF490
 5541 1157 0A       		.byte	0xa
 5542 1158 BB05     		.2byte	0x5bb
 5543 115a 45070000 		.4byte	0x745
 5544 115e 02       		.byte	0x2
 5545 115f 0C       		.uleb128 0xc
 5546 1160 79140000 		.4byte	.LASF491
 5547 1164 0A       		.byte	0xa
 5548 1165 BD05     		.2byte	0x5bd
 5549 1167 45070000 		.4byte	0x745
 5550 116b 04       		.byte	0x4
 5551 116c 0C       		.uleb128 0xc
 5552 116d 740B0000 		.4byte	.LASF492
 5553 1171 0A       		.byte	0xa
 5554 1172 BF05     		.2byte	0x5bf
 5555 1174 45070000 		.4byte	0x745
 5556 1178 06       		.byte	0x6
 5557 1179 0C       		.uleb128 0xc
 5558 117a 54260000 		.4byte	.LASF493
 5559 117e 0A       		.byte	0xa
 5560 117f C205     		.2byte	0x5c2
 5561 1181 45070000 		.4byte	0x745
 5562 1185 08       		.byte	0x8
 5563 1186 00       		.byte	0
 5564 1187 0A       		.uleb128 0xa
 5565 1188 53090000 		.4byte	.LASF494
 5566 118c 0A       		.byte	0xa
 5567 118d C305     		.2byte	0x5c3
 5568 118f 3C110000 		.4byte	0x113c
 5569 1193 09       		.uleb128 0x9
 5570 1194 01       		.byte	0x1
 5571 1195 0A       		.byte	0xa
 5572 1196 C705     		.2byte	0x5c7
 5573 1198 B5110000 		.4byte	0x11b5
 5574 119c 08       		.uleb128 0x8
 5575 119d 7E2F0000 		.4byte	.LASF495
 5576 11a1 00       		.sleb128 0
 5577 11a2 08       		.uleb128 0x8
 5578 11a3 1D190000 		.4byte	.LASF496
 5579 11a7 01       		.sleb128 1
 5580 11a8 08       		.uleb128 0x8
 5581 11a9 510B0000 		.4byte	.LASF497
 5582 11ad 02       		.sleb128 2
 5583 11ae 08       		.uleb128 0x8
 5584 11af 16350000 		.4byte	.LASF498
 5585 11b3 03       		.sleb128 3
 5586 11b4 00       		.byte	0
 5587 11b5 09       		.uleb128 0x9
 5588 11b6 01       		.byte	0x1
 5589 11b7 0A       		.byte	0xa
 5590 11b8 1506     		.2byte	0x615
 5591 11ba CB110000 		.4byte	0x11cb
 5592 11be 08       		.uleb128 0x8
 5593 11bf 4C1E0000 		.4byte	.LASF499
 5594 11c3 00       		.sleb128 0
 5595 11c4 08       		.uleb128 0x8
ARM GAS  C:\Users\Zachary\AppData\Local\Temp\ccmvMQUz.s 			page 152


 5596 11c5 D4130000 		.4byte	.LASF500
 5597 11c9 01       		.sleb128 1
 5598 11ca 00       		.byte	0
 5599 11cb 17       		.uleb128 0x17
 5600 11cc C3310000 		.4byte	.LASF501
 5601 11d0 01       		.byte	0x1
 5602 11d1 A001     		.2byte	0x1a0
 5603 11d3 00000000 		.4byte	.LFB2
 5604 11d7 0E000000 		.4byte	.LFE2-.LFB2
 5605 11db 01       		.uleb128 0x1
 5606 11dc 9C       		.byte	0x9c
 5607 11dd F1110000 		.4byte	0x11f1
 5608 11e1 18       		.uleb128 0x18
 5609 11e2 E1010000 		.4byte	.LASF503
 5610 11e6 01       		.byte	0x1
 5611 11e7 A001     		.2byte	0x1a0
 5612 11e9 F1110000 		.4byte	0x11f1
 5613 11ed 02       		.uleb128 0x2
 5614 11ee 91       		.byte	0x91
 5615 11ef 74       		.sleb128 -12
 5616 11f0 00       		.byte	0
 5617 11f1 0F       		.uleb128 0xf
 5618 11f2 04       		.byte	0x4
 5619 11f3 F7110000 		.4byte	0x11f7
 5620 11f7 19       		.uleb128 0x19
 5621 11f8 75070000 		.4byte	0x775
 5622 11fc 17       		.uleb128 0x17
 5623 11fd A4310000 		.4byte	.LASF502
 5624 1201 01       		.byte	0x1
 5625 1202 2D02     		.2byte	0x22d
 5626 1204 00000000 		.4byte	.LFB3
 5627 1208 0E000000 		.4byte	.LFE3-.LFB3
 5628 120c 01       		.uleb128 0x1
 5629 120d 9C       		.byte	0x9c
 5630 120e 22120000 		.4byte	0x1222
 5631 1212 18       		.uleb128 0x18
 5632 1213 E1010000 		.4byte	.LASF503
 5633 1217 01       		.byte	0x1
 5634 1218 2D02     		.2byte	0x22d
 5635 121a 22120000 		.4byte	0x1222
 5636 121e 02       		.uleb128 0x2
 5637 121f 91       		.byte	0x91
 5638 1220 74       		.sleb128 -12
 5639 1221 00       		.byte	0
 5640 1222 0F       		.uleb128 0xf
 5641 1223 04       		.byte	0x4
 5642 1224 EA080000 		.4byte	0x8ea
 5643 1228 17       		.uleb128 0x17
 5644 1229 A41A0000 		.4byte	.LASF504
 5645 122d 01       		.byte	0x1
 5646 122e A302     		.2byte	0x2a3
 5647 1230 00000000 		.4byte	.LFB4
 5648 1234 0E000000 		.4byte	.LFE4-.LFB4
 5649 1238 01       		.uleb128 0x1
 5650 1239 9C       		.byte	0x9c
 5651 123a 4E120000 		.4byte	0x124e
 5652 123e 18       		.uleb128 0x18
ARM GAS  C:\Users\Zachary\AppData\Local\Temp\ccmvMQUz.s 			page 153


 5653 123f E1010000 		.4byte	.LASF503
 5654 1243 01       		.byte	0x1
 5655 1244 A302     		.2byte	0x2a3
 5656 1246 4E120000 		.4byte	0x124e
 5657 124a 02       		.uleb128 0x2
 5658 124b 91       		.byte	0x91
 5659 124c 74       		.sleb128 -12
 5660 124d 00       		.byte	0
 5661 124e 0F       		.uleb128 0xf
 5662 124f 04       		.byte	0x4
 5663 1250 F5080000 		.4byte	0x8f5
 5664 1254 17       		.uleb128 0x17
 5665 1255 C1080000 		.4byte	.LASF505
 5666 1259 01       		.byte	0x1
 5667 125a ED02     		.2byte	0x2ed
 5668 125c 00000000 		.4byte	.LFB5
 5669 1260 0E000000 		.4byte	.LFE5-.LFB5
 5670 1264 01       		.uleb128 0x1
 5671 1265 9C       		.byte	0x9c
 5672 1266 7A120000 		.4byte	0x127a
 5673 126a 18       		.uleb128 0x18
 5674 126b E1010000 		.4byte	.LASF503
 5675 126f 01       		.byte	0x1
 5676 1270 ED02     		.2byte	0x2ed
 5677 1272 7A120000 		.4byte	0x127a
 5678 1276 02       		.uleb128 0x2
 5679 1277 91       		.byte	0x91
 5680 1278 74       		.sleb128 -12
 5681 1279 00       		.byte	0
 5682 127a 0F       		.uleb128 0xf
 5683 127b 04       		.byte	0x4
 5684 127c BE080000 		.4byte	0x8be
 5685 1280 1A       		.uleb128 0x1a
 5686 1281 CC1E0000 		.4byte	.LASF507
 5687 1285 01       		.byte	0x1
 5688 1286 7C03     		.2byte	0x37c
 5689 1288 00000000 		.4byte	.LFB6
 5690 128c 34000000 		.4byte	.LFE6-.LFB6
 5691 1290 01       		.uleb128 0x1
 5692 1291 9C       		.byte	0x9c
 5693 1292 1B       		.uleb128 0x1b
 5694 1293 932E0000 		.4byte	.LASF506
 5695 1297 01       		.byte	0x1
 5696 1298 B603     		.2byte	0x3b6
 5697 129a 00000000 		.4byte	.LFB7
 5698 129e B8000000 		.4byte	.LFE7-.LFB7
 5699 12a2 01       		.uleb128 0x1
 5700 12a3 9C       		.byte	0x9c
 5701 12a4 B8120000 		.4byte	0x12b8
 5702 12a8 18       		.uleb128 0x18
 5703 12a9 E1010000 		.4byte	.LASF503
 5704 12ad 01       		.byte	0x1
 5705 12ae B603     		.2byte	0x3b6
 5706 12b0 B8120000 		.4byte	0x12b8
 5707 12b4 02       		.uleb128 0x2
 5708 12b5 91       		.byte	0x91
 5709 12b6 74       		.sleb128 -12
ARM GAS  C:\Users\Zachary\AppData\Local\Temp\ccmvMQUz.s 			page 154


 5710 12b7 00       		.byte	0
 5711 12b8 0F       		.uleb128 0xf
 5712 12b9 04       		.byte	0x4
 5713 12ba BE120000 		.4byte	0x12be
 5714 12be 19       		.uleb128 0x19
 5715 12bf FC030000 		.4byte	0x3fc
 5716 12c3 1A       		.uleb128 0x1a
 5717 12c4 301E0000 		.4byte	.LASF508
 5718 12c8 01       		.byte	0x1
 5719 12c9 F203     		.2byte	0x3f2
 5720 12cb 00000000 		.4byte	.LFB8
 5721 12cf 08000000 		.4byte	.LFE8-.LFB8
 5722 12d3 01       		.uleb128 0x1
 5723 12d4 9C       		.byte	0x9c
 5724 12d5 1C       		.uleb128 0x1c
 5725 12d6 98250000 		.4byte	.LASF531
 5726 12da 01       		.byte	0x1
 5727 12db 1C04     		.2byte	0x41c
 5728 12dd 6B000000 		.4byte	0x6b
 5729 12e1 00000000 		.4byte	.LFB9
 5730 12e5 60000000 		.4byte	.LFE9-.LFB9
 5731 12e9 01       		.uleb128 0x1
 5732 12ea 9C       		.byte	0x9c
 5733 12eb 1B130000 		.4byte	0x131b
 5734 12ef 18       		.uleb128 0x18
 5735 12f0 541F0000 		.4byte	.LASF509
 5736 12f4 01       		.byte	0x1
 5737 12f5 1C04     		.2byte	0x41c
 5738 12f7 1B130000 		.4byte	0x131b
 5739 12fb 02       		.uleb128 0x2
 5740 12fc 91       		.byte	0x91
 5741 12fd 6C       		.sleb128 -20
 5742 12fe 1D       		.uleb128 0x1d
 5743 12ff 6900     		.ascii	"i\000"
 5744 1301 01       		.byte	0x1
 5745 1302 1E04     		.2byte	0x41e
 5746 1304 6B000000 		.4byte	0x6b
 5747 1308 02       		.uleb128 0x2
 5748 1309 91       		.byte	0x91
 5749 130a 77       		.sleb128 -9
 5750 130b 1E       		.uleb128 0x1e
 5751 130c 722B0000 		.4byte	.LASF510
 5752 1310 01       		.byte	0x1
 5753 1311 1F04     		.2byte	0x41f
 5754 1313 6B000000 		.4byte	0x6b
 5755 1317 02       		.uleb128 0x2
 5756 1318 91       		.byte	0x91
 5757 1319 76       		.sleb128 -10
 5758 131a 00       		.byte	0
 5759 131b 0F       		.uleb128 0xf
 5760 131c 04       		.byte	0x4
 5761 131d 21130000 		.4byte	0x1321
 5762 1321 19       		.uleb128 0x19
 5763 1322 CF030000 		.4byte	0x3cf
 5764 1326 17       		.uleb128 0x17
 5765 1327 FA320000 		.4byte	.LASF511
 5766 132b 01       		.byte	0x1
ARM GAS  C:\Users\Zachary\AppData\Local\Temp\ccmvMQUz.s 			page 155


 5767 132c 4204     		.2byte	0x442
 5768 132e 00000000 		.4byte	.LFB10
 5769 1332 12000000 		.4byte	.LFE10-.LFB10
 5770 1336 01       		.uleb128 0x1
 5771 1337 9C       		.byte	0x9c
 5772 1338 4C130000 		.4byte	0x134c
 5773 133c 18       		.uleb128 0x18
 5774 133d 8D360000 		.4byte	.LASF512
 5775 1341 01       		.byte	0x1
 5776 1342 4204     		.2byte	0x442
 5777 1344 76000000 		.4byte	0x76
 5778 1348 02       		.uleb128 0x2
 5779 1349 91       		.byte	0x91
 5780 134a 76       		.sleb128 -10
 5781 134b 00       		.byte	0
 5782 134c 17       		.uleb128 0x17
 5783 134d AE150000 		.4byte	.LASF513
 5784 1351 01       		.byte	0x1
 5785 1352 5E04     		.2byte	0x45e
 5786 1354 00000000 		.4byte	.LFB11
 5787 1358 0E000000 		.4byte	.LFE11-.LFB11
 5788 135c 01       		.uleb128 0x1
 5789 135d 9C       		.byte	0x9c
 5790 135e 72130000 		.4byte	0x1372
 5791 1362 18       		.uleb128 0x18
 5792 1363 E1010000 		.4byte	.LASF503
 5793 1367 01       		.byte	0x1
 5794 1368 5E04     		.2byte	0x45e
 5795 136a 72130000 		.4byte	0x1372
 5796 136e 02       		.uleb128 0x2
 5797 136f 91       		.byte	0x91
 5798 1370 74       		.sleb128 -12
 5799 1371 00       		.byte	0
 5800 1372 0F       		.uleb128 0xf
 5801 1373 04       		.byte	0x4
 5802 1374 78130000 		.4byte	0x1378
 5803 1378 19       		.uleb128 0x19
 5804 1379 50050000 		.4byte	0x550
 5805 137d 1F       		.uleb128 0x1f
 5806 137e B10D0000 		.4byte	.LASF517
 5807 1382 01       		.byte	0x1
 5808 1383 7A04     		.2byte	0x47a
 5809 1385 00000000 		.4byte	.LFB12
 5810 1389 E0020000 		.4byte	.LFE12-.LFB12
 5811 138d 01       		.uleb128 0x1
 5812 138e 9C       		.byte	0x9c
 5813 138f E8130000 		.4byte	0x13e8
 5814 1393 18       		.uleb128 0x18
 5815 1394 83380000 		.4byte	.LASF514
 5816 1398 01       		.byte	0x1
 5817 1399 7A04     		.2byte	0x47a
 5818 139b 6B000000 		.4byte	0x6b
 5819 139f 02       		.uleb128 0x2
 5820 13a0 91       		.byte	0x91
 5821 13a1 6F       		.sleb128 -17
 5822 13a2 18       		.uleb128 0x18
 5823 13a3 E1010000 		.4byte	.LASF503
ARM GAS  C:\Users\Zachary\AppData\Local\Temp\ccmvMQUz.s 			page 156


 5824 13a7 01       		.byte	0x1
 5825 13a8 7A04     		.2byte	0x47a
 5826 13aa AD000000 		.4byte	0xad
 5827 13ae 02       		.uleb128 0x2
 5828 13af 91       		.byte	0x91
 5829 13b0 68       		.sleb128 -24
 5830 13b1 20       		.uleb128 0x20
 5831 13b2 32000000 		.4byte	.LBB2
 5832 13b6 34000000 		.4byte	.LBE2-.LBB2
 5833 13ba CE130000 		.4byte	0x13ce
 5834 13be 1E       		.uleb128 0x1e
 5835 13bf E62B0000 		.4byte	.LASF515
 5836 13c3 01       		.byte	0x1
 5837 13c4 8704     		.2byte	0x487
 5838 13c6 8F030000 		.4byte	0x38f
 5839 13ca 02       		.uleb128 0x2
 5840 13cb 91       		.byte	0x91
 5841 13cc 74       		.sleb128 -12
 5842 13cd 00       		.byte	0
 5843 13ce 21       		.uleb128 0x21
 5844 13cf C6010000 		.4byte	.LBB3
 5845 13d3 3A000000 		.4byte	.LBE3-.LBB3
 5846 13d7 1E       		.uleb128 0x1e
 5847 13d8 FB1C0000 		.4byte	.LASF516
 5848 13dc 01       		.byte	0x1
 5849 13dd 5705     		.2byte	0x557
 5850 13df 76000000 		.4byte	0x76
 5851 13e3 02       		.uleb128 0x2
 5852 13e4 91       		.byte	0x91
 5853 13e5 76       		.sleb128 -10
 5854 13e6 00       		.byte	0
 5855 13e7 00       		.byte	0
 5856 13e8 1F       		.uleb128 0x1f
 5857 13e9 D9160000 		.4byte	.LASF518
 5858 13ed 01       		.byte	0x1
 5859 13ee EB05     		.2byte	0x5eb
 5860 13f0 00000000 		.4byte	.LFB13
 5861 13f4 FC010000 		.4byte	.LFE13-.LFB13
 5862 13f8 01       		.uleb128 0x1
 5863 13f9 9C       		.byte	0x9c
 5864 13fa 64140000 		.4byte	0x1464
 5865 13fe 18       		.uleb128 0x18
 5866 13ff E1010000 		.4byte	.LASF503
 5867 1403 01       		.byte	0x1
 5868 1404 EB05     		.2byte	0x5eb
 5869 1406 64140000 		.4byte	0x1464
 5870 140a 02       		.uleb128 0x2
 5871 140b 91       		.byte	0x91
 5872 140c 64       		.sleb128 -28
 5873 140d 1D       		.uleb128 0x1d
 5874 140e 6A00     		.ascii	"j\000"
 5875 1410 01       		.byte	0x1
 5876 1411 ED05     		.2byte	0x5ed
 5877 1413 6B000000 		.4byte	0x6b
 5878 1417 02       		.uleb128 0x2
 5879 1418 91       		.byte	0x91
 5880 1419 77       		.sleb128 -9
ARM GAS  C:\Users\Zachary\AppData\Local\Temp\ccmvMQUz.s 			page 157


 5881 141a 1E       		.uleb128 0x1e
 5882 141b 2E3B0000 		.4byte	.LASF519
 5883 141f 01       		.byte	0x1
 5884 1420 EE05     		.2byte	0x5ee
 5885 1422 76000000 		.4byte	0x76
 5886 1426 02       		.uleb128 0x2
 5887 1427 91       		.byte	0x91
 5888 1428 6C       		.sleb128 -20
 5889 1429 1E       		.uleb128 0x1e
 5890 142a 43300000 		.4byte	.LASF520
 5891 142e 01       		.byte	0x1
 5892 142f EF05     		.2byte	0x5ef
 5893 1431 76000000 		.4byte	0x76
 5894 1435 02       		.uleb128 0x2
 5895 1436 91       		.byte	0x91
 5896 1437 6A       		.sleb128 -22
 5897 1438 1D       		.uleb128 0x1d
 5898 1439 6900     		.ascii	"i\000"
 5899 143b 01       		.byte	0x1
 5900 143c F005     		.2byte	0x5f0
 5901 143e 76000000 		.4byte	0x76
 5902 1442 02       		.uleb128 0x2
 5903 1443 91       		.byte	0x91
 5904 1444 74       		.sleb128 -12
 5905 1445 1E       		.uleb128 0x1e
 5906 1446 860A0000 		.4byte	.LASF521
 5907 144a 01       		.byte	0x1
 5908 144b F105     		.2byte	0x5f1
 5909 144d 6A140000 		.4byte	0x146a
 5910 1451 02       		.uleb128 0x2
 5911 1452 91       		.byte	0x91
 5912 1453 70       		.sleb128 -16
 5913 1454 1E       		.uleb128 0x1e
 5914 1455 0B240000 		.4byte	.LASF522
 5915 1459 01       		.byte	0x1
 5916 145a F205     		.2byte	0x5f2
 5917 145c 6B000000 		.4byte	0x6b
 5918 1460 02       		.uleb128 0x2
 5919 1461 91       		.byte	0x91
 5920 1462 6F       		.sleb128 -17
 5921 1463 00       		.byte	0
 5922 1464 0F       		.uleb128 0xf
 5923 1465 04       		.byte	0x4
 5924 1466 59090000 		.4byte	0x959
 5925 146a 0F       		.uleb128 0xf
 5926 146b 04       		.byte	0x4
 5927 146c 150A0000 		.4byte	0xa15
 5928 1470 22       		.uleb128 0x22
 5929 1471 55240000 		.4byte	.LASF529
 5930 1475 01       		.byte	0x1
 5931 1476 4706     		.2byte	0x647
 5932 1478 EB020000 		.4byte	0x2eb
 5933 147c 00000000 		.4byte	.LFB14
 5934 1480 80000000 		.4byte	.LFE14-.LFB14
 5935 1484 01       		.uleb128 0x1
 5936 1485 9C       		.byte	0x9c
 5937 1486 9A140000 		.4byte	0x149a
ARM GAS  C:\Users\Zachary\AppData\Local\Temp\ccmvMQUz.s 			page 158


 5938 148a 1E       		.uleb128 0x1e
 5939 148b 39300000 		.4byte	.LASF523
 5940 148f 01       		.byte	0x1
 5941 1490 4906     		.2byte	0x649
 5942 1492 EB020000 		.4byte	0x2eb
 5943 1496 02       		.uleb128 0x2
 5944 1497 91       		.byte	0x91
 5945 1498 6E       		.sleb128 -18
 5946 1499 00       		.byte	0
 5947 149a 1B       		.uleb128 0x1b
 5948 149b 7D170000 		.4byte	.LASF524
 5949 149f 01       		.byte	0x1
 5950 14a0 6F06     		.2byte	0x66f
 5951 14a2 00000000 		.4byte	.LFB15
 5952 14a6 F8000000 		.4byte	.LFE15-.LFB15
 5953 14aa 01       		.uleb128 0x1
 5954 14ab 9C       		.byte	0x9c
 5955 14ac C0140000 		.4byte	0x14c0
 5956 14b0 18       		.uleb128 0x18
 5957 14b1 E11C0000 		.4byte	.LASF525
 5958 14b5 01       		.byte	0x1
 5959 14b6 6F06     		.2byte	0x66f
 5960 14b8 C0140000 		.4byte	0x14c0
 5961 14bc 02       		.uleb128 0x2
 5962 14bd 91       		.byte	0x91
 5963 14be 74       		.sleb128 -12
 5964 14bf 00       		.byte	0
 5965 14c0 0F       		.uleb128 0xf
 5966 14c1 04       		.byte	0x4
 5967 14c2 A90A0000 		.4byte	0xaa9
 5968 14c6 1F       		.uleb128 0x1f
 5969 14c7 F7160000 		.4byte	.LASF526
 5970 14cb 01       		.byte	0x1
 5971 14cc 9C06     		.2byte	0x69c
 5972 14ce 00000000 		.4byte	.LFB16
 5973 14d2 7C040000 		.4byte	.LFE16-.LFB16
 5974 14d6 01       		.uleb128 0x1
 5975 14d7 9C       		.byte	0x9c
 5976 14d8 6B150000 		.4byte	0x156b
 5977 14dc 18       		.uleb128 0x18
 5978 14dd E1010000 		.4byte	.LASF503
 5979 14e1 01       		.byte	0x1
 5980 14e2 9C06     		.2byte	0x69c
 5981 14e4 6B150000 		.4byte	0x156b
 5982 14e8 03       		.uleb128 0x3
 5983 14e9 91       		.byte	0x91
 5984 14ea B47F     		.sleb128 -76
 5985 14ec 1E       		.uleb128 0x1e
 5986 14ed 2E3B0000 		.4byte	.LASF519
 5987 14f1 01       		.byte	0x1
 5988 14f2 9E06     		.2byte	0x69e
 5989 14f4 76000000 		.4byte	0x76
 5990 14f8 02       		.uleb128 0x2
 5991 14f9 91       		.byte	0x91
 5992 14fa 6E       		.sleb128 -18
 5993 14fb 1E       		.uleb128 0x1e
 5994 14fc 43300000 		.4byte	.LASF520
ARM GAS  C:\Users\Zachary\AppData\Local\Temp\ccmvMQUz.s 			page 159


 5995 1500 01       		.byte	0x1
 5996 1501 9F06     		.2byte	0x69f
 5997 1503 76000000 		.4byte	0x76
 5998 1507 02       		.uleb128 0x2
 5999 1508 91       		.byte	0x91
 6000 1509 6C       		.sleb128 -20
 6001 150a 1D       		.uleb128 0x1d
 6002 150b 6900     		.ascii	"i\000"
 6003 150d 01       		.byte	0x1
 6004 150e A006     		.2byte	0x6a0
 6005 1510 76000000 		.4byte	0x76
 6006 1514 02       		.uleb128 0x2
 6007 1515 91       		.byte	0x91
 6008 1516 76       		.sleb128 -10
 6009 1517 1D       		.uleb128 0x1d
 6010 1518 6A00     		.ascii	"j\000"
 6011 151a 01       		.byte	0x1
 6012 151b A006     		.2byte	0x6a0
 6013 151d 76000000 		.4byte	0x76
 6014 1521 02       		.uleb128 0x2
 6015 1522 91       		.byte	0x91
 6016 1523 74       		.sleb128 -12
 6017 1524 1E       		.uleb128 0x1e
 6018 1525 69320000 		.4byte	.LASF527
 6019 1529 01       		.byte	0x1
 6020 152a A106     		.2byte	0x6a1
 6021 152c 0C050000 		.4byte	0x50c
 6022 1530 02       		.uleb128 0x2
 6023 1531 91       		.byte	0x91
 6024 1532 70       		.sleb128 -16
 6025 1533 20       		.uleb128 0x20
 6026 1534 3C000000 		.4byte	.LBB4
 6027 1538 CE010000 		.4byte	.LBE4-.LBB4
 6028 153c 50150000 		.4byte	0x1550
 6029 1540 1E       		.uleb128 0x1e
 6030 1541 E11C0000 		.4byte	.LASF525
 6031 1545 01       		.byte	0x1
 6032 1546 AC06     		.2byte	0x6ac
 6033 1548 A90A0000 		.4byte	0xaa9
 6034 154c 02       		.uleb128 0x2
 6035 154d 91       		.byte	0x91
 6036 154e 54       		.sleb128 -44
 6037 154f 00       		.byte	0
 6038 1550 21       		.uleb128 0x21
 6039 1551 16020000 		.4byte	.LBB5
 6040 1555 4C020000 		.4byte	.LBE5-.LBB5
 6041 1559 1E       		.uleb128 0x1e
 6042 155a EA1B0000 		.4byte	.LASF528
 6043 155e 01       		.byte	0x1
 6044 155f 8907     		.2byte	0x789
 6045 1561 590A0000 		.4byte	0xa59
 6046 1565 03       		.uleb128 0x3
 6047 1566 91       		.byte	0x91
 6048 1567 BC7F     		.sleb128 -68
 6049 1569 00       		.byte	0
 6050 156a 00       		.byte	0
 6051 156b 0F       		.uleb128 0xf
ARM GAS  C:\Users\Zachary\AppData\Local\Temp\ccmvMQUz.s 			page 160


 6052 156c 04       		.byte	0x4
 6053 156d 64090000 		.4byte	0x964
 6054 1571 22       		.uleb128 0x22
 6055 1572 51320000 		.4byte	.LASF530
 6056 1576 01       		.byte	0x1
 6057 1577 0908     		.2byte	0x809
 6058 1579 EB020000 		.4byte	0x2eb
 6059 157d 00000000 		.4byte	.LFB17
 6060 1581 8C000000 		.4byte	.LFE17-.LFB17
 6061 1585 01       		.uleb128 0x1
 6062 1586 9C       		.byte	0x9c
 6063 1587 9B150000 		.4byte	0x159b
 6064 158b 1E       		.uleb128 0x1e
 6065 158c 39300000 		.4byte	.LASF523
 6066 1590 01       		.byte	0x1
 6067 1591 0B08     		.2byte	0x80b
 6068 1593 EB020000 		.4byte	0x2eb
 6069 1597 02       		.uleb128 0x2
 6070 1598 91       		.byte	0x91
 6071 1599 6E       		.sleb128 -18
 6072 159a 00       		.byte	0
 6073 159b 1C       		.uleb128 0x1c
 6074 159c 79100000 		.4byte	.LASF532
 6075 15a0 01       		.byte	0x1
 6076 15a1 3008     		.2byte	0x830
 6077 15a3 12080000 		.4byte	0x812
 6078 15a7 00000000 		.4byte	.LFB18
 6079 15ab 64000000 		.4byte	.LFE18-.LFB18
 6080 15af 01       		.uleb128 0x1
 6081 15b0 9C       		.byte	0x9c
 6082 15b1 C5150000 		.4byte	0x15c5
 6083 15b5 1E       		.uleb128 0x1e
 6084 15b6 0A090000 		.4byte	.LASF533
 6085 15ba 01       		.byte	0x1
 6086 15bb 3208     		.2byte	0x832
 6087 15bd 12080000 		.4byte	0x812
 6088 15c1 02       		.uleb128 0x2
 6089 15c2 91       		.byte	0x91
 6090 15c3 70       		.sleb128 -16
 6091 15c4 00       		.byte	0
 6092 15c5 1F       		.uleb128 0x1f
 6093 15c6 951D0000 		.4byte	.LASF534
 6094 15ca 01       		.byte	0x1
 6095 15cb 2109     		.2byte	0x921
 6096 15cd 00000000 		.4byte	.LFB19
 6097 15d1 90010000 		.4byte	.LFE19-.LFB19
 6098 15d5 01       		.uleb128 0x1
 6099 15d6 9C       		.byte	0x9c
 6100 15d7 34160000 		.4byte	0x1634
 6101 15db 18       		.uleb128 0x18
 6102 15dc E1010000 		.4byte	.LASF503
 6103 15e0 01       		.byte	0x1
 6104 15e1 2109     		.2byte	0x921
 6105 15e3 34160000 		.4byte	0x1634
 6106 15e7 02       		.uleb128 0x2
 6107 15e8 91       		.byte	0x91
 6108 15e9 54       		.sleb128 -44
ARM GAS  C:\Users\Zachary\AppData\Local\Temp\ccmvMQUz.s 			page 161


 6109 15ea 1E       		.uleb128 0x1e
 6110 15eb 2E3B0000 		.4byte	.LASF519
 6111 15ef 01       		.byte	0x1
 6112 15f0 2309     		.2byte	0x923
 6113 15f2 76000000 		.4byte	0x76
 6114 15f6 02       		.uleb128 0x2
 6115 15f7 91       		.byte	0x91
 6116 15f8 76       		.sleb128 -10
 6117 15f9 1E       		.uleb128 0x1e
 6118 15fa 43300000 		.4byte	.LASF520
 6119 15fe 01       		.byte	0x1
 6120 15ff 2409     		.2byte	0x924
 6121 1601 76000000 		.4byte	0x76
 6122 1605 02       		.uleb128 0x2
 6123 1606 91       		.byte	0x91
 6124 1607 6E       		.sleb128 -18
 6125 1608 1D       		.uleb128 0x1d
 6126 1609 6900     		.ascii	"i\000"
 6127 160b 01       		.byte	0x1
 6128 160c 2509     		.2byte	0x925
 6129 160e 76000000 		.4byte	0x76
 6130 1612 02       		.uleb128 0x2
 6131 1613 91       		.byte	0x91
 6132 1614 74       		.sleb128 -12
 6133 1615 1E       		.uleb128 0x1e
 6134 1616 69320000 		.4byte	.LASF527
 6135 161a 01       		.byte	0x1
 6136 161b 2609     		.2byte	0x926
 6137 161d 0C050000 		.4byte	0x50c
 6138 1621 02       		.uleb128 0x2
 6139 1622 91       		.byte	0x91
 6140 1623 70       		.sleb128 -16
 6141 1624 1E       		.uleb128 0x1e
 6142 1625 890B0000 		.4byte	.LASF535
 6143 1629 01       		.byte	0x1
 6144 162a 2909     		.2byte	0x929
 6145 162c 190B0000 		.4byte	0xb19
 6146 1630 02       		.uleb128 0x2
 6147 1631 91       		.byte	0x91
 6148 1632 58       		.sleb128 -40
 6149 1633 00       		.byte	0
 6150 1634 0F       		.uleb128 0xf
 6151 1635 04       		.byte	0x4
 6152 1636 C8090000 		.4byte	0x9c8
 6153 163a 22       		.uleb128 0x22
 6154 163b D0390000 		.4byte	.LASF536
 6155 163f 01       		.byte	0x1
 6156 1640 2B0A     		.2byte	0xa2b
 6157 1642 EB020000 		.4byte	0x2eb
 6158 1646 00000000 		.4byte	.LFB20
 6159 164a 94000000 		.4byte	.LFE20-.LFB20
 6160 164e 01       		.uleb128 0x1
 6161 164f 9C       		.byte	0x9c
 6162 1650 73160000 		.4byte	0x1673
 6163 1654 1E       		.uleb128 0x1e
 6164 1655 39300000 		.4byte	.LASF523
 6165 1659 01       		.byte	0x1
ARM GAS  C:\Users\Zachary\AppData\Local\Temp\ccmvMQUz.s 			page 162


 6166 165a 2D0A     		.2byte	0xa2d
 6167 165c EB020000 		.4byte	0x2eb
 6168 1660 02       		.uleb128 0x2
 6169 1661 91       		.byte	0x91
 6170 1662 6E       		.sleb128 -18
 6171 1663 1E       		.uleb128 0x1e
 6172 1664 0A090000 		.4byte	.LASF533
 6173 1668 01       		.byte	0x1
 6174 1669 2E0A     		.2byte	0xa2e
 6175 166b 92080000 		.4byte	0x892
 6176 166f 02       		.uleb128 0x2
 6177 1670 91       		.byte	0x91
 6178 1671 68       		.sleb128 -24
 6179 1672 00       		.byte	0
 6180 1673 1F       		.uleb128 0x1f
 6181 1674 B72C0000 		.4byte	.LASF537
 6182 1678 01       		.byte	0x1
 6183 1679 670A     		.2byte	0xa67
 6184 167b 00000000 		.4byte	.LFB21
 6185 167f C8020000 		.4byte	.LFE21-.LFB21
 6186 1683 01       		.uleb128 0x1
 6187 1684 9C       		.byte	0x9c
 6188 1685 99160000 		.4byte	0x1699
 6189 1689 18       		.uleb128 0x18
 6190 168a E1010000 		.4byte	.LASF503
 6191 168e 01       		.byte	0x1
 6192 168f 670A     		.2byte	0xa67
 6193 1691 99160000 		.4byte	0x1699
 6194 1695 02       		.uleb128 0x2
 6195 1696 91       		.byte	0x91
 6196 1697 74       		.sleb128 -12
 6197 1698 00       		.byte	0
 6198 1699 0F       		.uleb128 0xf
 6199 169a 04       		.byte	0x4
 6200 169b 9F160000 		.4byte	0x169f
 6201 169f 19       		.uleb128 0x19
 6202 16a0 87080000 		.4byte	0x887
 6203 16a4 23       		.uleb128 0x23
 6204 16a5 EC390000 		.4byte	.LASF538
 6205 16a9 01       		.byte	0x1
 6206 16aa 4E       		.byte	0x4e
 6207 16ab 45070000 		.4byte	0x745
 6208 16af 05       		.uleb128 0x5
 6209 16b0 03       		.byte	0x3
 6210 16b1 00000000 		.4byte	cyBle_charEndHandle
 6211 16b5 24       		.uleb128 0x24
 6212 16b6 D72C0000 		.4byte	.LASF539
 6213 16ba 08       		.byte	0x8
 6214 16bb 6701     		.2byte	0x167
 6215 16bd D3090000 		.4byte	0x9d3
 6216 16c1 25       		.uleb128 0x25
 6217 16c2 FE120000 		.4byte	.LASF540
 6218 16c6 01       		.byte	0x1
 6219 16c7 41       		.byte	0x41
 6220 16c8 A1000000 		.4byte	0xa1
 6221 16cc 05       		.uleb128 0x5
 6222 16cd 03       		.byte	0x3
ARM GAS  C:\Users\Zachary\AppData\Local\Temp\ccmvMQUz.s 			page 163


 6223 16ce 00000000 		.4byte	cyBle_eventHandlerFlag
 6224 16d2 24       		.uleb128 0x24
 6225 16d3 600B0000 		.4byte	.LASF541
 6226 16d7 08       		.byte	0x8
 6227 16d8 6A01     		.2byte	0x16a
 6228 16da CF030000 		.4byte	0x3cf
 6229 16de 24       		.uleb128 0x24
 6230 16df 76160000 		.4byte	.LASF542
 6231 16e3 08       		.byte	0x8
 6232 16e4 6B01     		.2byte	0x16b
 6233 16e6 EA160000 		.4byte	0x16ea
 6234 16ea 0F       		.uleb128 0xf
 6235 16eb 04       		.byte	0x4
 6236 16ec CF030000 		.4byte	0x3cf
 6237 16f0 25       		.uleb128 0x25
 6238 16f1 BD320000 		.4byte	.LASF543
 6239 16f5 01       		.byte	0x1
 6240 16f6 A7       		.byte	0xa7
 6241 16f7 F0040000 		.4byte	0x4f0
 6242 16fb 05       		.uleb128 0x5
 6243 16fc 03       		.byte	0x3
 6244 16fd 00000000 		.4byte	cyBle_authInfo
 6245 1701 24       		.uleb128 0x24
 6246 1702 53250000 		.4byte	.LASF544
 6247 1706 08       		.byte	0x8
 6248 1707 7401     		.2byte	0x174
 6249 1709 76000000 		.4byte	0x76
 6250 170d 26       		.uleb128 0x26
 6251 170e 480C0000 		.4byte	.LASF545
 6252 1712 09       		.byte	0x9
 6253 1713 BD       		.byte	0xbd
 6254 1714 450B0000 		.4byte	0xb45
 6255 1718 24       		.uleb128 0x24
 6256 1719 4E300000 		.4byte	.LASF546
 6257 171d 0A       		.byte	0xa
 6258 171e 2207     		.2byte	0x722
 6259 1720 E4100000 		.4byte	0x10e4
 6260 1724 25       		.uleb128 0x25
 6261 1725 88350000 		.4byte	.LASF547
 6262 1729 01       		.byte	0x1
 6263 172a 3F       		.byte	0x3f
 6264 172b 75070000 		.4byte	0x775
 6265 172f 05       		.uleb128 0x5
 6266 1730 03       		.byte	0x3
 6267 1731 00000000 		.4byte	cyBle_connHandle
 6268 1735 25       		.uleb128 0x25
 6269 1736 8B370000 		.4byte	.LASF548
 6270 173a 01       		.byte	0x1
 6271 173b 42       		.byte	0x42
 6272 173c A1000000 		.4byte	0xa1
 6273 1740 05       		.uleb128 0x5
 6274 1741 03       		.byte	0x3
 6275 1742 00000000 		.4byte	cyBle_busyStatus
 6276 1746 25       		.uleb128 0x25
 6277 1747 2C070000 		.4byte	.LASF549
 6278 174b 01       		.byte	0x1
 6279 174c 49       		.byte	0x49
ARM GAS  C:\Users\Zachary\AppData\Local\Temp\ccmvMQUz.s 			page 164


 6280 174d 6B000000 		.4byte	0x6b
 6281 1751 05       		.uleb128 0x5
 6282 1752 03       		.byte	0x3
 6283 1753 00000000 		.4byte	cyBle_scanningIntervalType
 6284 1757 24       		.uleb128 0x24
 6285 1758 681F0000 		.4byte	.LASF550
 6286 175c 0A       		.byte	0xa
 6287 175d 2F07     		.2byte	0x72f
 6288 175f 30110000 		.4byte	0x1130
 6289 1763 25       		.uleb128 0x25
 6290 1764 5D080000 		.4byte	.LASF551
 6291 1768 01       		.byte	0x1
 6292 1769 4D       		.byte	0x4d
 6293 176a 6B000000 		.4byte	0x6b
 6294 176e 05       		.uleb128 0x5
 6295 176f 03       		.byte	0x3
 6296 1770 00000000 		.4byte	cyBle_disCount
 6297 1774 25       		.uleb128 0x25
 6298 1775 2F140000 		.4byte	.LASF552
 6299 1779 01       		.byte	0x1
 6300 177a A2       		.byte	0xa2
 6301 177b 87110000 		.4byte	0x1187
 6302 177f 05       		.uleb128 0x5
 6303 1780 03       		.byte	0x3
 6304 1781 00000000 		.4byte	cyBle_gapc
 6305 1785 0D       		.uleb128 0xd
 6306 1786 150A0000 		.4byte	0xa15
 6307 178a 95170000 		.4byte	0x1795
 6308 178e 0E       		.uleb128 0xe
 6309 178f A6000000 		.4byte	0xa6
 6310 1793 02       		.byte	0x2
 6311 1794 00       		.byte	0
 6312 1795 25       		.uleb128 0x25
 6313 1796 3D250000 		.4byte	.LASF553
 6314 179a 01       		.byte	0x1
 6315 179b 53       		.byte	0x53
 6316 179c 85170000 		.4byte	0x1785
 6317 17a0 05       		.uleb128 0x5
 6318 17a1 03       		.byte	0x3
 6319 17a2 00000000 		.4byte	cyBle_serverInfo
 6320 17a6 00       		.byte	0
 6321              		.section	.debug_abbrev,"",%progbits
 6322              	.Ldebug_abbrev0:
 6323 0000 01       		.uleb128 0x1
 6324 0001 11       		.uleb128 0x11
 6325 0002 01       		.byte	0x1
 6326 0003 25       		.uleb128 0x25
 6327 0004 0E       		.uleb128 0xe
 6328 0005 13       		.uleb128 0x13
 6329 0006 0B       		.uleb128 0xb
 6330 0007 03       		.uleb128 0x3
 6331 0008 0E       		.uleb128 0xe
 6332 0009 1B       		.uleb128 0x1b
 6333 000a 0E       		.uleb128 0xe
 6334 000b 55       		.uleb128 0x55
 6335 000c 17       		.uleb128 0x17
 6336 000d 11       		.uleb128 0x11
ARM GAS  C:\Users\Zachary\AppData\Local\Temp\ccmvMQUz.s 			page 165


 6337 000e 01       		.uleb128 0x1
 6338 000f 10       		.uleb128 0x10
 6339 0010 17       		.uleb128 0x17
 6340 0011 00       		.byte	0
 6341 0012 00       		.byte	0
 6342 0013 02       		.uleb128 0x2
 6343 0014 24       		.uleb128 0x24
 6344 0015 00       		.byte	0
 6345 0016 0B       		.uleb128 0xb
 6346 0017 0B       		.uleb128 0xb
 6347 0018 3E       		.uleb128 0x3e
 6348 0019 0B       		.uleb128 0xb
 6349 001a 03       		.uleb128 0x3
 6350 001b 0E       		.uleb128 0xe
 6351 001c 00       		.byte	0
 6352 001d 00       		.byte	0
 6353 001e 03       		.uleb128 0x3
 6354 001f 24       		.uleb128 0x24
 6355 0020 00       		.byte	0
 6356 0021 0B       		.uleb128 0xb
 6357 0022 0B       		.uleb128 0xb
 6358 0023 3E       		.uleb128 0x3e
 6359 0024 0B       		.uleb128 0xb
 6360 0025 03       		.uleb128 0x3
 6361 0026 08       		.uleb128 0x8
 6362 0027 00       		.byte	0
 6363 0028 00       		.byte	0
 6364 0029 04       		.uleb128 0x4
 6365 002a 16       		.uleb128 0x16
 6366 002b 00       		.byte	0
 6367 002c 03       		.uleb128 0x3
 6368 002d 0E       		.uleb128 0xe
 6369 002e 3A       		.uleb128 0x3a
 6370 002f 0B       		.uleb128 0xb
 6371 0030 3B       		.uleb128 0x3b
 6372 0031 0B       		.uleb128 0xb
 6373 0032 49       		.uleb128 0x49
 6374 0033 13       		.uleb128 0x13
 6375 0034 00       		.byte	0
 6376 0035 00       		.byte	0
 6377 0036 05       		.uleb128 0x5
 6378 0037 35       		.uleb128 0x35
 6379 0038 00       		.byte	0
 6380 0039 49       		.uleb128 0x49
 6381 003a 13       		.uleb128 0x13
 6382 003b 00       		.byte	0
 6383 003c 00       		.byte	0
 6384 003d 06       		.uleb128 0x6
 6385 003e 0F       		.uleb128 0xf
 6386 003f 00       		.byte	0
 6387 0040 0B       		.uleb128 0xb
 6388 0041 0B       		.uleb128 0xb
 6389 0042 00       		.byte	0
 6390 0043 00       		.byte	0
 6391 0044 07       		.uleb128 0x7
 6392 0045 04       		.uleb128 0x4
 6393 0046 01       		.byte	0x1
ARM GAS  C:\Users\Zachary\AppData\Local\Temp\ccmvMQUz.s 			page 166


 6394 0047 0B       		.uleb128 0xb
 6395 0048 0B       		.uleb128 0xb
 6396 0049 3A       		.uleb128 0x3a
 6397 004a 0B       		.uleb128 0xb
 6398 004b 3B       		.uleb128 0x3b
 6399 004c 0B       		.uleb128 0xb
 6400 004d 01       		.uleb128 0x1
 6401 004e 13       		.uleb128 0x13
 6402 004f 00       		.byte	0
 6403 0050 00       		.byte	0
 6404 0051 08       		.uleb128 0x8
 6405 0052 28       		.uleb128 0x28
 6406 0053 00       		.byte	0
 6407 0054 03       		.uleb128 0x3
 6408 0055 0E       		.uleb128 0xe
 6409 0056 1C       		.uleb128 0x1c
 6410 0057 0D       		.uleb128 0xd
 6411 0058 00       		.byte	0
 6412 0059 00       		.byte	0
 6413 005a 09       		.uleb128 0x9
 6414 005b 04       		.uleb128 0x4
 6415 005c 01       		.byte	0x1
 6416 005d 0B       		.uleb128 0xb
 6417 005e 0B       		.uleb128 0xb
 6418 005f 3A       		.uleb128 0x3a
 6419 0060 0B       		.uleb128 0xb
 6420 0061 3B       		.uleb128 0x3b
 6421 0062 05       		.uleb128 0x5
 6422 0063 01       		.uleb128 0x1
 6423 0064 13       		.uleb128 0x13
 6424 0065 00       		.byte	0
 6425 0066 00       		.byte	0
 6426 0067 0A       		.uleb128 0xa
 6427 0068 16       		.uleb128 0x16
 6428 0069 00       		.byte	0
 6429 006a 03       		.uleb128 0x3
 6430 006b 0E       		.uleb128 0xe
 6431 006c 3A       		.uleb128 0x3a
 6432 006d 0B       		.uleb128 0xb
 6433 006e 3B       		.uleb128 0x3b
 6434 006f 05       		.uleb128 0x5
 6435 0070 49       		.uleb128 0x49
 6436 0071 13       		.uleb128 0x13
 6437 0072 00       		.byte	0
 6438 0073 00       		.byte	0
 6439 0074 0B       		.uleb128 0xb
 6440 0075 13       		.uleb128 0x13
 6441 0076 01       		.byte	0x1
 6442 0077 0B       		.uleb128 0xb
 6443 0078 0B       		.uleb128 0xb
 6444 0079 3A       		.uleb128 0x3a
 6445 007a 0B       		.uleb128 0xb
 6446 007b 3B       		.uleb128 0x3b
 6447 007c 05       		.uleb128 0x5
 6448 007d 01       		.uleb128 0x1
 6449 007e 13       		.uleb128 0x13
 6450 007f 00       		.byte	0
ARM GAS  C:\Users\Zachary\AppData\Local\Temp\ccmvMQUz.s 			page 167


 6451 0080 00       		.byte	0
 6452 0081 0C       		.uleb128 0xc
 6453 0082 0D       		.uleb128 0xd
 6454 0083 00       		.byte	0
 6455 0084 03       		.uleb128 0x3
 6456 0085 0E       		.uleb128 0xe
 6457 0086 3A       		.uleb128 0x3a
 6458 0087 0B       		.uleb128 0xb
 6459 0088 3B       		.uleb128 0x3b
 6460 0089 05       		.uleb128 0x5
 6461 008a 49       		.uleb128 0x49
 6462 008b 13       		.uleb128 0x13
 6463 008c 38       		.uleb128 0x38
 6464 008d 0B       		.uleb128 0xb
 6465 008e 00       		.byte	0
 6466 008f 00       		.byte	0
 6467 0090 0D       		.uleb128 0xd
 6468 0091 01       		.uleb128 0x1
 6469 0092 01       		.byte	0x1
 6470 0093 49       		.uleb128 0x49
 6471 0094 13       		.uleb128 0x13
 6472 0095 01       		.uleb128 0x1
 6473 0096 13       		.uleb128 0x13
 6474 0097 00       		.byte	0
 6475 0098 00       		.byte	0
 6476 0099 0E       		.uleb128 0xe
 6477 009a 21       		.uleb128 0x21
 6478 009b 00       		.byte	0
 6479 009c 49       		.uleb128 0x49
 6480 009d 13       		.uleb128 0x13
 6481 009e 2F       		.uleb128 0x2f
 6482 009f 0B       		.uleb128 0xb
 6483 00a0 00       		.byte	0
 6484 00a1 00       		.byte	0
 6485 00a2 0F       		.uleb128 0xf
 6486 00a3 0F       		.uleb128 0xf
 6487 00a4 00       		.byte	0
 6488 00a5 0B       		.uleb128 0xb
 6489 00a6 0B       		.uleb128 0xb
 6490 00a7 49       		.uleb128 0x49
 6491 00a8 13       		.uleb128 0x13
 6492 00a9 00       		.byte	0
 6493 00aa 00       		.byte	0
 6494 00ab 10       		.uleb128 0x10
 6495 00ac 17       		.uleb128 0x17
 6496 00ad 01       		.byte	0x1
 6497 00ae 0B       		.uleb128 0xb
 6498 00af 0B       		.uleb128 0xb
 6499 00b0 3A       		.uleb128 0x3a
 6500 00b1 0B       		.uleb128 0xb
 6501 00b2 3B       		.uleb128 0x3b
 6502 00b3 05       		.uleb128 0x5
 6503 00b4 01       		.uleb128 0x1
 6504 00b5 13       		.uleb128 0x13
 6505 00b6 00       		.byte	0
 6506 00b7 00       		.byte	0
 6507 00b8 11       		.uleb128 0x11
ARM GAS  C:\Users\Zachary\AppData\Local\Temp\ccmvMQUz.s 			page 168


 6508 00b9 0D       		.uleb128 0xd
 6509 00ba 00       		.byte	0
 6510 00bb 03       		.uleb128 0x3
 6511 00bc 0E       		.uleb128 0xe
 6512 00bd 3A       		.uleb128 0x3a
 6513 00be 0B       		.uleb128 0xb
 6514 00bf 3B       		.uleb128 0x3b
 6515 00c0 05       		.uleb128 0x5
 6516 00c1 49       		.uleb128 0x49
 6517 00c2 13       		.uleb128 0x13
 6518 00c3 00       		.byte	0
 6519 00c4 00       		.byte	0
 6520 00c5 12       		.uleb128 0x12
 6521 00c6 0D       		.uleb128 0xd
 6522 00c7 00       		.byte	0
 6523 00c8 03       		.uleb128 0x3
 6524 00c9 08       		.uleb128 0x8
 6525 00ca 3A       		.uleb128 0x3a
 6526 00cb 0B       		.uleb128 0xb
 6527 00cc 3B       		.uleb128 0x3b
 6528 00cd 05       		.uleb128 0x5
 6529 00ce 49       		.uleb128 0x49
 6530 00cf 13       		.uleb128 0x13
 6531 00d0 38       		.uleb128 0x38
 6532 00d1 0B       		.uleb128 0xb
 6533 00d2 00       		.byte	0
 6534 00d3 00       		.byte	0
 6535 00d4 13       		.uleb128 0x13
 6536 00d5 13       		.uleb128 0x13
 6537 00d6 01       		.byte	0x1
 6538 00d7 0B       		.uleb128 0xb
 6539 00d8 0B       		.uleb128 0xb
 6540 00d9 3A       		.uleb128 0x3a
 6541 00da 0B       		.uleb128 0xb
 6542 00db 3B       		.uleb128 0x3b
 6543 00dc 0B       		.uleb128 0xb
 6544 00dd 01       		.uleb128 0x1
 6545 00de 13       		.uleb128 0x13
 6546 00df 00       		.byte	0
 6547 00e0 00       		.byte	0
 6548 00e1 14       		.uleb128 0x14
 6549 00e2 0D       		.uleb128 0xd
 6550 00e3 00       		.byte	0
 6551 00e4 03       		.uleb128 0x3
 6552 00e5 0E       		.uleb128 0xe
 6553 00e6 3A       		.uleb128 0x3a
 6554 00e7 0B       		.uleb128 0xb
 6555 00e8 3B       		.uleb128 0x3b
 6556 00e9 0B       		.uleb128 0xb
 6557 00ea 49       		.uleb128 0x49
 6558 00eb 13       		.uleb128 0x13
 6559 00ec 38       		.uleb128 0x38
 6560 00ed 0B       		.uleb128 0xb
 6561 00ee 00       		.byte	0
 6562 00ef 00       		.byte	0
 6563 00f0 15       		.uleb128 0x15
 6564 00f1 15       		.uleb128 0x15
ARM GAS  C:\Users\Zachary\AppData\Local\Temp\ccmvMQUz.s 			page 169


 6565 00f2 01       		.byte	0x1
 6566 00f3 27       		.uleb128 0x27
 6567 00f4 19       		.uleb128 0x19
 6568 00f5 01       		.uleb128 0x1
 6569 00f6 13       		.uleb128 0x13
 6570 00f7 00       		.byte	0
 6571 00f8 00       		.byte	0
 6572 00f9 16       		.uleb128 0x16
 6573 00fa 05       		.uleb128 0x5
 6574 00fb 00       		.byte	0
 6575 00fc 49       		.uleb128 0x49
 6576 00fd 13       		.uleb128 0x13
 6577 00fe 00       		.byte	0
 6578 00ff 00       		.byte	0
 6579 0100 17       		.uleb128 0x17
 6580 0101 2E       		.uleb128 0x2e
 6581 0102 01       		.byte	0x1
 6582 0103 03       		.uleb128 0x3
 6583 0104 0E       		.uleb128 0xe
 6584 0105 3A       		.uleb128 0x3a
 6585 0106 0B       		.uleb128 0xb
 6586 0107 3B       		.uleb128 0x3b
 6587 0108 05       		.uleb128 0x5
 6588 0109 27       		.uleb128 0x27
 6589 010a 19       		.uleb128 0x19
 6590 010b 11       		.uleb128 0x11
 6591 010c 01       		.uleb128 0x1
 6592 010d 12       		.uleb128 0x12
 6593 010e 06       		.uleb128 0x6
 6594 010f 40       		.uleb128 0x40
 6595 0110 18       		.uleb128 0x18
 6596 0111 9742     		.uleb128 0x2117
 6597 0113 19       		.uleb128 0x19
 6598 0114 01       		.uleb128 0x1
 6599 0115 13       		.uleb128 0x13
 6600 0116 00       		.byte	0
 6601 0117 00       		.byte	0
 6602 0118 18       		.uleb128 0x18
 6603 0119 05       		.uleb128 0x5
 6604 011a 00       		.byte	0
 6605 011b 03       		.uleb128 0x3
 6606 011c 0E       		.uleb128 0xe
 6607 011d 3A       		.uleb128 0x3a
 6608 011e 0B       		.uleb128 0xb
 6609 011f 3B       		.uleb128 0x3b
 6610 0120 05       		.uleb128 0x5
 6611 0121 49       		.uleb128 0x49
 6612 0122 13       		.uleb128 0x13
 6613 0123 02       		.uleb128 0x2
 6614 0124 18       		.uleb128 0x18
 6615 0125 00       		.byte	0
 6616 0126 00       		.byte	0
 6617 0127 19       		.uleb128 0x19
 6618 0128 26       		.uleb128 0x26
 6619 0129 00       		.byte	0
 6620 012a 49       		.uleb128 0x49
 6621 012b 13       		.uleb128 0x13
ARM GAS  C:\Users\Zachary\AppData\Local\Temp\ccmvMQUz.s 			page 170


 6622 012c 00       		.byte	0
 6623 012d 00       		.byte	0
 6624 012e 1A       		.uleb128 0x1a
 6625 012f 2E       		.uleb128 0x2e
 6626 0130 00       		.byte	0
 6627 0131 03       		.uleb128 0x3
 6628 0132 0E       		.uleb128 0xe
 6629 0133 3A       		.uleb128 0x3a
 6630 0134 0B       		.uleb128 0xb
 6631 0135 3B       		.uleb128 0x3b
 6632 0136 05       		.uleb128 0x5
 6633 0137 27       		.uleb128 0x27
 6634 0138 19       		.uleb128 0x19
 6635 0139 11       		.uleb128 0x11
 6636 013a 01       		.uleb128 0x1
 6637 013b 12       		.uleb128 0x12
 6638 013c 06       		.uleb128 0x6
 6639 013d 40       		.uleb128 0x40
 6640 013e 18       		.uleb128 0x18
 6641 013f 9742     		.uleb128 0x2117
 6642 0141 19       		.uleb128 0x19
 6643 0142 00       		.byte	0
 6644 0143 00       		.byte	0
 6645 0144 1B       		.uleb128 0x1b
 6646 0145 2E       		.uleb128 0x2e
 6647 0146 01       		.byte	0x1
 6648 0147 03       		.uleb128 0x3
 6649 0148 0E       		.uleb128 0xe
 6650 0149 3A       		.uleb128 0x3a
 6651 014a 0B       		.uleb128 0xb
 6652 014b 3B       		.uleb128 0x3b
 6653 014c 05       		.uleb128 0x5
 6654 014d 27       		.uleb128 0x27
 6655 014e 19       		.uleb128 0x19
 6656 014f 11       		.uleb128 0x11
 6657 0150 01       		.uleb128 0x1
 6658 0151 12       		.uleb128 0x12
 6659 0152 06       		.uleb128 0x6
 6660 0153 40       		.uleb128 0x40
 6661 0154 18       		.uleb128 0x18
 6662 0155 9642     		.uleb128 0x2116
 6663 0157 19       		.uleb128 0x19
 6664 0158 01       		.uleb128 0x1
 6665 0159 13       		.uleb128 0x13
 6666 015a 00       		.byte	0
 6667 015b 00       		.byte	0
 6668 015c 1C       		.uleb128 0x1c
 6669 015d 2E       		.uleb128 0x2e
 6670 015e 01       		.byte	0x1
 6671 015f 03       		.uleb128 0x3
 6672 0160 0E       		.uleb128 0xe
 6673 0161 3A       		.uleb128 0x3a
 6674 0162 0B       		.uleb128 0xb
 6675 0163 3B       		.uleb128 0x3b
 6676 0164 05       		.uleb128 0x5
 6677 0165 27       		.uleb128 0x27
 6678 0166 19       		.uleb128 0x19
ARM GAS  C:\Users\Zachary\AppData\Local\Temp\ccmvMQUz.s 			page 171


 6679 0167 49       		.uleb128 0x49
 6680 0168 13       		.uleb128 0x13
 6681 0169 11       		.uleb128 0x11
 6682 016a 01       		.uleb128 0x1
 6683 016b 12       		.uleb128 0x12
 6684 016c 06       		.uleb128 0x6
 6685 016d 40       		.uleb128 0x40
 6686 016e 18       		.uleb128 0x18
 6687 016f 9742     		.uleb128 0x2117
 6688 0171 19       		.uleb128 0x19
 6689 0172 01       		.uleb128 0x1
 6690 0173 13       		.uleb128 0x13
 6691 0174 00       		.byte	0
 6692 0175 00       		.byte	0
 6693 0176 1D       		.uleb128 0x1d
 6694 0177 34       		.uleb128 0x34
 6695 0178 00       		.byte	0
 6696 0179 03       		.uleb128 0x3
 6697 017a 08       		.uleb128 0x8
 6698 017b 3A       		.uleb128 0x3a
 6699 017c 0B       		.uleb128 0xb
 6700 017d 3B       		.uleb128 0x3b
 6701 017e 05       		.uleb128 0x5
 6702 017f 49       		.uleb128 0x49
 6703 0180 13       		.uleb128 0x13
 6704 0181 02       		.uleb128 0x2
 6705 0182 18       		.uleb128 0x18
 6706 0183 00       		.byte	0
 6707 0184 00       		.byte	0
 6708 0185 1E       		.uleb128 0x1e
 6709 0186 34       		.uleb128 0x34
 6710 0187 00       		.byte	0
 6711 0188 03       		.uleb128 0x3
 6712 0189 0E       		.uleb128 0xe
 6713 018a 3A       		.uleb128 0x3a
 6714 018b 0B       		.uleb128 0xb
 6715 018c 3B       		.uleb128 0x3b
 6716 018d 05       		.uleb128 0x5
 6717 018e 49       		.uleb128 0x49
 6718 018f 13       		.uleb128 0x13
 6719 0190 02       		.uleb128 0x2
 6720 0191 18       		.uleb128 0x18
 6721 0192 00       		.byte	0
 6722 0193 00       		.byte	0
 6723 0194 1F       		.uleb128 0x1f
 6724 0195 2E       		.uleb128 0x2e
 6725 0196 01       		.byte	0x1
 6726 0197 3F       		.uleb128 0x3f
 6727 0198 19       		.uleb128 0x19
 6728 0199 03       		.uleb128 0x3
 6729 019a 0E       		.uleb128 0xe
 6730 019b 3A       		.uleb128 0x3a
 6731 019c 0B       		.uleb128 0xb
 6732 019d 3B       		.uleb128 0x3b
 6733 019e 05       		.uleb128 0x5
 6734 019f 27       		.uleb128 0x27
 6735 01a0 19       		.uleb128 0x19
ARM GAS  C:\Users\Zachary\AppData\Local\Temp\ccmvMQUz.s 			page 172


 6736 01a1 11       		.uleb128 0x11
 6737 01a2 01       		.uleb128 0x1
 6738 01a3 12       		.uleb128 0x12
 6739 01a4 06       		.uleb128 0x6
 6740 01a5 40       		.uleb128 0x40
 6741 01a6 18       		.uleb128 0x18
 6742 01a7 9642     		.uleb128 0x2116
 6743 01a9 19       		.uleb128 0x19
 6744 01aa 01       		.uleb128 0x1
 6745 01ab 13       		.uleb128 0x13
 6746 01ac 00       		.byte	0
 6747 01ad 00       		.byte	0
 6748 01ae 20       		.uleb128 0x20
 6749 01af 0B       		.uleb128 0xb
 6750 01b0 01       		.byte	0x1
 6751 01b1 11       		.uleb128 0x11
 6752 01b2 01       		.uleb128 0x1
 6753 01b3 12       		.uleb128 0x12
 6754 01b4 06       		.uleb128 0x6
 6755 01b5 01       		.uleb128 0x1
 6756 01b6 13       		.uleb128 0x13
 6757 01b7 00       		.byte	0
 6758 01b8 00       		.byte	0
 6759 01b9 21       		.uleb128 0x21
 6760 01ba 0B       		.uleb128 0xb
 6761 01bb 01       		.byte	0x1
 6762 01bc 11       		.uleb128 0x11
 6763 01bd 01       		.uleb128 0x1
 6764 01be 12       		.uleb128 0x12
 6765 01bf 06       		.uleb128 0x6
 6766 01c0 00       		.byte	0
 6767 01c1 00       		.byte	0
 6768 01c2 22       		.uleb128 0x22
 6769 01c3 2E       		.uleb128 0x2e
 6770 01c4 01       		.byte	0x1
 6771 01c5 3F       		.uleb128 0x3f
 6772 01c6 19       		.uleb128 0x19
 6773 01c7 03       		.uleb128 0x3
 6774 01c8 0E       		.uleb128 0xe
 6775 01c9 3A       		.uleb128 0x3a
 6776 01ca 0B       		.uleb128 0xb
 6777 01cb 3B       		.uleb128 0x3b
 6778 01cc 05       		.uleb128 0x5
 6779 01cd 27       		.uleb128 0x27
 6780 01ce 19       		.uleb128 0x19
 6781 01cf 49       		.uleb128 0x49
 6782 01d0 13       		.uleb128 0x13
 6783 01d1 11       		.uleb128 0x11
 6784 01d2 01       		.uleb128 0x1
 6785 01d3 12       		.uleb128 0x12
 6786 01d4 06       		.uleb128 0x6
 6787 01d5 40       		.uleb128 0x40
 6788 01d6 18       		.uleb128 0x18
 6789 01d7 9642     		.uleb128 0x2116
 6790 01d9 19       		.uleb128 0x19
 6791 01da 01       		.uleb128 0x1
 6792 01db 13       		.uleb128 0x13
ARM GAS  C:\Users\Zachary\AppData\Local\Temp\ccmvMQUz.s 			page 173


 6793 01dc 00       		.byte	0
 6794 01dd 00       		.byte	0
 6795 01de 23       		.uleb128 0x23
 6796 01df 34       		.uleb128 0x34
 6797 01e0 00       		.byte	0
 6798 01e1 03       		.uleb128 0x3
 6799 01e2 0E       		.uleb128 0xe
 6800 01e3 3A       		.uleb128 0x3a
 6801 01e4 0B       		.uleb128 0xb
 6802 01e5 3B       		.uleb128 0x3b
 6803 01e6 0B       		.uleb128 0xb
 6804 01e7 49       		.uleb128 0x49
 6805 01e8 13       		.uleb128 0x13
 6806 01e9 02       		.uleb128 0x2
 6807 01ea 18       		.uleb128 0x18
 6808 01eb 00       		.byte	0
 6809 01ec 00       		.byte	0
 6810 01ed 24       		.uleb128 0x24
 6811 01ee 34       		.uleb128 0x34
 6812 01ef 00       		.byte	0
 6813 01f0 03       		.uleb128 0x3
 6814 01f1 0E       		.uleb128 0xe
 6815 01f2 3A       		.uleb128 0x3a
 6816 01f3 0B       		.uleb128 0xb
 6817 01f4 3B       		.uleb128 0x3b
 6818 01f5 05       		.uleb128 0x5
 6819 01f6 49       		.uleb128 0x49
 6820 01f7 13       		.uleb128 0x13
 6821 01f8 3F       		.uleb128 0x3f
 6822 01f9 19       		.uleb128 0x19
 6823 01fa 3C       		.uleb128 0x3c
 6824 01fb 19       		.uleb128 0x19
 6825 01fc 00       		.byte	0
 6826 01fd 00       		.byte	0
 6827 01fe 25       		.uleb128 0x25
 6828 01ff 34       		.uleb128 0x34
 6829 0200 00       		.byte	0
 6830 0201 03       		.uleb128 0x3
 6831 0202 0E       		.uleb128 0xe
 6832 0203 3A       		.uleb128 0x3a
 6833 0204 0B       		.uleb128 0xb
 6834 0205 3B       		.uleb128 0x3b
 6835 0206 0B       		.uleb128 0xb
 6836 0207 49       		.uleb128 0x49
 6837 0208 13       		.uleb128 0x13
 6838 0209 3F       		.uleb128 0x3f
 6839 020a 19       		.uleb128 0x19
 6840 020b 02       		.uleb128 0x2
 6841 020c 18       		.uleb128 0x18
 6842 020d 00       		.byte	0
 6843 020e 00       		.byte	0
 6844 020f 26       		.uleb128 0x26
 6845 0210 34       		.uleb128 0x34
 6846 0211 00       		.byte	0
 6847 0212 03       		.uleb128 0x3
 6848 0213 0E       		.uleb128 0xe
 6849 0214 3A       		.uleb128 0x3a
ARM GAS  C:\Users\Zachary\AppData\Local\Temp\ccmvMQUz.s 			page 174


 6850 0215 0B       		.uleb128 0xb
 6851 0216 3B       		.uleb128 0x3b
 6852 0217 0B       		.uleb128 0xb
 6853 0218 49       		.uleb128 0x49
 6854 0219 13       		.uleb128 0x13
 6855 021a 3F       		.uleb128 0x3f
 6856 021b 19       		.uleb128 0x19
 6857 021c 3C       		.uleb128 0x3c
 6858 021d 19       		.uleb128 0x19
 6859 021e 00       		.byte	0
 6860 021f 00       		.byte	0
 6861 0220 00       		.byte	0
 6862              		.section	.debug_aranges,"",%progbits
 6863 0000 B4000000 		.4byte	0xb4
 6864 0004 0200     		.2byte	0x2
 6865 0006 00000000 		.4byte	.Ldebug_info0
 6866 000a 04       		.byte	0x4
 6867 000b 00       		.byte	0
 6868 000c 0000     		.2byte	0
 6869 000e 0000     		.2byte	0
 6870 0010 00000000 		.4byte	.LFB2
 6871 0014 0E000000 		.4byte	.LFE2-.LFB2
 6872 0018 00000000 		.4byte	.LFB3
 6873 001c 0E000000 		.4byte	.LFE3-.LFB3
 6874 0020 00000000 		.4byte	.LFB4
 6875 0024 0E000000 		.4byte	.LFE4-.LFB4
 6876 0028 00000000 		.4byte	.LFB5
 6877 002c 0E000000 		.4byte	.LFE5-.LFB5
 6878 0030 00000000 		.4byte	.LFB6
 6879 0034 34000000 		.4byte	.LFE6-.LFB6
 6880 0038 00000000 		.4byte	.LFB7
 6881 003c B8000000 		.4byte	.LFE7-.LFB7
 6882 0040 00000000 		.4byte	.LFB8
 6883 0044 08000000 		.4byte	.LFE8-.LFB8
 6884 0048 00000000 		.4byte	.LFB9
 6885 004c 60000000 		.4byte	.LFE9-.LFB9
 6886 0050 00000000 		.4byte	.LFB10
 6887 0054 12000000 		.4byte	.LFE10-.LFB10
 6888 0058 00000000 		.4byte	.LFB11
 6889 005c 0E000000 		.4byte	.LFE11-.LFB11
 6890 0060 00000000 		.4byte	.LFB12
 6891 0064 E0020000 		.4byte	.LFE12-.LFB12
 6892 0068 00000000 		.4byte	.LFB13
 6893 006c FC010000 		.4byte	.LFE13-.LFB13
 6894 0070 00000000 		.4byte	.LFB14
 6895 0074 80000000 		.4byte	.LFE14-.LFB14
 6896 0078 00000000 		.4byte	.LFB15
 6897 007c F8000000 		.4byte	.LFE15-.LFB15
 6898 0080 00000000 		.4byte	.LFB16
 6899 0084 7C040000 		.4byte	.LFE16-.LFB16
 6900 0088 00000000 		.4byte	.LFB17
 6901 008c 8C000000 		.4byte	.LFE17-.LFB17
 6902 0090 00000000 		.4byte	.LFB18
 6903 0094 64000000 		.4byte	.LFE18-.LFB18
 6904 0098 00000000 		.4byte	.LFB19
 6905 009c 90010000 		.4byte	.LFE19-.LFB19
 6906 00a0 00000000 		.4byte	.LFB20
ARM GAS  C:\Users\Zachary\AppData\Local\Temp\ccmvMQUz.s 			page 175


 6907 00a4 94000000 		.4byte	.LFE20-.LFB20
 6908 00a8 00000000 		.4byte	.LFB21
 6909 00ac C8020000 		.4byte	.LFE21-.LFB21
 6910 00b0 00000000 		.4byte	0
 6911 00b4 00000000 		.4byte	0
 6912              		.section	.debug_ranges,"",%progbits
 6913              	.Ldebug_ranges0:
 6914 0000 00000000 		.4byte	.LFB2
 6915 0004 0E000000 		.4byte	.LFE2
 6916 0008 00000000 		.4byte	.LFB3
 6917 000c 0E000000 		.4byte	.LFE3
 6918 0010 00000000 		.4byte	.LFB4
 6919 0014 0E000000 		.4byte	.LFE4
 6920 0018 00000000 		.4byte	.LFB5
 6921 001c 0E000000 		.4byte	.LFE5
 6922 0020 00000000 		.4byte	.LFB6
 6923 0024 34000000 		.4byte	.LFE6
 6924 0028 00000000 		.4byte	.LFB7
 6925 002c B8000000 		.4byte	.LFE7
 6926 0030 00000000 		.4byte	.LFB8
 6927 0034 08000000 		.4byte	.LFE8
 6928 0038 00000000 		.4byte	.LFB9
 6929 003c 60000000 		.4byte	.LFE9
 6930 0040 00000000 		.4byte	.LFB10
 6931 0044 12000000 		.4byte	.LFE10
 6932 0048 00000000 		.4byte	.LFB11
 6933 004c 0E000000 		.4byte	.LFE11
 6934 0050 00000000 		.4byte	.LFB12
 6935 0054 E0020000 		.4byte	.LFE12
 6936 0058 00000000 		.4byte	.LFB13
 6937 005c FC010000 		.4byte	.LFE13
 6938 0060 00000000 		.4byte	.LFB14
 6939 0064 80000000 		.4byte	.LFE14
 6940 0068 00000000 		.4byte	.LFB15
 6941 006c F8000000 		.4byte	.LFE15
 6942 0070 00000000 		.4byte	.LFB16
 6943 0074 7C040000 		.4byte	.LFE16
 6944 0078 00000000 		.4byte	.LFB17
 6945 007c 8C000000 		.4byte	.LFE17
 6946 0080 00000000 		.4byte	.LFB18
 6947 0084 64000000 		.4byte	.LFE18
 6948 0088 00000000 		.4byte	.LFB19
 6949 008c 90010000 		.4byte	.LFE19
 6950 0090 00000000 		.4byte	.LFB20
 6951 0094 94000000 		.4byte	.LFE20
 6952 0098 00000000 		.4byte	.LFB21
 6953 009c C8020000 		.4byte	.LFE21
 6954 00a0 00000000 		.4byte	0
 6955 00a4 00000000 		.4byte	0
 6956              		.section	.debug_line,"",%progbits
 6957              	.Ldebug_line0:
 6958 0000 5D050000 		.section	.debug_str,"MS",%progbits,1
 6958      0200E000 
 6958      00000201 
 6958      FB0E0D00 
 6958      01010101 
 6959              	.LASF467:
ARM GAS  C:\Users\Zachary\AppData\Local\Temp\ccmvMQUz.s 			page 176


 6960 0000 4359424C 		.ascii	"CYBLE_EVT_UDSC_READ_CHAR_RESPONSE\000"
 6960      455F4556 
 6960      545F5544 
 6960      53435F52 
 6960      4541445F 
 6961              	.LASF397:
 6962 0022 4359424C 		.ascii	"CYBLE_EVT_HTSS_NOTIFICATION_DISABLED\000"
 6962      455F4556 
 6962      545F4854 
 6962      53535F4E 
 6962      4F544946 
 6963              	.LASF428:
 6964 0047 4359424C 		.ascii	"CYBLE_EVT_PASSC_NOTIFICATION\000"
 6964      455F4556 
 6964      545F5041 
 6964      5353435F 
 6964      4E4F5449 
 6965              	.LASF15:
 6966 0064 73697A65 		.ascii	"sizetype\000"
 6966      74797065 
 6966      00
 6967              	.LASF465:
 6968 006d 4359424C 		.ascii	"CYBLE_EVT_UDSC_INDICATION\000"
 6968      455F4556 
 6968      545F5544 
 6968      53435F49 
 6968      4E444943 
 6969              	.LASF324:
 6970 0087 4359424C 		.ascii	"CYBLE_EVT_CGMSC_INDICATION\000"
 6970      455F4556 
 6970      545F4347 
 6970      4D53435F 
 6970      494E4449 
 6971              	.LASF342:
 6972 00a2 4359424C 		.ascii	"CYBLE_EVT_CPSC_READ_DESCR_RESPONSE\000"
 6972      455F4556 
 6972      545F4350 
 6972      53435F52 
 6972      4541445F 
 6973              	.LASF152:
 6974 00c5 656B6579 		.ascii	"ekeySize\000"
 6974      53697A65 
 6974      00
 6975              	.LASF445:
 6976 00ce 4359424C 		.ascii	"CYBLE_EVT_RTUSS_WRITE_CHAR_CMD\000"
 6976      455F4556 
 6976      545F5254 
 6976      5553535F 
 6976      57524954 
 6977              	.LASF186:
 6978 00ed 4359424C 		.ascii	"CYBLE_GATT_HANDLE_VALUE_CNF\000"
 6978      455F4741 
 6978      54545F48 
 6978      414E444C 
 6978      455F5641 
 6979              	.LASF291:
 6980 0109 4359424C 		.ascii	"CYBLE_EVT_GATTC_INCL_DISCOVERY_COMPLETE\000"
ARM GAS  C:\Users\Zachary\AppData\Local\Temp\ccmvMQUz.s 			page 177


 6980      455F4556 
 6980      545F4741 
 6980      5454435F 
 6980      494E434C 
 6981              	.LASF340:
 6982 0131 4359424C 		.ascii	"CYBLE_EVT_CPSC_READ_CHAR_RESPONSE\000"
 6982      455F4556 
 6982      545F4350 
 6982      53435F52 
 6982      4541445F 
 6983              	.LASF353:
 6984 0153 4359424C 		.ascii	"CYBLE_EVT_CSCSC_READ_CHAR_RESPONSE\000"
 6984      455F4556 
 6984      545F4353 
 6984      4353435F 
 6984      52454144 
 6985              	.LASF329:
 6986 0176 4359424C 		.ascii	"CYBLE_EVT_CGMSC_WRITE_DESCR_RESPONSE\000"
 6986      455F4556 
 6986      545F4347 
 6986      4D53435F 
 6986      57524954 
 6987              	.LASF249:
 6988 019b 4359424C 		.ascii	"CYBLE_GATTC_GRP_ATTR_DATA_LIST_T\000"
 6988      455F4741 
 6988      5454435F 
 6988      4752505F 
 6988      41545452 
 6989              	.LASF368:
 6990 01bc 4359424C 		.ascii	"CYBLE_EVT_GLSS_NOTIFICATION_DISABLED\000"
 6990      455F4556 
 6990      545F474C 
 6990      53535F4E 
 6990      4F544946 
 6991              	.LASF503:
 6992 01e1 6576656E 		.ascii	"eventParam\000"
 6992      74506172 
 6992      616D00
 6993              	.LASF315:
 6994 01ec 4359424C 		.ascii	"CYBLE_EVT_BLSC_READ_CHAR_RESPONSE\000"
 6994      455F4556 
 6994      545F424C 
 6994      53435F52 
 6994      4541445F 
 6995              	.LASF29:
 6996 020e 4359424C 		.ascii	"CYBLE_EVT_GAP_DEVICE_CONNECTED\000"
 6996      455F4556 
 6996      545F4741 
 6996      505F4445 
 6996      56494345 
 6997              	.LASF134:
 6998 022d 4359424C 		.ascii	"CYBLE_GAP_IOCAP_NOINPUT_NOOUTPUT\000"
 6998      455F4741 
 6998      505F494F 
 6998      4341505F 
 6998      4E4F494E 
 6999              	.LASF36:
ARM GAS  C:\Users\Zachary\AppData\Local\Temp\ccmvMQUz.s 			page 178


 7000 024e 4359424C 		.ascii	"CYBLE_EVT_GATT_CONNECT_IND\000"
 7000      455F4556 
 7000      545F4741 
 7000      54545F43 
 7000      4F4E4E45 
 7001              	.LASF373:
 7002 0269 4359424C 		.ascii	"CYBLE_EVT_GLSC_WRITE_CHAR_RESPONSE\000"
 7002      455F4556 
 7002      545F474C 
 7002      53435F57 
 7002      52495445 
 7003              	.LASF273:
 7004 028c 73657276 		.ascii	"serviceChanged\000"
 7004      69636543 
 7004      68616E67 
 7004      656400
 7005              	.LASF179:
 7006 029b 4359424C 		.ascii	"CYBLE_GATT_WRITE_CMD\000"
 7006      455F4741 
 7006      54545F57 
 7006      52495445 
 7006      5F434D44 
 7007              	.LASF11:
 7008 02b0 75696E74 		.ascii	"uint32\000"
 7008      333200
 7009              	.LASF286:
 7010 02b7 4359424C 		.ascii	"CYBLE_EVT_GATTC_DESCR_DISCOVERY_FAILED\000"
 7010      455F4556 
 7010      545F4741 
 7010      5454435F 
 7010      44455343 
 7011              	.LASF444:
 7012 02de 4359424C 		.ascii	"CYBLE_EVT_RSCSC_WRITE_DESCR_RESPONSE\000"
 7012      455F4556 
 7012      545F5253 
 7012      4353435F 
 7012      57524954 
 7013              	.LASF116:
 7014 0303 626C6550 		.ascii	"blePwrLevelInDbm\000"
 7014      77724C65 
 7014      76656C49 
 7014      6E44626D 
 7014      00
 7015              	.LASF413:
 7016 0314 4359424C 		.ascii	"CYBLE_EVT_LNSS_INDICATION_DISABLED\000"
 7016      455F4556 
 7016      545F4C4E 
 7016      53535F49 
 7016      4E444943 
 7017              	.LASF360:
 7018 0337 4359424C 		.ascii	"CYBLE_EVT_CTSC_READ_CHAR_RESPONSE\000"
 7018      455F4556 
 7018      545F4354 
 7018      53435F52 
 7018      4541445F 
 7019              	.LASF290:
 7020 0359 4359424C 		.ascii	"CYBLE_EVT_GATTC_SRVC_DISCOVERY_COMPLETE\000"
ARM GAS  C:\Users\Zachary\AppData\Local\Temp\ccmvMQUz.s 			page 179


 7020      455F4556 
 7020      545F4741 
 7020      5454435F 
 7020      53525643 
 7021              	.LASF438:
 7022 0381 4359424C 		.ascii	"CYBLE_EVT_RSCSS_CHAR_WRITE\000"
 7022      455F4556 
 7022      545F5253 
 7022      4353535F 
 7022      43484152 
 7023              	.LASF470:
 7024 039c 4359424C 		.ascii	"CYBLE_EVT_UDSC_WRITE_DESCR_RESPONSE\000"
 7024      455F4556 
 7024      545F5544 
 7024      53435F57 
 7024      52495445 
 7025              	.LASF387:
 7026 03c0 4359424C 		.ascii	"CYBLE_EVT_HIDSC_WRITE_DESCR_RESPONSE\000"
 7026      455F4556 
 7026      545F4849 
 7026      4453435F 
 7026      57524954 
 7027              	.LASF453:
 7028 03e5 4359424C 		.ascii	"CYBLE_EVT_TPSS_NOTIFICATION_ENABLED\000"
 7028      455F4556 
 7028      545F5450 
 7028      53535F4E 
 7028      4F544946 
 7029              	.LASF300:
 7030 0409 4359424C 		.ascii	"CYBLE_EVT_ANSC_READ_DESCR_RESPONSE\000"
 7030      455F4556 
 7030      545F414E 
 7030      53435F52 
 7030      4541445F 
 7031              	.LASF192:
 7032 042c 4359424C 		.ascii	"CYBLE_GATT_ERR_READ_NOT_PERMITTED\000"
 7032      455F4741 
 7032      54545F45 
 7032      52525F52 
 7032      4541445F 
 7033              	.LASF207:
 7034 044e 4359424C 		.ascii	"CYBLE_GATT_ERR_INSUFFICIENT_RESOURCE\000"
 7034      455F4741 
 7034      54545F45 
 7034      52525F49 
 7034      4E535546 
 7035              	.LASF180:
 7036 0473 4359424C 		.ascii	"CYBLE_GATT_PREPARE_WRITE_REQ\000"
 7036      455F4741 
 7036      54545F50 
 7036      52455041 
 7036      52455F57 
 7037              	.LASF206:
 7038 0490 4359424C 		.ascii	"CYBLE_GATT_ERR_UNSUPPORTED_GROUP_TYPE\000"
 7038      455F4741 
 7038      54545F45 
 7038      52525F55 
ARM GAS  C:\Users\Zachary\AppData\Local\Temp\ccmvMQUz.s 			page 180


 7038      4E535550 
 7039              	.LASF86:
 7040 04b6 4359424C 		.ascii	"CYBLE_ERROR_L2CAP_CONNECTION_ENTITY_NOT_FOUND\000"
 7040      455F4552 
 7040      524F525F 
 7040      4C324341 
 7040      505F434F 
 7041              	.LASF482:
 7042 04e4 4359424C 		.ascii	"CYBLE_CLIENT_STATE_CHAR_DISCOVERING\000"
 7042      455F434C 
 7042      49454E54 
 7042      5F535441 
 7042      54455F43 
 7043              	.LASF92:
 7044 0508 4359424C 		.ascii	"CYBLE_ERROR_MIC_AUTH_FAILED\000"
 7044      455F4552 
 7044      524F525F 
 7044      4D49435F 
 7044      41555448 
 7045              	.LASF475:
 7046 0524 4359424C 		.ascii	"CYBLE_STATE_SCANNING\000"
 7046      455F5354 
 7046      4154455F 
 7046      5343414E 
 7046      4E494E47 
 7047              	.LASF285:
 7048 0539 4359424C 		.ascii	"CYBLE_EVT_GATTC_CHAR_DISCOVERY_FAILED\000"
 7048      455F4556 
 7048      545F4741 
 7048      5454435F 
 7048      43484152 
 7049              	.LASF56:
 7050 055f 4359424C 		.ascii	"CYBLE_EVT_GATTS_DATA_SIGNED_CMD_REQ\000"
 7050      455F4556 
 7050      545F4741 
 7050      5454535F 
 7050      44415441 
 7051              	.LASF65:
 7052 0583 4359424C 		.ascii	"CYBLE_EVT_L2CAP_CBFC_RX_CREDIT_IND\000"
 7052      455F4556 
 7052      545F4C32 
 7052      4341505F 
 7052      43424643 
 7053              	.LASF230:
 7054 05a6 4359424C 		.ascii	"CYBLE_GATT_VALUE_T\000"
 7054      455F4741 
 7054      54545F56 
 7054      414C5545 
 7054      5F5400
 7055              	.LASF347:
 7056 05b9 4359424C 		.ascii	"CYBLE_EVT_CSCSS_INDICATION_ENABLED\000"
 7056      455F4556 
 7056      545F4353 
 7056      4353535F 
 7056      494E4449 
 7057              	.LASF174:
 7058 05dc 4359424C 		.ascii	"CYBLE_GATT_READ_MULTIPLE_RSP\000"
ARM GAS  C:\Users\Zachary\AppData\Local\Temp\ccmvMQUz.s 			page 181


 7058      455F4741 
 7058      54545F52 
 7058      4541445F 
 7058      4D554C54 
 7059              	.LASF418:
 7060 05f9 4359424C 		.ascii	"CYBLE_EVT_LNSC_INDICATION\000"
 7060      455F4556 
 7060      545F4C4E 
 7060      53435F49 
 7060      4E444943 
 7061              	.LASF120:
 7062 0613 74797065 		.ascii	"type\000"
 7062      00
 7063              	.LASF126:
 7064 0618 4359424C 		.ascii	"CYBLE_TO_REASON_CODE_T\000"
 7064      455F544F 
 7064      5F524541 
 7064      534F4E5F 
 7064      434F4445 
 7065              	.LASF429:
 7066 062f 4359424C 		.ascii	"CYBLE_EVT_PASSC_READ_CHAR_RESPONSE\000"
 7066      455F4556 
 7066      545F5041 
 7066      5353435F 
 7066      52454144 
 7067              	.LASF147:
 7068 0652 4359424C 		.ascii	"CYBLE_GAP_AUTH_ERROR_AUTHENTICATION_TIMEOUT\000"
 7068      455F4741 
 7068      505F4155 
 7068      54485F45 
 7068      52524F52 
 7069              	.LASF308:
 7070 067e 4359424C 		.ascii	"CYBLE_EVT_BLSS_INDICATION_ENABLED\000"
 7070      455F4556 
 7070      545F424C 
 7070      53535F49 
 7070      4E444943 
 7071              	.LASF144:
 7072 06a0 4359424C 		.ascii	"CYBLE_GAP_AUTH_ERROR_UNSPECIFIED_REASON\000"
 7072      455F4741 
 7072      505F4155 
 7072      54485F45 
 7072      52524F52 
 7073              	.LASF314:
 7074 06c8 4359424C 		.ascii	"CYBLE_EVT_BLSC_NOTIFICATION\000"
 7074      455F4556 
 7074      545F424C 
 7074      53435F4E 
 7074      4F544946 
 7075              	.LASF168:
 7076 06e4 4359424C 		.ascii	"CYBLE_GATT_READ_BY_TYPE_RSP\000"
 7076      455F4741 
 7076      54545F52 
 7076      4541445F 
 7076      42595F54 
 7077              	.LASF259:
 7078 0700 4359424C 		.ascii	"CYBLE_CALLBACK_T\000"
ARM GAS  C:\Users\Zachary\AppData\Local\Temp\ccmvMQUz.s 			page 182


 7078      455F4341 
 7078      4C4C4241 
 7078      434B5F54 
 7078      00
 7079              	.LASF352:
 7080 0711 4359424C 		.ascii	"CYBLE_EVT_CSCSC_INDICATION\000"
 7080      455F4556 
 7080      545F4353 
 7080      4353435F 
 7080      494E4449 
 7081              	.LASF549:
 7082 072c 6379426C 		.ascii	"cyBle_scanningIntervalType\000"
 7082      655F7363 
 7082      616E6E69 
 7082      6E67496E 
 7082      74657276 
 7083              	.LASF244:
 7084 0747 4359424C 		.ascii	"CYBLE_GATTC_HANDLE_VALUE_NTF_PARAM_T\000"
 7084      455F4741 
 7084      5454435F 
 7084      48414E44 
 7084      4C455F56 
 7085              	.LASF53:
 7086 076c 4359424C 		.ascii	"CYBLE_EVT_GATTC_HANDLE_VALUE_NTF\000"
 7086      455F4556 
 7086      545F4741 
 7086      5454435F 
 7086      48414E44 
 7087              	.LASF23:
 7088 078d 4359424C 		.ascii	"CYBLE_EVT_GAP_AUTH_REQ\000"
 7088      455F4556 
 7088      545F4741 
 7088      505F4155 
 7088      54485F52 
 7089              	.LASF292:
 7090 07a4 4359424C 		.ascii	"CYBLE_EVT_GATTC_CHAR_DISCOVERY_COMPLETE\000"
 7090      455F4556 
 7090      545F4741 
 7090      5454435F 
 7090      43484152 
 7091              	.LASF228:
 7092 07cc 4359424C 		.ascii	"CYBLE_CONN_HANDLE_T\000"
 7092      455F434F 
 7092      4E4E5F48 
 7092      414E444C 
 7092      455F5400 
 7093              	.LASF393:
 7094 07e0 4359424C 		.ascii	"CYBLE_EVT_HRSC_WRITE_CHAR_RESPONSE\000"
 7094      455F4556 
 7094      545F4852 
 7094      53435F57 
 7094      52495445 
 7095              	.LASF81:
 7096 0803 4359424C 		.ascii	"CYBLE_ERROR_BT_ON_NOT_COMPLETED\000"
 7096      455F4552 
 7096      524F525F 
 7096      42545F4F 
ARM GAS  C:\Users\Zachary\AppData\Local\Temp\ccmvMQUz.s 			page 183


 7096      4E5F4E4F 
 7097              	.LASF351:
 7098 0823 4359424C 		.ascii	"CYBLE_EVT_CSCSC_NOTIFICATION\000"
 7098      455F4556 
 7098      545F4353 
 7098      4353435F 
 7098      4E4F5449 
 7099              	.LASF131:
 7100 0840 4359424C 		.ascii	"CYBLE_GAP_IOCAP_DISPLAY_ONLY\000"
 7100      455F4741 
 7100      505F494F 
 7100      4341505F 
 7100      44495350 
 7101              	.LASF551:
 7102 085d 6379426C 		.ascii	"cyBle_disCount\000"
 7102      655F6469 
 7102      73436F75 
 7102      6E7400
 7103              	.LASF105:
 7104 086c 4359424C 		.ascii	"CYBLE_LL_PWR_LVL_NEG_3_DBM\000"
 7104      455F4C4C 
 7104      5F505752 
 7104      5F4C564C 
 7104      5F4E4547 
 7105              	.LASF271:
 7106 0887 64657363 		.ascii	"descrHandle\000"
 7106      7248616E 
 7106      646C6500 
 7107              	.LASF226:
 7108 0893 62644861 		.ascii	"bdHandle\000"
 7108      6E646C65 
 7108      00
 7109              	.LASF320:
 7110 089c 4359424C 		.ascii	"CYBLE_EVT_CGMSS_INDICATION_CONFIRMED\000"
 7110      455F4556 
 7110      545F4347 
 7110      4D53535F 
 7110      494E4449 
 7111              	.LASF505:
 7112 08c1 4379426C 		.ascii	"CyBle_ReadResponseEventHandler\000"
 7112      655F5265 
 7112      61645265 
 7112      73706F6E 
 7112      73654576 
 7113              	.LASF137:
 7114 08e0 4359424C 		.ascii	"CYBLE_GAP_AUTH_ERROR_PASSKEY_ENTRY_FAILED\000"
 7114      455F4741 
 7114      505F4155 
 7114      54485F45 
 7114      52524F52 
 7115              	.LASF533:
 7116 090a 63686172 		.ascii	"charRange\000"
 7116      52616E67 
 7116      6500
 7117              	.LASF316:
 7118 0914 4359424C 		.ascii	"CYBLE_EVT_BLSC_READ_DESCR_RESPONSE\000"
 7118      455F4556 
ARM GAS  C:\Users\Zachary\AppData\Local\Temp\ccmvMQUz.s 			page 184


 7118      545F424C 
 7118      53435F52 
 7118      4541445F 
 7119              	.LASF103:
 7120 0937 4359424C 		.ascii	"CYBLE_LL_PWR_LVL_NEG_12_DBM\000"
 7120      455F4C4C 
 7120      5F505752 
 7120      5F4C564C 
 7120      5F4E4547 
 7121              	.LASF494:
 7122 0953 4359424C 		.ascii	"CYBLE_GAPC_T\000"
 7122      455F4741 
 7122      50435F54 
 7122      00
 7123              	.LASF333:
 7124 0960 4359424C 		.ascii	"CYBLE_EVT_CPSS_INDICATION_DISABLED\000"
 7124      455F4556 
 7124      545F4350 
 7124      53535F49 
 7124      4E444943 
 7125              	.LASF162:
 7126 0983 4359424C 		.ascii	"CYBLE_GATT_XCHNG_MTU_RSP\000"
 7126      455F4741 
 7126      54545F58 
 7126      43484E47 
 7126      5F4D5455 
 7127              	.LASF332:
 7128 099c 4359424C 		.ascii	"CYBLE_EVT_CPSS_INDICATION_ENABLED\000"
 7128      455F4556 
 7128      545F4350 
 7128      53535F49 
 7128      4E444943 
 7129              	.LASF415:
 7130 09be 4359424C 		.ascii	"CYBLE_EVT_LNSS_NOTIFICATION_ENABLED\000"
 7130      455F4556 
 7130      545F4C4E 
 7130      53535F4E 
 7130      4F544946 
 7131              	.LASF49:
 7132 09e2 4359424C 		.ascii	"CYBLE_EVT_GATTS_WRITE_CMD_REQ\000"
 7132      455F4556 
 7132      545F4741 
 7132      5454535F 
 7132      57524954 
 7133              	.LASF343:
 7134 0a00 4359424C 		.ascii	"CYBLE_EVT_CPSC_WRITE_DESCR_RESPONSE\000"
 7134      455F4556 
 7134      545F4350 
 7134      53435F57 
 7134      52495445 
 7135              	.LASF4:
 7136 0a24 6C6F6E67 		.ascii	"long int\000"
 7136      20696E74 
 7136      00
 7137              	.LASF348:
 7138 0a2d 4359424C 		.ascii	"CYBLE_EVT_CSCSS_INDICATION_DISABLED\000"
 7138      455F4556 
ARM GAS  C:\Users\Zachary\AppData\Local\Temp\ccmvMQUz.s 			page 185


 7138      545F4353 
 7138      4353535F 
 7138      494E4449 
 7139              	.LASF189:
 7140 0a51 4359424C 		.ascii	"CYBLE_GATT_PDU_T\000"
 7140      455F4741 
 7140      54545F50 
 7140      44555F54 
 7140      00
 7141              	.LASF430:
 7142 0a62 4359424C 		.ascii	"CYBLE_EVT_PASSC_WRITE_CHAR_RESPONSE\000"
 7142      455F4556 
 7142      545F5041 
 7142      5353435F 
 7142      57524954 
 7143              	.LASF521:
 7144 0a86 64697363 		.ascii	"discSrvcInfo\000"
 7144      53727663 
 7144      496E666F 
 7144      00
 7145              	.LASF461:
 7146 0a93 4359424C 		.ascii	"CYBLE_EVT_UDSS_INDICATION_CONFIRMED\000"
 7146      455F4556 
 7146      545F5544 
 7146      53535F49 
 7146      4E444943 
 7147              	.LASF127:
 7148 0ab7 4359424C 		.ascii	"CYBLE_GAP_SEC_LEVEL_1\000"
 7148      455F4741 
 7148      505F5345 
 7148      435F4C45 
 7148      56454C5F 
 7149              	.LASF128:
 7150 0acd 4359424C 		.ascii	"CYBLE_GAP_SEC_LEVEL_2\000"
 7150      455F4741 
 7150      505F5345 
 7150      435F4C45 
 7150      56454C5F 
 7151              	.LASF129:
 7152 0ae3 4359424C 		.ascii	"CYBLE_GAP_SEC_LEVEL_3\000"
 7152      455F4741 
 7152      505F5345 
 7152      435F4C45 
 7152      56454C5F 
 7153              	.LASF166:
 7154 0af9 4359424C 		.ascii	"CYBLE_GATT_FIND_BY_TYPE_VALUE_RSP\000"
 7154      455F4741 
 7154      54545F46 
 7154      494E445F 
 7154      42595F54 
 7155              	.LASF17:
 7156 0b1b 4359424C 		.ascii	"CYBLE_EVT_STACK_ON\000"
 7156      455F4556 
 7156      545F5354 
 7156      41434B5F 
 7156      4F4E00
 7157              	.LASF88:
ARM GAS  C:\Users\Zachary\AppData\Local\Temp\ccmvMQUz.s 			page 186


 7158 0b2e 4359424C 		.ascii	"CYBLE_ERROR_L2CAP_PSM_NOT_IN_RANGE\000"
 7158      455F4552 
 7158      524F525F 
 7158      4C324341 
 7158      505F5053 
 7159              	.LASF497:
 7160 0b51 4359424C 		.ascii	"CYBLE_SRVI_IAS\000"
 7160      455F5352 
 7160      56495F49 
 7160      415300
 7161              	.LASF541:
 7162 0b60 6379426C 		.ascii	"cyBle_deviceAddress\000"
 7162      655F6465 
 7162      76696365 
 7162      41646472 
 7162      65737300 
 7163              	.LASF492:
 7164 0b74 7265636F 		.ascii	"reconnAddrCharHandle\000"
 7164      6E6E4164 
 7164      64724368 
 7164      61724861 
 7164      6E646C65 
 7165              	.LASF535:
 7166 0b89 64697363 		.ascii	"discDescrInfo\000"
 7166      44657363 
 7166      72496E66 
 7166      6F00
 7167              	.LASF441:
 7168 0b97 4359424C 		.ascii	"CYBLE_EVT_RSCSC_READ_CHAR_RESPONSE\000"
 7168      455F4556 
 7168      545F5253 
 7168      4353435F 
 7168      52454144 
 7169              	.LASF396:
 7170 0bba 4359424C 		.ascii	"CYBLE_EVT_HTSS_NOTIFICATION_ENABLED\000"
 7170      455F4556 
 7170      545F4854 
 7170      53535F4E 
 7170      4F544946 
 7171              	.LASF194:
 7172 0bde 4359424C 		.ascii	"CYBLE_GATT_ERR_INVALID_PDU\000"
 7172      455F4741 
 7172      54545F45 
 7172      52525F49 
 7172      4E56414C 
 7173              	.LASF555:
 7174 0bf9 2E5C4765 		.ascii	".\\Generated_Source\\PSoC4\\BLE_eventHandler.c\000"
 7174      6E657261 
 7174      7465645F 
 7174      536F7572 
 7174      63655C50 
 7175              	.LASF99:
 7176 0c25 4359424C 		.ascii	"CYBLE_ERROR_CHAR_IS_NOT_DISCOVERED\000"
 7176      455F4552 
 7176      524F525F 
 7176      43484152 
 7176      5F49535F 
ARM GAS  C:\Users\Zachary\AppData\Local\Temp\ccmvMQUz.s 			page 187


 7177              	.LASF545:
 7178 0c48 6379426C 		.ascii	"cyBle_gattc\000"
 7178      655F6761 
 7178      74746300 
 7179              	.LASF232:
 7180 0c54 4359424C 		.ascii	"CYBLE_GATT_HANDLE_VALUE_PAIR_T\000"
 7180      455F4741 
 7180      54545F48 
 7180      414E444C 
 7180      455F5641 
 7181              	.LASF117:
 7182 0c73 626C6553 		.ascii	"bleSsChId\000"
 7182      73436849 
 7182      6400
 7183              	.LASF383:
 7184 0c7d 4359424C 		.ascii	"CYBLE_EVT_HIDSC_NOTIFICATION\000"
 7184      455F4556 
 7184      545F4849 
 7184      4453435F 
 7184      4E4F5449 
 7185              	.LASF59:
 7186 0c9a 4359424C 		.ascii	"CYBLE_EVT_L2CAP_COMMAND_REJ\000"
 7186      455F4556 
 7186      545F4C32 
 7186      4341505F 
 7186      434F4D4D 
 7187              	.LASF172:
 7188 0cb6 4359424C 		.ascii	"CYBLE_GATT_READ_BLOB_RSP\000"
 7188      455F4741 
 7188      54545F52 
 7188      4541445F 
 7188      424C4F42 
 7189              	.LASF203:
 7190 0ccf 4359424C 		.ascii	"CYBLE_GATT_ERR_INVALID_ATTRIBUTE_LEN\000"
 7190      455F4741 
 7190      54545F45 
 7190      52525F49 
 7190      4E56414C 
 7191              	.LASF380:
 7192 0cf4 4359424C 		.ascii	"CYBLE_EVT_HIDSS_SUSPEND\000"
 7192      455F4556 
 7192      545F4849 
 7192      4453535F 
 7192      53555350 
 7193              	.LASF89:
 7194 0d0c 4359424C 		.ascii	"CYBLE_ERROR_GATT_DB_INVALID_ATTR_HANDLE\000"
 7194      455F4552 
 7194      524F525F 
 7194      47415454 
 7194      5F44425F 
 7195              	.LASF0:
 7196 0d34 7369676E 		.ascii	"signed char\000"
 7196      65642063 
 7196      68617200 
 7197              	.LASF102:
 7198 0d40 4359424C 		.ascii	"CYBLE_LL_PWR_LVL_NEG_18_DBM\000"
 7198      455F4C4C 
ARM GAS  C:\Users\Zachary\AppData\Local\Temp\ccmvMQUz.s 			page 188


 7198      5F505752 
 7198      5F4C564C 
 7198      5F4E4547 
 7199              	.LASF306:
 7200 0d5c 4359424C 		.ascii	"CYBLE_EVT_BASC_READ_DESCR_RESPONSE\000"
 7200      455F4556 
 7200      545F4241 
 7200      53435F52 
 7200      4541445F 
 7201              	.LASF163:
 7202 0d7f 4359424C 		.ascii	"CYBLE_GATT_FIND_INFO_REQ\000"
 7202      455F4741 
 7202      54545F46 
 7202      494E445F 
 7202      494E464F 
 7203              	.LASF19:
 7204 0d98 4359424C 		.ascii	"CYBLE_EVT_HARDWARE_ERROR\000"
 7204      455F4556 
 7204      545F4841 
 7204      52445741 
 7204      52455F45 
 7205              	.LASF517:
 7206 0db1 4379426C 		.ascii	"CyBle_EventHandler\000"
 7206      655F4576 
 7206      656E7448 
 7206      616E646C 
 7206      657200
 7207              	.LASF70:
 7208 0dc4 4359424C 		.ascii	"CYBLE_ERROR_OK\000"
 7208      455F4552 
 7208      524F525F 
 7208      4F4B00
 7209              	.LASF115:
 7210 0dd3 4359424C 		.ascii	"CYBLE_BLESS_PHY_CH_GRP_ID_T\000"
 7210      455F424C 
 7210      4553535F 
 7210      5048595F 
 7210      43485F47 
 7211              	.LASF215:
 7212 0def 4359424C 		.ascii	"CYBLE_GATT_ERR_CCCD_IMPROPERLY_CONFIGURED\000"
 7212      455F4741 
 7212      54545F45 
 7212      52525F43 
 7212      4343445F 
 7213              	.LASF40:
 7214 0e19 4359424C 		.ascii	"CYBLE_EVT_GATTC_READ_BY_GROUP_TYPE_RSP\000"
 7214      455F4556 
 7214      545F4741 
 7214      5454435F 
 7214      52454144 
 7215              	.LASF472:
 7216 0e40 4359424C 		.ascii	"CYBLE_STATE_STOPPED\000"
 7216      455F5354 
 7216      4154455F 
 7216      53544F50 
 7216      50454400 
 7217              	.LASF435:
ARM GAS  C:\Users\Zachary\AppData\Local\Temp\ccmvMQUz.s 			page 189


 7218 0e54 4359424C 		.ascii	"CYBLE_EVT_RSCSS_INDICATION_ENABLED\000"
 7218      455F4556 
 7218      545F5253 
 7218      4353535F 
 7218      494E4449 
 7219              	.LASF1:
 7220 0e77 756E7369 		.ascii	"unsigned char\000"
 7220      676E6564 
 7220      20636861 
 7220      7200
 7221              	.LASF39:
 7222 0e85 4359424C 		.ascii	"CYBLE_EVT_GATTC_XCHNG_MTU_RSP\000"
 7222      455F4556 
 7222      545F4741 
 7222      5454435F 
 7222      5843484E 
 7223              	.LASF334:
 7224 0ea3 4359424C 		.ascii	"CYBLE_EVT_CPSS_INDICATION_CONFIRMED\000"
 7224      455F4556 
 7224      545F4350 
 7224      53535F49 
 7224      4E444943 
 7225              	.LASF185:
 7226 0ec7 4359424C 		.ascii	"CYBLE_GATT_HANDLE_VALUE_IND\000"
 7226      455F4741 
 7226      54545F48 
 7226      414E444C 
 7226      455F5641 
 7227              	.LASF331:
 7228 0ee3 4359424C 		.ascii	"CYBLE_EVT_CPSS_NOTIFICATION_DISABLED\000"
 7228      455F4556 
 7228      545F4350 
 7228      53535F4E 
 7228      4F544946 
 7229              	.LASF486:
 7230 0f08 4359424C 		.ascii	"CYBLE_CLIENT_STATE_DISCONNECTED_DISCOVERED\000"
 7230      455F434C 
 7230      49454E54 
 7230      5F535441 
 7230      54455F44 
 7231              	.LASF440:
 7232 0f33 4359424C 		.ascii	"CYBLE_EVT_RSCSC_INDICATION\000"
 7232      455F4556 
 7232      545F5253 
 7232      4353435F 
 7232      494E4449 
 7233              	.LASF255:
 7234 0f4e 4359424C 		.ascii	"CYBLE_GATTC_HANDLE_UUID_LIST_PARAM_T\000"
 7234      455F4741 
 7234      5454435F 
 7234      48414E44 
 7234      4C455F55 
 7235              	.LASF66:
 7236 0f73 4359424C 		.ascii	"CYBLE_EVT_L2CAP_CBFC_TX_CREDIT_IND\000"
 7236      455F4556 
 7236      545F4C32 
 7236      4341505F 
ARM GAS  C:\Users\Zachary\AppData\Local\Temp\ccmvMQUz.s 			page 190


 7236      43424643 
 7237              	.LASF321:
 7238 0f96 4359424C 		.ascii	"CYBLE_EVT_CGMSS_NOTIFICATION_ENABLED\000"
 7238      455F4556 
 7238      545F4347 
 7238      4D53535F 
 7238      4E4F5449 
 7239              	.LASF556:
 7240 0fbb 433A5C55 		.ascii	"C:\\Users\\Zachary\\Desktop\\PSoC-4-BLE-master\\100"
 7240      73657273 
 7240      5C5A6163 
 7240      68617279 
 7240      5C446573 
 7241 0fe9 5F50726F 		.ascii	"_Projects_in_100_Days\\Day006_Central_IAS\\PSoC_4_B"
 7241      6A656374 
 7241      735F696E 
 7241      5F313030 
 7241      5F446179 
 7242 101a 4C455F43 		.ascii	"LE_Central_IAS\\PSoC_4_BLE_Central_IAS.cydsn\000"
 7242      656E7472 
 7242      616C5F49 
 7242      41535C50 
 7242      536F435F 
 7243              	.LASF275:
 7244 1046 4359424C 		.ascii	"CYBLE_GATTC_T\000"
 7244      455F4741 
 7244      5454435F 
 7244      5400
 7245              	.LASF282:
 7246 1054 4359424C 		.ascii	"CYBLE_EVT_GATTC_INDICATION\000"
 7246      455F4556 
 7246      545F4741 
 7246      5454435F 
 7246      494E4449 
 7247              	.LASF239:
 7248 106f 6572726F 		.ascii	"errorCode\000"
 7248      72436F64 
 7248      6500
 7249              	.LASF532:
 7250 1079 4379426C 		.ascii	"CyBle_GetCharRange\000"
 7250      655F4765 
 7250      74436861 
 7250      7252616E 
 7250      676500
 7251              	.LASF146:
 7252 108c 4359424C 		.ascii	"CYBLE_GAP_AUTH_ERROR_INVALID_PARAMETERS\000"
 7252      455F4741 
 7252      505F4155 
 7252      54485F45 
 7252      52524F52 
 7253              	.LASF257:
 7254 10b4 75756964 		.ascii	"uuidFormat\000"
 7254      466F726D 
 7254      617400
 7255              	.LASF447:
 7256 10bf 4359424C 		.ascii	"CYBLE_EVT_SCPSS_NOTIFICATION_ENABLED\000"
 7256      455F4556 
ARM GAS  C:\Users\Zachary\AppData\Local\Temp\ccmvMQUz.s 			page 191


 7256      545F5343 
 7256      5053535F 
 7256      4E4F5449 
 7257              	.LASF63:
 7258 10e4 4359424C 		.ascii	"CYBLE_EVT_L2CAP_CBFC_DISCONN_CNF\000"
 7258      455F4556 
 7258      545F4C32 
 7258      4341505F 
 7258      43424643 
 7259              	.LASF43:
 7260 1105 4359424C 		.ascii	"CYBLE_EVT_GATTC_FIND_BY_TYPE_VALUE_RSP\000"
 7260      455F4556 
 7260      545F4741 
 7260      5454435F 
 7260      46494E44 
 7261              	.LASF452:
 7262 112c 4359424C 		.ascii	"CYBLE_EVT_SCPSC_WRITE_DESCR_RESPONSE\000"
 7262      455F4556 
 7262      545F5343 
 7262      5053435F 
 7262      57524954 
 7263              	.LASF14:
 7264 1151 63686172 		.ascii	"char\000"
 7264      00
 7265              	.LASF106:
 7266 1156 4359424C 		.ascii	"CYBLE_LL_PWR_LVL_NEG_2_DBM\000"
 7266      455F4C4C 
 7266      5F505752 
 7266      5F4C564C 
 7266      5F4E4547 
 7267              	.LASF455:
 7268 1171 4359424C 		.ascii	"CYBLE_EVT_TPSC_NOTIFICATION\000"
 7268      455F4556 
 7268      545F5450 
 7268      53435F4E 
 7268      4F544946 
 7269              	.LASF178:
 7270 118d 4359424C 		.ascii	"CYBLE_GATT_WRITE_RSP\000"
 7270      455F4741 
 7270      54545F57 
 7270      52495445 
 7270      5F525350 
 7271              	.LASF46:
 7272 11a2 4359424C 		.ascii	"CYBLE_EVT_GATTC_READ_MULTI_RSP\000"
 7272      455F4556 
 7272      545F4741 
 7272      5454435F 
 7272      52454144 
 7273              	.LASF154:
 7274 11c1 4359424C 		.ascii	"CYBLE_GAP_AUTH_INFO_T\000"
 7274      455F4741 
 7274      505F4155 
 7274      54485F49 
 7274      4E464F5F 
 7275              	.LASF133:
 7276 11d7 4359424C 		.ascii	"CYBLE_GAP_IOCAP_KEYBOARD_ONLY\000"
 7276      455F4741 
ARM GAS  C:\Users\Zachary\AppData\Local\Temp\ccmvMQUz.s 			page 192


 7276      505F494F 
 7276      4341505F 
 7276      4B455942 
 7277              	.LASF476:
 7278 11f5 4359424C 		.ascii	"CYBLE_STATE_CONNECTING\000"
 7278      455F5354 
 7278      4154455F 
 7278      434F4E4E 
 7278      45435449 
 7279              	.LASF16:
 7280 120c 4359424C 		.ascii	"CYBLE_EVT_HOST_INVALID\000"
 7280      455F4556 
 7280      545F484F 
 7280      53545F49 
 7280      4E56414C 
 7281              	.LASF204:
 7282 1223 4359424C 		.ascii	"CYBLE_GATT_ERR_UNLIKELY_ERROR\000"
 7282      455F4741 
 7282      54545F45 
 7282      52525F55 
 7282      4E4C494B 
 7283              	.LASF374:
 7284 1241 4359424C 		.ascii	"CYBLE_EVT_GLSC_READ_DESCR_RESPONSE\000"
 7284      455F4556 
 7284      545F474C 
 7284      53435F52 
 7284      4541445F 
 7285              	.LASF161:
 7286 1264 4359424C 		.ascii	"CYBLE_GATT_XCNHG_MTU_REQ\000"
 7286      455F4741 
 7286      54545F58 
 7286      434E4847 
 7286      5F4D5455 
 7287              	.LASF77:
 7288 127d 4359424C 		.ascii	"CYBLE_ERROR_NO_DEVICE_ENTITY\000"
 7288      455F4552 
 7288      524F525F 
 7288      4E4F5F44 
 7288      45564943 
 7289              	.LASF45:
 7290 129a 4359424C 		.ascii	"CYBLE_EVT_GATTC_READ_BLOB_RSP\000"
 7290      455F4556 
 7290      545F4741 
 7290      5454435F 
 7290      52454144 
 7291              	.LASF399:
 7292 12b8 4359424C 		.ascii	"CYBLE_EVT_HTSS_INDICATION_DISABLED\000"
 7292      455F4556 
 7292      545F4854 
 7292      53535F49 
 7292      4E444943 
 7293              	.LASF446:
 7294 12db 4359424C 		.ascii	"CYBLE_EVT_RTUSC_READ_CHAR_RESPONSE\000"
 7294      455F4556 
 7294      545F5254 
 7294      5553435F 
 7294      52454144 
ARM GAS  C:\Users\Zachary\AppData\Local\Temp\ccmvMQUz.s 			page 193


 7295              	.LASF540:
 7296 12fe 6379426C 		.ascii	"cyBle_eventHandlerFlag\000"
 7296      655F6576 
 7296      656E7448 
 7296      616E646C 
 7296      6572466C 
 7297              	.LASF52:
 7298 1315 4359424C 		.ascii	"CYBLE_EVT_GATTC_EXEC_WRITE_RSP\000"
 7298      455F4556 
 7298      545F4741 
 7298      5454435F 
 7298      45584543 
 7299              	.LASF208:
 7300 1334 4359424C 		.ascii	"CYBLE_GATT_ERR_HEART_RATE_CONTROL_POINT_NOT_SUPPORT"
 7300      455F4741 
 7300      54545F45 
 7300      52525F48 
 7300      45415254 
 7301 1367 454400   		.ascii	"ED\000"
 7302              	.LASF201:
 7303 136a 4359424C 		.ascii	"CYBLE_GATT_ERR_ATTRIBUTE_NOT_LONG\000"
 7303      455F4741 
 7303      54545F45 
 7303      52525F41 
 7303      54545249 
 7304              	.LASF362:
 7305 138c 4359424C 		.ascii	"CYBLE_EVT_CTSC_WRITE_DESCR_RESPONSE\000"
 7305      455F4556 
 7305      545F4354 
 7305      53435F57 
 7305      52495445 
 7306              	.LASF480:
 7307 13b0 4359424C 		.ascii	"CYBLE_CLIENT_STATE_SRVC_DISCOVERING\000"
 7307      455F434C 
 7307      49454E54 
 7307      5F535441 
 7307      54455F53 
 7308              	.LASF500:
 7309 13d4 4359424C 		.ascii	"CYBLE_SCDI_COUNT\000"
 7309      455F5343 
 7309      44495F43 
 7309      4F554E54 
 7309      00
 7310              	.LASF130:
 7311 13e5 4359424C 		.ascii	"CYBLE_GAP_SEC_LEVEL_MASK\000"
 7311      455F4741 
 7311      505F5345 
 7311      435F4C45 
 7311      56454C5F 
 7312              	.LASF460:
 7313 13fe 4359424C 		.ascii	"CYBLE_EVT_UDSS_INDICATION_DISABLED\000"
 7313      455F4556 
 7313      545F5544 
 7313      53535F49 
 7313      4E444943 
 7314              	.LASF263:
 7315 1421 696E636C 		.ascii	"inclDefHandle\000"
ARM GAS  C:\Users\Zachary\AppData\Local\Temp\ccmvMQUz.s 			page 194


 7315      44656648 
 7315      616E646C 
 7315      6500
 7316              	.LASF552:
 7317 142f 6379426C 		.ascii	"cyBle_gapc\000"
 7317      655F6761 
 7317      706300
 7318              	.LASF337:
 7319 143a 4359424C 		.ascii	"CYBLE_EVT_CPSS_CHAR_WRITE\000"
 7319      455F4556 
 7319      545F4350 
 7319      53535F43 
 7319      4841525F 
 7320              	.LASF388:
 7321 1454 4359424C 		.ascii	"CYBLE_EVT_HRSS_ENERGY_EXPENDED_RESET\000"
 7321      455F4556 
 7321      545F4852 
 7321      53535F45 
 7321      4E455247 
 7322              	.LASF491:
 7323 1479 70657269 		.ascii	"periphPrivacyCharHandle\000"
 7323      70685072 
 7323      69766163 
 7323      79436861 
 7323      7248616E 
 7324              	.LASF264:
 7325 1491 696E636C 		.ascii	"inclHandleRange\000"
 7325      48616E64 
 7325      6C655261 
 7325      6E676500 
 7326              	.LASF311:
 7327 14a1 4359424C 		.ascii	"CYBLE_EVT_BLSS_NOTIFICATION_ENABLED\000"
 7327      455F4556 
 7327      545F424C 
 7327      53535F4E 
 7327      4F544946 
 7328              	.LASF160:
 7329 14c5 4359424C 		.ascii	"CYBLE_GATT_ERROR_RSP\000"
 7329      455F4741 
 7329      54545F45 
 7329      52524F52 
 7329      5F525350 
 7330              	.LASF71:
 7331 14da 4359424C 		.ascii	"CYBLE_ERROR_INVALID_PARAMETER\000"
 7331      455F4552 
 7331      524F525F 
 7331      494E5641 
 7331      4C49445F 
 7332              	.LASF442:
 7333 14f8 4359424C 		.ascii	"CYBLE_EVT_RSCSC_WRITE_CHAR_RESPONSE\000"
 7333      455F4556 
 7333      545F5253 
 7333      4353435F 
 7333      57524954 
 7334              	.LASF389:
 7335 151c 4359424C 		.ascii	"CYBLE_EVT_HRSS_NOTIFICATION_ENABLED\000"
 7335      455F4556 
ARM GAS  C:\Users\Zachary\AppData\Local\Temp\ccmvMQUz.s 			page 195


 7335      545F4852 
 7335      53535F4E 
 7335      4F544946 
 7336              	.LASF458:
 7337 1540 4359424C 		.ascii	"CYBLE_EVT_TPSC_WRITE_DESCR_RESPONSE\000"
 7337      455F4556 
 7337      545F5450 
 7337      53435F57 
 7337      52495445 
 7338              	.LASF346:
 7339 1564 4359424C 		.ascii	"CYBLE_EVT_CSCSS_NOTIFICATION_DISABLED\000"
 7339      455F4556 
 7339      545F4353 
 7339      4353535F 
 7339      4E4F5449 
 7340              	.LASF357:
 7341 158a 4359424C 		.ascii	"CYBLE_EVT_CTSS_NOTIFICATION_ENABLED\000"
 7341      455F4556 
 7341      545F4354 
 7341      53535F4E 
 7341      4F544946 
 7342              	.LASF513:
 7343 15ae 4379426C 		.ascii	"CyBle_GapConnUpdateCompleteEventHandler\000"
 7343      655F4761 
 7343      70436F6E 
 7343      6E557064 
 7343      61746543 
 7344              	.LASF436:
 7345 15d6 4359424C 		.ascii	"CYBLE_EVT_RSCSS_INDICATION_DISABLED\000"
 7345      455F4556 
 7345      545F5253 
 7345      4353535F 
 7345      494E4449 
 7346              	.LASF96:
 7347 15fa 4359424C 		.ascii	"CYBLE_DESCR_DISC_DONE\000"
 7347      455F4445 
 7347      5343525F 
 7347      44495343 
 7347      5F444F4E 
 7348              	.LASF409:
 7349 1610 4359424C 		.ascii	"CYBLE_EVT_LLSS_WRITE_CHAR_REQ\000"
 7349      455F4556 
 7349      545F4C4C 
 7349      53535F57 
 7349      52495445 
 7350              	.LASF73:
 7351 162e 4359424C 		.ascii	"CYBLE_ERROR_MEMORY_ALLOCATION_FAILED\000"
 7351      455F4552 
 7351      524F525F 
 7351      4D454D4F 
 7351      52595F41 
 7352              	.LASF394:
 7353 1653 4359424C 		.ascii	"CYBLE_EVT_HRSC_READ_DESCR_RESPONSE\000"
 7353      455F4556 
 7353      545F4852 
 7353      53435F52 
 7353      4541445F 
ARM GAS  C:\Users\Zachary\AppData\Local\Temp\ccmvMQUz.s 			page 196


 7354              	.LASF542:
 7355 1676 6379426C 		.ascii	"cyBle_sflashDeviceAddress\000"
 7355      655F7366 
 7355      6C617368 
 7355      44657669 
 7355      63654164 
 7356              	.LASF345:
 7357 1690 4359424C 		.ascii	"CYBLE_EVT_CSCSS_NOTIFICATION_ENABLED\000"
 7357      455F4556 
 7357      545F4353 
 7357      4353535F 
 7357      4E4F5449 
 7358              	.LASF246:
 7359 16b5 61747472 		.ascii	"attrValue\000"
 7359      56616C75 
 7359      6500
 7360              	.LASF313:
 7361 16bf 4359424C 		.ascii	"CYBLE_EVT_BLSC_INDICATION\000"
 7361      455F4556 
 7361      545F424C 
 7361      53435F49 
 7361      4E444943 
 7362              	.LASF518:
 7363 16d9 4379426C 		.ascii	"CyBle_ReadByGroupEventHandler\000"
 7363      655F5265 
 7363      61644279 
 7363      47726F75 
 7363      70457665 
 7364              	.LASF526:
 7365 16f7 4379426C 		.ascii	"CyBle_ReadByTypeEventHandler\000"
 7365      655F5265 
 7365      61644279 
 7365      54797065 
 7365      4576656E 
 7366              	.LASF187:
 7367 1714 4359424C 		.ascii	"CYBLE_GATT_SIGNED_WRITE_CMD\000"
 7367      455F4741 
 7367      54545F53 
 7367      49474E45 
 7367      445F5752 
 7368              	.LASF382:
 7369 1730 4359424C 		.ascii	"CYBLE_EVT_HIDSS_REPORT_CHAR_WRITE\000"
 7369      455F4556 
 7369      545F4849 
 7369      4453535F 
 7369      5245504F 
 7370              	.LASF213:
 7371 1752 4359424C 		.ascii	"CYBLE_GATTS_ERR_CCCD_IMPROPERLY_CONFIGURED\000"
 7371      455F4741 
 7371      5454535F 
 7371      4552525F 
 7371      43434344 
 7372              	.LASF524:
 7373 177d 4379426C 		.ascii	"CyBle_GapcDiscoverCharacteristicsEventHandler\000"
 7373      655F4761 
 7373      70634469 
 7373      73636F76 
ARM GAS  C:\Users\Zachary\AppData\Local\Temp\ccmvMQUz.s 			page 197


 7373      65724368 
 7374              	.LASF183:
 7375 17ab 4359424C 		.ascii	"CYBLE_GATT_EXECUTE_WRITE_RSP\000"
 7375      455F4741 
 7375      54545F45 
 7375      58454355 
 7375      54455F57 
 7376              	.LASF93:
 7377 17c8 4359424C 		.ascii	"CYBLE_ERROR_MAX\000"
 7377      455F4552 
 7377      524F525F 
 7377      4D415800 
 7378              	.LASF421:
 7379 17d8 4359424C 		.ascii	"CYBLE_EVT_LNSC_WRITE_CHAR_RESPONSE\000"
 7379      455F4556 
 7379      545F4C4E 
 7379      53435F57 
 7379      52495445 
 7380              	.LASF58:
 7381 17fb 4359424C 		.ascii	"CYBLE_EVT_L2CAP_CONN_PARAM_UPDATE_RSP\000"
 7381      455F4556 
 7381      545F4C32 
 7381      4341505F 
 7381      434F4E4E 
 7382              	.LASF148:
 7383 1821 4359424C 		.ascii	"CYBLE_GAP_AUTH_ERROR_LINK_DISCONNECTED\000"
 7383      455F4741 
 7383      505F4155 
 7383      54485F45 
 7383      52524F52 
 7384              	.LASF299:
 7385 1848 4359424C 		.ascii	"CYBLE_EVT_ANSC_WRITE_CHAR_RESPONSE\000"
 7385      455F4556 
 7385      545F414E 
 7385      53435F57 
 7385      52495445 
 7386              	.LASF463:
 7387 186b 4359424C 		.ascii	"CYBLE_EVT_UDSS_NOTIFICATION_DISABLED\000"
 7387      455F4556 
 7387      545F5544 
 7387      53535F4E 
 7387      4F544946 
 7388              	.LASF464:
 7389 1890 4359424C 		.ascii	"CYBLE_EVT_UDSS_WRITE_CHAR\000"
 7389      455F4556 
 7389      545F5544 
 7389      53535F57 
 7389      52495445 
 7390              	.LASF265:
 7391 18aa 4359424C 		.ascii	"CYBLE_DISC_INCL_INFO_T\000"
 7391      455F4449 
 7391      53435F49 
 7391      4E434C5F 
 7391      494E464F 
 7392              	.LASF272:
 7393 18c1 4359424C 		.ascii	"CYBLE_DISC_DESCR_INFO_T\000"
 7393      455F4449 
ARM GAS  C:\Users\Zachary\AppData\Local\Temp\ccmvMQUz.s 			page 198


 7393      53435F44 
 7393      45534352 
 7393      5F494E46 
 7394              	.LASF233:
 7395 18d9 73746172 		.ascii	"startHandle\000"
 7395      7448616E 
 7395      646C6500 
 7396              	.LASF209:
 7397 18e5 4359424C 		.ascii	"CYBLE_GATT_ERR_USER_DATA_ACCESS_NOT_PERMITTED\000"
 7397      455F4741 
 7397      54545F45 
 7397      52525F55 
 7397      5345525F 
 7398              	.LASF254:
 7399 1913 62797465 		.ascii	"byteCount\000"
 7399      436F756E 
 7399      7400
 7400              	.LASF496:
 7401 191d 4359424C 		.ascii	"CYBLE_SRVI_GATT\000"
 7401      455F5352 
 7401      56495F47 
 7401      41545400 
 7402              	.LASF26:
 7403 192d 4359424C 		.ascii	"CYBLE_EVT_GAP_AUTH_COMPLETE\000"
 7403      455F4556 
 7403      545F4741 
 7403      505F4155 
 7403      54485F43 
 7404              	.LASF431:
 7405 1949 4359424C 		.ascii	"CYBLE_EVT_PASSC_READ_DESCR_RESPONSE\000"
 7405      455F4556 
 7405      545F5041 
 7405      5353435F 
 7405      52454144 
 7406              	.LASF27:
 7407 196d 4359424C 		.ascii	"CYBLE_EVT_GAP_AUTH_FAILED\000"
 7407      455F4556 
 7407      545F4741 
 7407      505F4155 
 7407      54485F46 
 7408              	.LASF381:
 7409 1987 4359424C 		.ascii	"CYBLE_EVT_HIDSS_EXIT_SUSPEND\000"
 7409      455F4556 
 7409      545F4849 
 7409      4453535F 
 7409      45584954 
 7410              	.LASF94:
 7411 19a4 4359424C 		.ascii	"CYBLE_INCL_DISC_DONE\000"
 7411      455F494E 
 7411      434C5F44 
 7411      4953435F 
 7411      444F4E45 
 7412              	.LASF251:
 7413 19b9 4359424C 		.ascii	"CYBLE_GATTC_READ_BY_GRP_RSP_PARAM_T\000"
 7413      455F4741 
 7413      5454435F 
 7413      52454144 
ARM GAS  C:\Users\Zachary\AppData\Local\Temp\ccmvMQUz.s 			page 199


 7413      5F42595F 
 7414              	.LASF176:
 7415 19dd 4359424C 		.ascii	"CYBLE_GATT_READ_BY_GROUP_RSP\000"
 7415      455F4741 
 7415      54545F52 
 7415      4541445F 
 7415      42595F47 
 7416              	.LASF74:
 7417 19fa 4359424C 		.ascii	"CYBLE_ERROR_INSUFFICIENT_RESOURCES\000"
 7417      455F4552 
 7417      524F525F 
 7417      494E5355 
 7417      46464943 
 7418              	.LASF434:
 7419 1a1d 4359424C 		.ascii	"CYBLE_EVT_RSCSS_NOTIFICATION_DISABLED\000"
 7419      455F4556 
 7419      545F5253 
 7419      4353535F 
 7419      4E4F5449 
 7420              	.LASF385:
 7421 1a43 4359424C 		.ascii	"CYBLE_EVT_HIDSC_WRITE_CHAR_RESPONSE\000"
 7421      455F4556 
 7421      545F4849 
 7421      4453435F 
 7421      57524954 
 7422              	.LASF109:
 7423 1a67 4359424C 		.ascii	"CYBLE_LL_PWR_LVL_3_DBM\000"
 7423      455F4C4C 
 7423      5F505752 
 7423      5F4C564C 
 7423      5F335F44 
 7424              	.LASF5:
 7425 1a7e 6C6F6E67 		.ascii	"long unsigned int\000"
 7425      20756E73 
 7425      69676E65 
 7425      6420696E 
 7425      7400
 7426              	.LASF169:
 7427 1a90 4359424C 		.ascii	"CYBLE_GATT_READ_REQ\000"
 7427      455F4741 
 7427      54545F52 
 7427      4541445F 
 7427      52455100 
 7428              	.LASF504:
 7429 1aa4 4379426C 		.ascii	"CyBle_IndicationEventHandler\000"
 7429      655F496E 
 7429      64696361 
 7429      74696F6E 
 7429      4576656E 
 7430              	.LASF408:
 7431 1ac1 4359424C 		.ascii	"CYBLE_EVT_IASS_WRITE_CHAR_CMD\000"
 7431      455F4556 
 7431      545F4941 
 7431      53535F57 
 7431      52495445 
 7432              	.LASF155:
 7433 1adf 73746174 		.ascii	"status\000"
ARM GAS  C:\Users\Zachary\AppData\Local\Temp\ccmvMQUz.s 			page 200


 7433      757300
 7434              	.LASF107:
 7435 1ae6 4359424C 		.ascii	"CYBLE_LL_PWR_LVL_NEG_1_DBM\000"
 7435      455F4C4C 
 7435      5F505752 
 7435      5F4C564C 
 7435      5F4E4547 
 7436              	.LASF143:
 7437 1b01 4359424C 		.ascii	"CYBLE_GAP_AUTH_ERROR_COMMAND_NOT_SUPPORTED\000"
 7437      455F4741 
 7437      505F4155 
 7437      54485F45 
 7437      52524F52 
 7438              	.LASF139:
 7439 1b2c 4359424C 		.ascii	"CYBLE_GAP_AUTH_ERROR_AUTHENTICATION_REQ_NOT_MET\000"
 7439      455F4741 
 7439      505F4155 
 7439      54485F45 
 7439      52524F52 
 7440              	.LASF270:
 7441 1b5c 4359424C 		.ascii	"CYBLE_SRVR_CHAR_INFO_T\000"
 7441      455F5352 
 7441      56525F43 
 7441      4841525F 
 7441      494E464F 
 7442              	.LASF184:
 7443 1b73 4359424C 		.ascii	"CYBLE_GATT_HANDLE_VALUE_NTF\000"
 7443      455F4741 
 7443      54545F48 
 7443      414E444C 
 7443      455F5641 
 7444              	.LASF298:
 7445 1b8f 4359424C 		.ascii	"CYBLE_EVT_ANSC_READ_CHAR_RESPONSE\000"
 7445      455F4556 
 7445      545F414E 
 7445      53435F52 
 7445      4541445F 
 7446              	.LASF84:
 7447 1bb1 4359424C 		.ascii	"CYBLE_ERROR_L2CAP_PSM_ALREADY_REGISTERED\000"
 7447      455F4552 
 7447      524F525F 
 7447      4C324341 
 7447      505F5053 
 7448              	.LASF221:
 7449 1bda 4359424C 		.ascii	"CYBLE_UUID128_T\000"
 7449      455F5555 
 7449      49443132 
 7449      385F5400 
 7450              	.LASF528:
 7451 1bea 64697363 		.ascii	"discInclInfo\000"
 7451      496E636C 
 7451      496E666F 
 7451      00
 7452              	.LASF401:
 7453 1bf7 4359424C 		.ascii	"CYBLE_EVT_HTSS_CHAR_WRITE\000"
 7453      455F4556 
 7453      545F4854 
ARM GAS  C:\Users\Zachary\AppData\Local\Temp\ccmvMQUz.s 			page 201


 7453      53535F43 
 7453      4841525F 
 7454              	.LASF302:
 7455 1c11 4359424C 		.ascii	"CYBLE_EVT_BASS_NOTIFICATION_ENABLED\000"
 7455      455F4556 
 7455      545F4241 
 7455      53535F4E 
 7455      4F544946 
 7456              	.LASF363:
 7457 1c35 4359424C 		.ascii	"CYBLE_EVT_DISC_READ_CHAR_RESPONSE\000"
 7457      455F4556 
 7457      545F4449 
 7457      53435F52 
 7457      4541445F 
 7458              	.LASF427:
 7459 1c57 4359424C 		.ascii	"CYBLE_EVT_PASSS_WRITE_CHAR\000"
 7459      455F4556 
 7459      545F5041 
 7459      5353535F 
 7459      57524954 
 7460              	.LASF341:
 7461 1c72 4359424C 		.ascii	"CYBLE_EVT_CPSC_WRITE_CHAR_RESPONSE\000"
 7461      455F4556 
 7461      545F4350 
 7461      53435F57 
 7461      52495445 
 7462              	.LASF32:
 7463 1c95 4359424C 		.ascii	"CYBLE_EVT_GAP_CONNECTION_UPDATE_COMPLETE\000"
 7463      455F4556 
 7463      545F4741 
 7463      505F434F 
 7463      4E4E4543 
 7464              	.LASF326:
 7465 1cbe 4359424C 		.ascii	"CYBLE_EVT_CGMSC_READ_CHAR_RESPONSE\000"
 7465      455F4556 
 7465      545F4347 
 7465      4D53435F 
 7465      52454144 
 7466              	.LASF525:
 7467 1ce1 64697363 		.ascii	"discCharInfo\000"
 7467      43686172 
 7467      496E666F 
 7467      00
 7468              	.LASF219:
 7469 1cee 4359424C 		.ascii	"CYBLE_UUID16\000"
 7469      455F5555 
 7469      49443136 
 7469      00
 7470              	.LASF516:
 7471 1cfb 6379426C 		.ascii	"cyBle_mtuSize\000"
 7471      655F6D74 
 7471      7553697A 
 7471      6500
 7472              	.LASF145:
 7473 1d09 4359424C 		.ascii	"CYBLE_GAP_AUTH_ERROR_REPEATED_ATTEMPTS\000"
 7473      455F4741 
 7473      505F4155 
ARM GAS  C:\Users\Zachary\AppData\Local\Temp\ccmvMQUz.s 			page 202


 7473      54485F45 
 7473      52524F52 
 7474              	.LASF62:
 7475 1d30 4359424C 		.ascii	"CYBLE_EVT_L2CAP_CBFC_DISCONN_IND\000"
 7475      455F4556 
 7475      545F4C32 
 7475      4341505F 
 7475      43424643 
 7476              	.LASF350:
 7477 1d51 4359424C 		.ascii	"CYBLE_EVT_CSCSS_CHAR_WRITE\000"
 7477      455F4556 
 7477      545F4353 
 7477      4353535F 
 7477      43484152 
 7478              	.LASF250:
 7479 1d6c 61747472 		.ascii	"attrData\000"
 7479      44617461 
 7479      00
 7480              	.LASF487:
 7481 1d75 4359424C 		.ascii	"CYBLE_CLIENT_STATE_DISCONNECTED\000"
 7481      455F434C 
 7481      49454E54 
 7481      5F535441 
 7481      54455F44 
 7482              	.LASF534:
 7483 1d95 4379426C 		.ascii	"CyBle_FindInfoEventHandler\000"
 7483      655F4669 
 7483      6E64496E 
 7483      666F4576 
 7483      656E7448 
 7484              	.LASF24:
 7485 1db0 4359424C 		.ascii	"CYBLE_EVT_GAP_PASSKEY_ENTRY_REQUEST\000"
 7485      455F4556 
 7485      545F4741 
 7485      505F5041 
 7485      53534B45 
 7486              	.LASF111:
 7487 1dd4 4359424C 		.ascii	"CYBLE_BLESS_PWR_LVL_T\000"
 7487      455F424C 
 7487      4553535F 
 7487      5057525F 
 7487      4C564C5F 
 7488              	.LASF416:
 7489 1dea 4359424C 		.ascii	"CYBLE_EVT_LNSS_NOTIFICATION_DISABLED\000"
 7489      455F4556 
 7489      545F4C4E 
 7489      53535F4E 
 7489      4F544946 
 7490              	.LASF335:
 7491 1e0f 4359424C 		.ascii	"CYBLE_EVT_CPSS_BROADCAST_ENABLED\000"
 7491      455F4556 
 7491      545F4350 
 7491      53535F42 
 7491      524F4144 
 7492              	.LASF508:
 7493 1e30 4379426C 		.ascii	"CyBle_GattConnectReqHandler\000"
 7493      655F4761 
ARM GAS  C:\Users\Zachary\AppData\Local\Temp\ccmvMQUz.s 			page 203


 7493      7474436F 
 7493      6E6E6563 
 7493      74526571 
 7494              	.LASF499:
 7495 1e4c 4359424C 		.ascii	"CYBLE_SCDI_GATT_SERVICE_CHANGED\000"
 7495      455F5343 
 7495      44495F47 
 7495      4154545F 
 7495      53455256 
 7496              	.LASF142:
 7497 1e6c 4359424C 		.ascii	"CYBLE_GAP_AUTH_ERROR_INSUFFICIENT_ENCRYPTION_KEY_SI"
 7497      455F4741 
 7497      505F4155 
 7497      54485F45 
 7497      52524F52 
 7498 1e9f 5A4500   		.ascii	"ZE\000"
 7499              	.LASF402:
 7500 1ea2 4359424C 		.ascii	"CYBLE_EVT_HTSC_NOTIFICATION\000"
 7500      455F4556 
 7500      545F4854 
 7500      53435F4E 
 7500      4F544946 
 7501              	.LASF6:
 7502 1ebe 6C6F6E67 		.ascii	"long long int\000"
 7502      206C6F6E 
 7502      6720696E 
 7502      7400
 7503              	.LASF507:
 7504 1ecc 4379426C 		.ascii	"CyBle_GattDisconnectEventHandler\000"
 7504      655F4761 
 7504      74744469 
 7504      73636F6E 
 7504      6E656374 
 7505              	.LASF456:
 7506 1eed 4359424C 		.ascii	"CYBLE_EVT_TPSC_READ_CHAR_RESPONSE\000"
 7506      455F4556 
 7506      545F5450 
 7506      53435F52 
 7506      4541445F 
 7507              	.LASF288:
 7508 1f0f 4359424C 		.ascii	"CYBLE_EVT_GATTC_CHAR_DUPLICATION\000"
 7508      455F4556 
 7508      545F4741 
 7508      5454435F 
 7508      43484152 
 7509              	.LASF367:
 7510 1f30 4359424C 		.ascii	"CYBLE_EVT_GLSS_NOTIFICATION_ENABLED\000"
 7510      455F4556 
 7510      545F474C 
 7510      53535F4E 
 7510      4F544946 
 7511              	.LASF509:
 7512 1f54 73666C61 		.ascii	"sflashDeviceAddress\000"
 7512      73684465 
 7512      76696365 
 7512      41646472 
 7512      65737300 
ARM GAS  C:\Users\Zachary\AppData\Local\Temp\ccmvMQUz.s 			page 204


 7513              	.LASF550:
 7514 1f68 6379426C 		.ascii	"cyBle_clientState\000"
 7514      655F636C 
 7514      69656E74 
 7514      53746174 
 7514      6500
 7515              	.LASF199:
 7516 1f7a 4359424C 		.ascii	"CYBLE_GATT_ERR_PREPARE_WRITE_QUEUE_FULL\000"
 7516      455F4741 
 7516      54545F45 
 7516      52525F50 
 7516      52455041 
 7517              	.LASF85:
 7518 1fa2 4359424C 		.ascii	"CYBLE_ERROR_L2CAP_PSM_NOT_REGISTERED\000"
 7518      455F4552 
 7518      524F525F 
 7518      4C324341 
 7518      505F5053 
 7519              	.LASF75:
 7520 1fc7 4359424C 		.ascii	"CYBLE_ERROR_OOB_NOT_AVAILABLE\000"
 7520      455F4552 
 7520      524F525F 
 7520      4F4F425F 
 7520      4E4F545F 
 7521              	.LASF318:
 7522 1fe5 4359424C 		.ascii	"CYBLE_EVT_CGMSS_INDICATION_ENABLED\000"
 7522      455F4556 
 7522      545F4347 
 7522      4D53535F 
 7522      494E4449 
 7523              	.LASF13:
 7524 2008 646F7562 		.ascii	"double\000"
 7524      6C6500
 7525              	.LASF90:
 7526 200f 4359424C 		.ascii	"CYBLE_ERROR_DEVICE_ALREADY_EXISTS\000"
 7526      455F4552 
 7526      524F525F 
 7526      44455649 
 7526      43455F41 
 7527              	.LASF68:
 7528 2031 4359424C 		.ascii	"CYBLE_EVT_PENDING_FLASH_WRITE\000"
 7528      455F4556 
 7528      545F5045 
 7528      4E44494E 
 7528      475F464C 
 7529              	.LASF202:
 7530 204f 4359424C 		.ascii	"CYBLE_GATT_ERR_INSUFFICIENT_ENC_KEY_SIZE\000"
 7530      455F4741 
 7530      54545F45 
 7530      52525F49 
 7530      4E535546 
 7531              	.LASF110:
 7532 2078 4359424C 		.ascii	"CYBLE_LL_PWR_LVL_MAX\000"
 7532      455F4C4C 
 7532      5F505752 
 7532      5F4C564C 
 7532      5F4D4158 
ARM GAS  C:\Users\Zachary\AppData\Local\Temp\ccmvMQUz.s 			page 205


 7533              	.LASF489:
 7534 208d 64657669 		.ascii	"deviceNameCharHandle\000"
 7534      63654E61 
 7534      6D654368 
 7534      61724861 
 7534      6E646C65 
 7535              	.LASF238:
 7536 20a2 6F70436F 		.ascii	"opCode\000"
 7536      646500
 7537              	.LASF216:
 7538 20a9 4359424C 		.ascii	"CYBLE_GATT_ERR_PROCEDURE_ALREADY_IN_PROGRESS\000"
 7538      455F4741 
 7538      54545F45 
 7538      52525F50 
 7538      524F4345 
 7539              	.LASF423:
 7540 20d6 4359424C 		.ascii	"CYBLE_EVT_LNSC_WRITE_DESCR_RESPONSE\000"
 7540      455F4556 
 7540      545F4C4E 
 7540      53435F57 
 7540      52495445 
 7541              	.LASF410:
 7542 20fa 4359424C 		.ascii	"CYBLE_EVT_LLSC_READ_CHAR_RESPONSE\000"
 7542      455F4556 
 7542      545F4C4C 
 7542      53435F52 
 7542      4541445F 
 7543              	.LASF349:
 7544 211c 4359424C 		.ascii	"CYBLE_EVT_CSCSS_INDICATION_CONFIRMATION\000"
 7544      455F4556 
 7544      545F4353 
 7544      4353535F 
 7544      494E4449 
 7545              	.LASF87:
 7546 2144 4359424C 		.ascii	"CYBLE_ERROR_L2CAP_CHANNEL_NOT_FOUND\000"
 7546      455F4552 
 7546      524F525F 
 7546      4C324341 
 7546      505F4348 
 7547              	.LASF78:
 7548 2168 4359424C 		.ascii	"CYBLE_ERROR_REPEATED_ATTEMPTS\000"
 7548      455F4552 
 7548      524F525F 
 7548      52455045 
 7548      41544544 
 7549              	.LASF354:
 7550 2186 4359424C 		.ascii	"CYBLE_EVT_CSCSC_WRITE_CHAR_RESPONSE\000"
 7550      455F4556 
 7550      545F4353 
 7550      4353435F 
 7550      57524954 
 7551              	.LASF12:
 7552 21aa 666C6F61 		.ascii	"float\000"
 7552      7400
 7553              	.LASF450:
 7554 21b0 4359424C 		.ascii	"CYBLE_EVT_SCPSC_NOTIFICATION\000"
 7554      455F4556 
ARM GAS  C:\Users\Zachary\AppData\Local\Temp\ccmvMQUz.s 			page 206


 7554      545F5343 
 7554      5053435F 
 7554      4E4F5449 
 7555              	.LASF379:
 7556 21cd 4359424C 		.ascii	"CYBLE_EVT_HIDSS_REPORT_MODE_ENTER\000"
 7556      455F4556 
 7556      545F4849 
 7556      4453535F 
 7556      5245504F 
 7557              	.LASF91:
 7558 21ef 4359424C 		.ascii	"CYBLE_ERROR_FLASH_WRITE_NOT_PERMITED\000"
 7558      455F4552 
 7558      524F525F 
 7558      464C4153 
 7558      485F5752 
 7559              	.LASF377:
 7560 2214 4359424C 		.ascii	"CYBLE_EVT_HIDSS_NOTIFICATION_DISABLED\000"
 7560      455F4556 
 7560      545F4849 
 7560      4453535F 
 7560      4E4F5449 
 7561              	.LASF198:
 7562 223a 4359424C 		.ascii	"CYBLE_GATT_ERR_INSUFFICIENT_AUTHORIZATION\000"
 7562      455F4741 
 7562      54545F45 
 7562      52525F49 
 7562      4E535546 
 7563              	.LASF231:
 7564 2264 61747472 		.ascii	"attrHandle\000"
 7564      48616E64 
 7564      6C6500
 7565              	.LASF466:
 7566 226f 4359424C 		.ascii	"CYBLE_EVT_UDSC_NOTIFICATION\000"
 7566      455F4556 
 7566      545F5544 
 7566      53435F4E 
 7566      4F544946 
 7567              	.LASF151:
 7568 228b 626F6E64 		.ascii	"bonding\000"
 7568      696E6700 
 7569              	.LASF261:
 7570 2293 75756964 		.ascii	"uuid\000"
 7570      00
 7571              	.LASF8:
 7572 2298 756E7369 		.ascii	"unsigned int\000"
 7572      676E6564 
 7572      20696E74 
 7572      00
 7573              	.LASF50:
 7574 22a5 4359424C 		.ascii	"CYBLE_EVT_GATTS_PREP_WRITE_REQ\000"
 7574      455F4556 
 7574      545F4741 
 7574      5454535F 
 7574      50524550 
 7575              	.LASF195:
 7576 22c4 4359424C 		.ascii	"CYBLE_GATT_ERR_INSUFFICIENT_AUTHENTICATION\000"
 7576      455F4741 
ARM GAS  C:\Users\Zachary\AppData\Local\Temp\ccmvMQUz.s 			page 207


 7576      54545F45 
 7576      52525F49 
 7576      4E535546 
 7577              	.LASF358:
 7578 22ef 4359424C 		.ascii	"CYBLE_EVT_CTSS_NOTIFICATION_DISABLED\000"
 7578      455F4556 
 7578      545F4354 
 7578      53535F4E 
 7578      4F544946 
 7579              	.LASF237:
 7580 2314 4359424C 		.ascii	"CYBLE_GATT_XCHG_MTU_PARAM_T\000"
 7580      455F4741 
 7580      54545F58 
 7580      4348475F 
 7580      4D54555F 
 7581              	.LASF309:
 7582 2330 4359424C 		.ascii	"CYBLE_EVT_BLSS_INDICATION_DISABLED\000"
 7582      455F4556 
 7582      545F424C 
 7582      53535F49 
 7582      4E444943 
 7583              	.LASF113:
 7584 2353 4359424C 		.ascii	"CYBLE_LL_CONN_CH_TYPE\000"
 7584      455F4C4C 
 7584      5F434F4E 
 7584      4E5F4348 
 7584      5F545950 
 7585              	.LASF448:
 7586 2369 4359424C 		.ascii	"CYBLE_EVT_SCPSS_NOTIFICATION_DISABLED\000"
 7586      455F4556 
 7586      545F5343 
 7586      5053535F 
 7586      4E4F5449 
 7587              	.LASF554:
 7588 238f 474E5520 		.ascii	"GNU C 4.8.4 20140526 (release) [ARM/embedded-4_8-br"
 7588      4320342E 
 7588      382E3420 
 7588      32303134 
 7588      30353236 
 7589 23c2 616E6368 		.ascii	"anch revision 211358] -mcpu=cortex-m0 -mthumb -g -O"
 7589      20726576 
 7589      6973696F 
 7589      6E203231 
 7589      31333538 
 7590 23f5 30202D66 		.ascii	"0 -ffunction-sections\000"
 7590      66756E63 
 7590      74696F6E 
 7590      2D736563 
 7590      74696F6E 
 7591              	.LASF522:
 7592 240b 666C6167 		.ascii	"flag\000"
 7592      00
 7593              	.LASF262:
 7594 2410 4359424C 		.ascii	"CYBLE_DISC_SRVC_INFO_T\000"
 7594      455F4449 
 7594      53435F53 
 7594      5256435F 
ARM GAS  C:\Users\Zachary\AppData\Local\Temp\ccmvMQUz.s 			page 208


 7594      494E464F 
 7595              	.LASF212:
 7596 2427 4359424C 		.ascii	"CYBLE_GATTS_ERR_PROCEDURE_ALREADY_IN_PROGRESS\000"
 7596      455F4741 
 7596      5454535F 
 7596      4552525F 
 7596      50524F43 
 7597              	.LASF529:
 7598 2455 4379426C 		.ascii	"CyBle_NextInclDiscovery\000"
 7598      655F4E65 
 7598      7874496E 
 7598      636C4469 
 7598      73636F76 
 7599              	.LASF276:
 7600 246d 4359424C 		.ascii	"CYBLE_AUTHENTICATION_REQUEST_REPLY\000"
 7600      455F4155 
 7600      5448454E 
 7600      54494341 
 7600      54494F4E 
 7601              	.LASF83:
 7602 2490 4359424C 		.ascii	"CYBLE_ERROR_L2CAP_PSM_WRONG_ENCODING\000"
 7602      455F4552 
 7602      524F525F 
 7602      4C324341 
 7602      505F5053 
 7603              	.LASF181:
 7604 24b5 4359424C 		.ascii	"CYBLE_GATT_PREPARE_WRITE_RSP\000"
 7604      455F4741 
 7604      54545F50 
 7604      52455041 
 7604      52455F57 
 7605              	.LASF312:
 7606 24d2 4359424C 		.ascii	"CYBLE_EVT_BLSS_NOTIFICATION_DISABLED\000"
 7606      455F4556 
 7606      545F424C 
 7606      53535F4E 
 7606      4F544946 
 7607              	.LASF200:
 7608 24f7 4359424C 		.ascii	"CYBLE_GATT_ERR_ATTRIBUTE_NOT_FOUND\000"
 7608      455F4741 
 7608      54545F45 
 7608      52525F41 
 7608      54545249 
 7609              	.LASF405:
 7610 251a 4359424C 		.ascii	"CYBLE_EVT_HTSC_WRITE_CHAR_RESPONSE\000"
 7610      455F4556 
 7610      545F4854 
 7610      53435F57 
 7610      52495445 
 7611              	.LASF553:
 7612 253d 6379426C 		.ascii	"cyBle_serverInfo\000"
 7612      655F7365 
 7612      72766572 
 7612      496E666F 
 7612      00
 7613              	.LASF253:
 7614 254e 6C697374 		.ascii	"list\000"
ARM GAS  C:\Users\Zachary\AppData\Local\Temp\ccmvMQUz.s 			page 209


 7614      00
 7615              	.LASF544:
 7616 2553 6379426C 		.ascii	"cyBle_connectingTimeout\000"
 7616      655F636F 
 7616      6E6E6563 
 7616      74696E67 
 7616      54696D65 
 7617              	.LASF69:
 7618 256b 4359424C 		.ascii	"CYBLE_EVT_MAX\000"
 7618      455F4556 
 7618      545F4D41 
 7618      5800
 7619              	.LASF33:
 7620 2579 4359424C 		.ascii	"CYBLE_EVT_GAPC_SCAN_START_STOP\000"
 7620      455F4556 
 7620      545F4741 
 7620      50435F53 
 7620      43414E5F 
 7621              	.LASF531:
 7622 2598 4379426C 		.ascii	"CyBle_IsDeviceAddressValid\000"
 7622      655F4973 
 7622      44657669 
 7622      63654164 
 7622      64726573 
 7623              	.LASF294:
 7624 25b3 4359424C 		.ascii	"CYBLE_EVT_ANSS_NOTIFICATION_ENABLED\000"
 7624      455F4556 
 7624      545F414E 
 7624      53535F4E 
 7624      4F544946 
 7625              	.LASF485:
 7626 25d7 4359424C 		.ascii	"CYBLE_CLIENT_STATE_DISCONNECTING\000"
 7626      455F434C 
 7626      49454E54 
 7626      5F535441 
 7626      54455F44 
 7627              	.LASF149:
 7628 25f8 4359424C 		.ascii	"CYBLE_GAP_AUTH_FAILED_REASON_T\000"
 7628      455F4741 
 7628      505F4155 
 7628      54485F46 
 7628      41494C45 
 7629              	.LASF47:
 7630 2617 4359424C 		.ascii	"CYBLE_EVT_GATTS_WRITE_REQ\000"
 7630      455F4556 
 7630      545F4741 
 7630      5454535F 
 7630      57524954 
 7631              	.LASF468:
 7632 2631 4359424C 		.ascii	"CYBLE_EVT_UDSC_WRITE_CHAR_RESPONSE\000"
 7632      455F4556 
 7632      545F5544 
 7632      53435F57 
 7632      52495445 
 7633              	.LASF493:
 7634 2654 70726566 		.ascii	"prefConnParamCharHandle\000"
 7634      436F6E6E 
ARM GAS  C:\Users\Zachary\AppData\Local\Temp\ccmvMQUz.s 			page 210


 7634      50617261 
 7634      6D436861 
 7634      7248616E 
 7635              	.LASF25:
 7636 266c 4359424C 		.ascii	"CYBLE_EVT_GAP_PASSKEY_DISPLAY_REQUEST\000"
 7636      455F4556 
 7636      545F4741 
 7636      505F5041 
 7636      53534B45 
 7637              	.LASF98:
 7638 2692 4359424C 		.ascii	"CYBLE_ERROR_IND_DISABLED\000"
 7638      455F4552 
 7638      524F525F 
 7638      494E445F 
 7638      44495341 
 7639              	.LASF97:
 7640 26ab 4359424C 		.ascii	"CYBLE_ERROR_NTF_DISABLED\000"
 7640      455F4552 
 7640      524F525F 
 7640      4E54465F 
 7640      44495341 
 7641              	.LASF173:
 7642 26c4 4359424C 		.ascii	"CYBLE_GATT_READ_MULTIPLE_REQ\000"
 7642      455F4741 
 7642      54545F52 
 7642      4541445F 
 7642      4D554C54 
 7643              	.LASF44:
 7644 26e1 4359424C 		.ascii	"CYBLE_EVT_GATTC_READ_RSP\000"
 7644      455F4556 
 7644      545F4741 
 7644      5454435F 
 7644      52454144 
 7645              	.LASF339:
 7646 26fa 4359424C 		.ascii	"CYBLE_EVT_CPSC_INDICATION\000"
 7646      455F4556 
 7646      545F4350 
 7646      53435F49 
 7646      4E444943 
 7647              	.LASF197:
 7648 2714 4359424C 		.ascii	"CYBLE_GATT_ERR_INVALID_OFFSET\000"
 7648      455F4741 
 7648      54545F45 
 7648      52525F49 
 7648      4E56414C 
 7649              	.LASF167:
 7650 2732 4359424C 		.ascii	"CYBLE_GATT_READ_BY_TYPE_REQ\000"
 7650      455F4741 
 7650      54545F52 
 7650      4541445F 
 7650      42595F54 
 7651              	.LASF61:
 7652 274e 4359424C 		.ascii	"CYBLE_EVT_L2CAP_CBFC_CONN_CNF\000"
 7652      455F4556 
 7652      545F4C32 
 7652      4341505F 
 7652      43424643 
ARM GAS  C:\Users\Zachary\AppData\Local\Temp\ccmvMQUz.s 			page 211


 7653              	.LASF406:
 7654 276c 4359424C 		.ascii	"CYBLE_EVT_HTSC_READ_DESCR_RESPONSE\000"
 7654      455F4556 
 7654      545F4854 
 7654      53435F52 
 7654      4541445F 
 7655              	.LASF471:
 7656 278f 4359424C 		.ascii	"CYBLE_DEBUG_EVT_BLESS_INT\000"
 7656      455F4445 
 7656      4255475F 
 7656      4556545F 
 7656      424C4553 
 7657              	.LASF217:
 7658 27a9 4359424C 		.ascii	"CYBLE_GATT_ERR_OUT_OF_RANGE\000"
 7658      455F4741 
 7658      54545F45 
 7658      52525F4F 
 7658      55545F4F 
 7659              	.LASF369:
 7660 27c5 4359424C 		.ascii	"CYBLE_EVT_GLSS_WRITE_CHAR\000"
 7660      455F4556 
 7660      545F474C 
 7660      53535F57 
 7660      52495445 
 7661              	.LASF269:
 7662 27df 4359424C 		.ascii	"CYBLE_DISC_CHAR_INFO_T\000"
 7662      455F4449 
 7662      53435F43 
 7662      4841525F 
 7662      494E464F 
 7663              	.LASF165:
 7664 27f6 4359424C 		.ascii	"CYBLE_GATT_FIND_BY_TYPE_VALUE_REQ\000"
 7664      455F4741 
 7664      54545F46 
 7664      494E445F 
 7664      42595F54 
 7665              	.LASF488:
 7666 2818 4359424C 		.ascii	"CYBLE_CLIENT_STATE_T\000"
 7666      455F434C 
 7666      49454E54 
 7666      5F535441 
 7666      54455F54 
 7667              	.LASF104:
 7668 282d 4359424C 		.ascii	"CYBLE_LL_PWR_LVL_NEG_6_DBM\000"
 7668      455F4C4C 
 7668      5F505752 
 7668      5F4C564C 
 7668      5F4E4547 
 7669              	.LASF258:
 7670 2848 4359424C 		.ascii	"CYBLE_GATTC_FIND_INFO_RSP_PARAM_T\000"
 7670      455F4741 
 7670      5454435F 
 7670      46494E44 
 7670      5F494E46 
 7671              	.LASF391:
 7672 286a 4359424C 		.ascii	"CYBLE_EVT_HRSC_NOTIFICATION\000"
 7672      455F4556 
ARM GAS  C:\Users\Zachary\AppData\Local\Temp\ccmvMQUz.s 			page 212


 7672      545F4852 
 7672      53435F4E 
 7672      4F544946 
 7673              	.LASF437:
 7674 2886 4359424C 		.ascii	"CYBLE_EVT_RSCSS_INDICATION_CONFIRMATION\000"
 7674      455F4556 
 7674      545F5253 
 7674      4353535F 
 7674      494E4449 
 7675              	.LASF490:
 7676 28ae 61707065 		.ascii	"appearanceCharHandle\000"
 7676      6172616E 
 7676      63654368 
 7676      61724861 
 7676      6E646C65 
 7677              	.LASF386:
 7678 28c3 4359424C 		.ascii	"CYBLE_EVT_HIDSC_READ_DESCR_RESPONSE\000"
 7678      455F4556 
 7678      545F4849 
 7678      4453435F 
 7678      52454144 
 7679              	.LASF392:
 7680 28e7 4359424C 		.ascii	"CYBLE_EVT_HRSC_READ_CHAR_RESPONSE\000"
 7680      455F4556 
 7680      545F4852 
 7680      53435F52 
 7680      4541445F 
 7681              	.LASF136:
 7682 2909 4359424C 		.ascii	"CYBLE_GAP_AUTH_ERROR_NONE\000"
 7682      455F4741 
 7682      505F4155 
 7682      54485F45 
 7682      52524F52 
 7683              	.LASF31:
 7684 2923 4359424C 		.ascii	"CYBLE_EVT_GAP_ENCRYPT_CHANGE\000"
 7684      455F4556 
 7684      545F4741 
 7684      505F454E 
 7684      43525950 
 7685              	.LASF223:
 7686 2940 75756964 		.ascii	"uuid128\000"
 7686      31323800 
 7687              	.LASF424:
 7688 2948 4359424C 		.ascii	"CYBLE_EVT_NDCSC_READ_CHAR_RESPONSE\000"
 7688      455F4556 
 7688      545F4E44 
 7688      4353435F 
 7688      52454144 
 7689              	.LASF289:
 7690 296b 4359424C 		.ascii	"CYBLE_EVT_GATTC_DESCR_DUPLICATION\000"
 7690      455F4556 
 7690      545F4741 
 7690      5454435F 
 7690      44455343 
 7691              	.LASF38:
 7692 298d 4359424C 		.ascii	"CYBLE_EVT_GATTS_XCNHG_MTU_REQ\000"
 7692      455F4556 
ARM GAS  C:\Users\Zachary\AppData\Local\Temp\ccmvMQUz.s 			page 213


 7692      545F4741 
 7692      5454535F 
 7692      58434E48 
 7693              	.LASF462:
 7694 29ab 4359424C 		.ascii	"CYBLE_EVT_UDSS_NOTIFICATION_ENABLED\000"
 7694      455F4556 
 7694      545F5544 
 7694      53535F4E 
 7694      4F544946 
 7695              	.LASF164:
 7696 29cf 4359424C 		.ascii	"CYBLE_GATT_FIND_INFO_RSP\000"
 7696      455F4741 
 7696      54545F46 
 7696      494E445F 
 7696      494E464F 
 7697              	.LASF138:
 7698 29e8 4359424C 		.ascii	"CYBLE_GAP_AUTH_ERROR_OOB_DATA_NOT_AVAILABLE\000"
 7698      455F4741 
 7698      505F4155 
 7698      54485F45 
 7698      52524F52 
 7699              	.LASF414:
 7700 2a14 4359424C 		.ascii	"CYBLE_EVT_LNSS_INDICATION_CONFIRMED\000"
 7700      455F4556 
 7700      545F4C4E 
 7700      53535F49 
 7700      4E444943 
 7701              	.LASF301:
 7702 2a38 4359424C 		.ascii	"CYBLE_EVT_ANSC_WRITE_DESCR_RESPONSE\000"
 7702      455F4556 
 7702      545F414E 
 7702      53435F57 
 7702      52495445 
 7703              	.LASF420:
 7704 2a5c 4359424C 		.ascii	"CYBLE_EVT_LNSC_READ_CHAR_RESPONSE\000"
 7704      455F4556 
 7704      545F4C4E 
 7704      53435F52 
 7704      4541445F 
 7705              	.LASF366:
 7706 2a7e 4359424C 		.ascii	"CYBLE_EVT_GLSS_INDICATION_CONFIRMED\000"
 7706      455F4556 
 7706      545F474C 
 7706      53535F49 
 7706      4E444943 
 7707              	.LASF159:
 7708 2aa2 4359424C 		.ascii	"CYBLE_GAP_CONN_PARAM_UPDATED_IN_CONTROLLER_T\000"
 7708      455F4741 
 7708      505F434F 
 7708      4E4E5F50 
 7708      4152414D 
 7709              	.LASF280:
 7710 2acf 4359424C 		.ascii	"CYBLE_EVT_GATTS_INDICATION_ENABLED\000"
 7710      455F4556 
 7710      545F4741 
 7710      5454535F 
 7710      494E4449 
ARM GAS  C:\Users\Zachary\AppData\Local\Temp\ccmvMQUz.s 			page 214


 7711              	.LASF7:
 7712 2af2 6C6F6E67 		.ascii	"long long unsigned int\000"
 7712      206C6F6E 
 7712      6720756E 
 7712      7369676E 
 7712      65642069 
 7713              	.LASF191:
 7714 2b09 4359424C 		.ascii	"CYBLE_GATT_ERR_INVALID_HANDLE\000"
 7714      455F4741 
 7714      54545F45 
 7714      52525F49 
 7714      4E56414C 
 7715              	.LASF18:
 7716 2b27 4359424C 		.ascii	"CYBLE_EVT_TIMEOUT\000"
 7716      455F4556 
 7716      545F5449 
 7716      4D454F55 
 7716      5400
 7717              	.LASF361:
 7718 2b39 4359424C 		.ascii	"CYBLE_EVT_CTSC_READ_DESCR_RESPONSE\000"
 7718      455F4556 
 7718      545F4354 
 7718      53435F52 
 7718      4541445F 
 7719              	.LASF247:
 7720 2b5c 6C656E67 		.ascii	"length\000"
 7720      746800
 7721              	.LASF266:
 7722 2b63 63686172 		.ascii	"charDeclHandle\000"
 7722      4465636C 
 7722      48616E64 
 7722      6C6500
 7723              	.LASF510:
 7724 2b72 73666C61 		.ascii	"sflashAddressValid\000"
 7724      73684164 
 7724      64726573 
 7724      7356616C 
 7724      696400
 7725              	.LASF188:
 7726 2b85 4359424C 		.ascii	"CYBLE_GATT_UNKNOWN_PDU_IND\000"
 7726      455F4741 
 7726      54545F55 
 7726      4E4B4E4F 
 7726      574E5F50 
 7727              	.LASF256:
 7728 2ba0 68616E64 		.ascii	"handleValueList\000"
 7728      6C655661 
 7728      6C75654C 
 7728      69737400 
 7729              	.LASF100:
 7730 2bb0 4359424C 		.ascii	"CYBLE_ERROR_INVALID_STATE\000"
 7730      455F4552 
 7730      524F525F 
 7730      494E5641 
 7730      4C49445F 
 7731              	.LASF225:
 7732 2bca 4359424C 		.ascii	"CYBLE_GATT_DB_ATTR_HANDLE_T\000"
ARM GAS  C:\Users\Zachary\AppData\Local\Temp\ccmvMQUz.s 			page 215


 7732      455F4741 
 7732      54545F44 
 7732      425F4154 
 7732      54525F48 
 7733              	.LASF515:
 7734 2be6 626C6553 		.ascii	"bleSsPowerLevel\000"
 7734      73506F77 
 7734      65724C65 
 7734      76656C00 
 7735              	.LASF64:
 7736 2bf6 4359424C 		.ascii	"CYBLE_EVT_L2CAP_CBFC_DATA_READ\000"
 7736      455F4556 
 7736      545F4C32 
 7736      4341505F 
 7736      43424643 
 7737              	.LASF190:
 7738 2c15 4359424C 		.ascii	"CYBLE_GATT_ERR_NONE\000"
 7738      455F4741 
 7738      54545F45 
 7738      52525F4E 
 7738      4F4E4500 
 7739              	.LASF220:
 7740 2c29 76616C75 		.ascii	"value\000"
 7740      6500
 7741              	.LASF338:
 7742 2c2f 4359424C 		.ascii	"CYBLE_EVT_CPSC_NOTIFICATION\000"
 7742      455F4556 
 7742      545F4350 
 7742      53435F4E 
 7742      4F544946 
 7743              	.LASF317:
 7744 2c4b 4359424C 		.ascii	"CYBLE_EVT_BLSC_WRITE_DESCR_RESPONSE\000"
 7744      455F4556 
 7744      545F424C 
 7744      53435F57 
 7744      52495445 
 7745              	.LASF245:
 7746 2c6f 4359424C 		.ascii	"CYBLE_GATTC_HANDLE_VALUE_IND_PARAM_T\000"
 7746      455F4741 
 7746      5454435F 
 7746      48414E44 
 7746      4C455F56 
 7747              	.LASF419:
 7748 2c94 4359424C 		.ascii	"CYBLE_EVT_LNSC_NOTIFICATION\000"
 7748      455F4556 
 7748      545F4C4E 
 7748      53435F4E 
 7748      4F544946 
 7749              	.LASF222:
 7750 2cb0 75756964 		.ascii	"uuid16\000"
 7750      313600
 7751              	.LASF537:
 7752 2cb7 4379426C 		.ascii	"CyBle_ErrorResponseEventHandler\000"
 7752      655F4572 
 7752      726F7252 
 7752      6573706F 
 7752      6E736545 
ARM GAS  C:\Users\Zachary\AppData\Local\Temp\ccmvMQUz.s 			page 216


 7753              	.LASF539:
 7754 2cd7 4379426C 		.ascii	"CyBle_ApplCallback\000"
 7754      655F4170 
 7754      706C4361 
 7754      6C6C6261 
 7754      636B00
 7755              	.LASF359:
 7756 2cea 4359424C 		.ascii	"CYBLE_EVT_CTSC_NOTIFICATION\000"
 7756      455F4556 
 7756      545F4354 
 7756      53435F4E 
 7756      4F544946 
 7757              	.LASF240:
 7758 2d06 4359424C 		.ascii	"CYBLE_GATTC_ERR_RSP_PARAM_T\000"
 7758      455F4741 
 7758      5454435F 
 7758      4552525F 
 7758      5253505F 
 7759              	.LASF218:
 7760 2d22 4359424C 		.ascii	"CYBLE_GATT_ERR_CODE_T\000"
 7760      455F4741 
 7760      54545F45 
 7760      52525F43 
 7760      4F44455F 
 7761              	.LASF365:
 7762 2d38 4359424C 		.ascii	"CYBLE_EVT_GLSS_INDICATION_DISABLED\000"
 7762      455F4556 
 7762      545F474C 
 7762      53535F49 
 7762      4E444943 
 7763              	.LASF123:
 7764 2d5b 4359424C 		.ascii	"CYBLE_GAP_SCAN_TO\000"
 7764      455F4741 
 7764      505F5343 
 7764      414E5F54 
 7764      4F00
 7765              	.LASF211:
 7766 2d6d 4359424C 		.ascii	"CYBLE_GATT_ERR_HTS_OUT_OF_RANGE\000"
 7766      455F4741 
 7766      54545F45 
 7766      52525F48 
 7766      54535F4F 
 7767              	.LASF287:
 7768 2d8d 4359424C 		.ascii	"CYBLE_EVT_GATTC_SRVC_DUPLICATION\000"
 7768      455F4556 
 7768      545F4741 
 7768      5454435F 
 7768      53525643 
 7769              	.LASF479:
 7770 2dae 4359424C 		.ascii	"CYBLE_CLIENT_STATE_CONNECTED\000"
 7770      455F434C 
 7770      49454E54 
 7770      5F535441 
 7770      54455F43 
 7771              	.LASF412:
 7772 2dcb 4359424C 		.ascii	"CYBLE_EVT_LNSS_INDICATION_ENABLED\000"
 7772      455F4556 
ARM GAS  C:\Users\Zachary\AppData\Local\Temp\ccmvMQUz.s 			page 217


 7772      545F4C4E 
 7772      53535F49 
 7772      4E444943 
 7773              	.LASF121:
 7774 2ded 4359424C 		.ascii	"CYBLE_GAP_BD_ADDR_T\000"
 7774      455F4741 
 7774      505F4244 
 7774      5F414444 
 7774      525F5400 
 7775              	.LASF171:
 7776 2e01 4359424C 		.ascii	"CYBLE_GATT_READ_BLOB_REQ\000"
 7776      455F4741 
 7776      54545F52 
 7776      4541445F 
 7776      424C4F42 
 7777              	.LASF122:
 7778 2e1a 4359424C 		.ascii	"CYBLE_GAP_ADV_MODE_TO\000"
 7778      455F4741 
 7778      505F4144 
 7778      565F4D4F 
 7778      44455F54 
 7779              	.LASF425:
 7780 2e30 4359424C 		.ascii	"CYBLE_EVT_PASSS_NOTIFICATION_ENABLED\000"
 7780      455F4556 
 7780      545F5041 
 7780      5353535F 
 7780      4E4F5449 
 7781              	.LASF243:
 7782 2e55 68616E64 		.ascii	"handleValPair\000"
 7782      6C655661 
 7782      6C506169 
 7782      7200
 7783              	.LASF356:
 7784 2e63 4359424C 		.ascii	"CYBLE_EVT_CSCSC_WRITE_DESCR_RESPONSE\000"
 7784      455F4556 
 7784      545F4353 
 7784      4353435F 
 7784      57524954 
 7785              	.LASF236:
 7786 2e88 636F6E6E 		.ascii	"connHandle\000"
 7786      48616E64 
 7786      6C6500
 7787              	.LASF506:
 7788 2e93 4379426C 		.ascii	"CyBle_TimeOutEventHandler\000"
 7788      655F5469 
 7788      6D654F75 
 7788      74457665 
 7788      6E744861 
 7789              	.LASF267:
 7790 2ead 70726F70 		.ascii	"properties\000"
 7790      65727469 
 7790      657300
 7791              	.LASF303:
 7792 2eb8 4359424C 		.ascii	"CYBLE_EVT_BASS_NOTIFICATION_DISABLED\000"
 7792      455F4556 
 7792      545F4241 
 7792      53535F4E 
ARM GAS  C:\Users\Zachary\AppData\Local\Temp\ccmvMQUz.s 			page 218


 7792      4F544946 
 7793              	.LASF330:
 7794 2edd 4359424C 		.ascii	"CYBLE_EVT_CPSS_NOTIFICATION_ENABLED\000"
 7794      455F4556 
 7794      545F4350 
 7794      53535F4E 
 7794      4F544946 
 7795              	.LASF141:
 7796 2f01 4359424C 		.ascii	"CYBLE_GAP_AUTH_ERROR_PAIRING_NOT_SUPPORTED\000"
 7796      455F4741 
 7796      505F4155 
 7796      54485F45 
 7796      52524F52 
 7797              	.LASF457:
 7798 2f2c 4359424C 		.ascii	"CYBLE_EVT_TPSC_READ_DESCR_RESPONSE\000"
 7798      455F4556 
 7798      545F5450 
 7798      53435F52 
 7798      4541445F 
 7799              	.LASF125:
 7800 2f4f 4359424C 		.ascii	"CYBLE_GENERIC_TO\000"
 7800      455F4745 
 7800      4E455249 
 7800      435F544F 
 7800      00
 7801              	.LASF484:
 7802 2f60 4359424C 		.ascii	"CYBLE_CLIENT_STATE_DISCOVERED\000"
 7802      455F434C 
 7802      49454E54 
 7802      5F535441 
 7802      54455F44 
 7803              	.LASF495:
 7804 2f7e 4359424C 		.ascii	"CYBLE_SRVI_GAP\000"
 7804      455F5352 
 7804      56495F47 
 7804      415000
 7805              	.LASF42:
 7806 2f8d 4359424C 		.ascii	"CYBLE_EVT_GATTC_FIND_INFO_RSP\000"
 7806      455F4556 
 7806      545F4741 
 7806      5454435F 
 7806      46494E44 
 7807              	.LASF41:
 7808 2fab 4359424C 		.ascii	"CYBLE_EVT_GATTC_READ_BY_TYPE_RSP\000"
 7808      455F4556 
 7808      545F4741 
 7808      5454435F 
 7808      52454144 
 7809              	.LASF426:
 7810 2fcc 4359424C 		.ascii	"CYBLE_EVT_PASSS_NOTIFICATION_DISABLED\000"
 7810      455F4556 
 7810      545F5041 
 7810      5353535F 
 7810      4E4F5449 
 7811              	.LASF328:
 7812 2ff2 4359424C 		.ascii	"CYBLE_EVT_CGMSC_READ_DESCR_RESPONSE\000"
 7812      455F4556 
ARM GAS  C:\Users\Zachary\AppData\Local\Temp\ccmvMQUz.s 			page 219


 7812      545F4347 
 7812      4D53435F 
 7812      52454144 
 7813              	.LASF384:
 7814 3016 4359424C 		.ascii	"CYBLE_EVT_HIDSC_READ_CHAR_RESPONSE\000"
 7814      455F4556 
 7814      545F4849 
 7814      4453435F 
 7814      52454144 
 7815              	.LASF523:
 7816 3039 61706952 		.ascii	"apiResult\000"
 7816      6573756C 
 7816      7400
 7817              	.LASF520:
 7818 3043 61747472 		.ascii	"attrLength\000"
 7818      4C656E67 
 7818      746800
 7819              	.LASF546:
 7820 304e 6379426C 		.ascii	"cyBle_state\000"
 7820      655F7374 
 7820      61746500 
 7821              	.LASF483:
 7822 305a 4359424C 		.ascii	"CYBLE_CLIENT_STATE_DESCR_DISCOVERING\000"
 7822      455F434C 
 7822      49454E54 
 7822      5F535441 
 7822      54455F44 
 7823              	.LASF454:
 7824 307f 4359424C 		.ascii	"CYBLE_EVT_TPSS_NOTIFICATION_DISABLED\000"
 7824      455F4556 
 7824      545F5450 
 7824      53535F4E 
 7824      4F544946 
 7825              	.LASF451:
 7826 30a4 4359424C 		.ascii	"CYBLE_EVT_SCPSC_READ_DESCR_RESPONSE\000"
 7826      455F4556 
 7826      545F5343 
 7826      5053435F 
 7826      52454144 
 7827              	.LASF395:
 7828 30c8 4359424C 		.ascii	"CYBLE_EVT_HRSC_WRITE_DESCR_RESPONSE\000"
 7828      455F4556 
 7828      545F4852 
 7828      53435F57 
 7828      52495445 
 7829              	.LASF417:
 7830 30ec 4359424C 		.ascii	"CYBLE_EVT_LNSS_WRITE_CHAR\000"
 7830      455F4556 
 7830      545F4C4E 
 7830      53535F57 
 7830      52495445 
 7831              	.LASF48:
 7832 3106 4359424C 		.ascii	"CYBLE_EVT_GATTC_WRITE_RSP\000"
 7832      455F4556 
 7832      545F4741 
 7832      5454435F 
 7832      57524954 
ARM GAS  C:\Users\Zachary\AppData\Local\Temp\ccmvMQUz.s 			page 220


 7833              	.LASF252:
 7834 3120 4359424C 		.ascii	"CYBLE_GATTC_READ_BY_TYPE_RSP_PARAM_T\000"
 7834      455F4741 
 7834      5454435F 
 7834      52454144 
 7834      5F42595F 
 7835              	.LASF477:
 7836 3145 4359424C 		.ascii	"CYBLE_STATE_DISCONNECTED\000"
 7836      455F5354 
 7836      4154455F 
 7836      44495343 
 7836      4F4E4E45 
 7837              	.LASF372:
 7838 315e 4359424C 		.ascii	"CYBLE_EVT_GLSC_READ_CHAR_RESPONSE\000"
 7838      455F4556 
 7838      545F474C 
 7838      53435F52 
 7838      4541445F 
 7839              	.LASF481:
 7840 3180 4359424C 		.ascii	"CYBLE_CLIENT_STATE_INCL_DISCOVERING\000"
 7840      455F434C 
 7840      49454E54 
 7840      5F535441 
 7840      54455F49 
 7841              	.LASF502:
 7842 31a4 4379426C 		.ascii	"CyBle_NotificationEventHandler\000"
 7842      655F4E6F 
 7842      74696669 
 7842      63617469 
 7842      6F6E4576 
 7843              	.LASF501:
 7844 31c3 4379426C 		.ascii	"CyBle_GattcWriteResponseEventHandler\000"
 7844      655F4761 
 7844      74746357 
 7844      72697465 
 7844      52657370 
 7845              	.LASF439:
 7846 31e8 4359424C 		.ascii	"CYBLE_EVT_RSCSC_NOTIFICATION\000"
 7846      455F4556 
 7846      545F5253 
 7846      4353435F 
 7846      4E4F5449 
 7847              	.LASF28:
 7848 3205 4359424C 		.ascii	"CYBLE_EVT_GAPP_ADVERTISEMENT_START_STOP\000"
 7848      455F4556 
 7848      545F4741 
 7848      50505F41 
 7848      44564552 
 7849              	.LASF310:
 7850 322d 4359424C 		.ascii	"CYBLE_EVT_BLSS_INDICATION_CONFIRMED\000"
 7850      455F4556 
 7850      545F424C 
 7850      53535F49 
 7850      4E444943 
 7851              	.LASF530:
 7852 3251 4379426C 		.ascii	"CyBle_NextCharDiscovery\000"
 7852      655F4E65 
ARM GAS  C:\Users\Zachary\AppData\Local\Temp\ccmvMQUz.s 			page 221


 7852      78744368 
 7852      61724469 
 7852      73636F76 
 7853              	.LASF527:
 7854 3269 61747472 		.ascii	"attrVal\000"
 7854      56616C00 
 7855              	.LASF327:
 7856 3271 4359424C 		.ascii	"CYBLE_EVT_CGMSC_WRITE_CHAR_RESPONSE\000"
 7856      455F4556 
 7856      545F4347 
 7856      4D53435F 
 7856      57524954 
 7857              	.LASF9:
 7858 3295 75696E74 		.ascii	"uint8\000"
 7858      3800
 7859              	.LASF404:
 7860 329b 4359424C 		.ascii	"CYBLE_EVT_HTSC_READ_CHAR_RESPONSE\000"
 7860      455F4556 
 7860      545F4854 
 7860      53435F52 
 7860      4541445F 
 7861              	.LASF543:
 7862 32bd 6379426C 		.ascii	"cyBle_authInfo\000"
 7862      655F6175 
 7862      7468496E 
 7862      666F00
 7863              	.LASF150:
 7864 32cc 73656375 		.ascii	"security\000"
 7864      72697479 
 7864      00
 7865              	.LASF432:
 7866 32d5 4359424C 		.ascii	"CYBLE_EVT_PASSC_WRITE_DESCR_RESPONSE\000"
 7866      455F4556 
 7866      545F5041 
 7866      5353435F 
 7866      57524954 
 7867              	.LASF511:
 7868 32fa 4379426C 		.ascii	"CyBle_L2Cap_ConnParamUpdateRspEventHandler\000"
 7868      655F4C32 
 7868      4361705F 
 7868      436F6E6E 
 7868      50617261 
 7869              	.LASF177:
 7870 3325 4359424C 		.ascii	"CYBLE_GATT_WRITE_REQ\000"
 7870      455F4741 
 7870      54545F57 
 7870      52495445 
 7870      5F524551 
 7871              	.LASF2:
 7872 333a 73686F72 		.ascii	"short int\000"
 7872      7420696E 
 7872      7400
 7873              	.LASF153:
 7874 3344 61757468 		.ascii	"authErr\000"
 7874      45727200 
 7875              	.LASF281:
 7876 334c 4359424C 		.ascii	"CYBLE_EVT_GATTS_INDICATION_DISABLED\000"
ARM GAS  C:\Users\Zachary\AppData\Local\Temp\ccmvMQUz.s 			page 222


 7876      455F4556 
 7876      545F4741 
 7876      5454535F 
 7876      494E4449 
 7877              	.LASF260:
 7878 3370 72616E67 		.ascii	"range\000"
 7878      6500
 7879              	.LASF210:
 7880 3376 4359424C 		.ascii	"CYBLE_GATT_ERR_CPS_INAPPROPRIATE_CONNECTION_PARAMET"
 7880      455F4741 
 7880      54545F45 
 7880      52525F43 
 7880      50535F49 
 7881 33a9 45525300 		.ascii	"ERS\000"
 7882              	.LASF325:
 7883 33ad 4359424C 		.ascii	"CYBLE_EVT_CGMSC_NOTIFICATION\000"
 7883      455F4556 
 7883      545F4347 
 7883      4D53435F 
 7883      4E4F5449 
 7884              	.LASF196:
 7885 33ca 4359424C 		.ascii	"CYBLE_GATT_ERR_REQUEST_NOT_SUPPORTED\000"
 7885      455F4741 
 7885      54545F45 
 7885      52525F52 
 7885      45515545 
 7886              	.LASF35:
 7887 33ef 4359424C 		.ascii	"CYBLE_EVT_GATTC_ERROR_RSP\000"
 7887      455F4556 
 7887      545F4741 
 7887      5454435F 
 7887      4552524F 
 7888              	.LASF135:
 7889 3409 4359424C 		.ascii	"CYBLE_GAP_IOCAP_KEYBOARD_DISPLAY\000"
 7889      455F4741 
 7889      505F494F 
 7889      4341505F 
 7889      4B455942 
 7890              	.LASF235:
 7891 342a 4359424C 		.ascii	"CYBLE_GATT_ATTR_HANDLE_RANGE_T\000"
 7891      455F4741 
 7891      54545F41 
 7891      5454525F 
 7891      48414E44 
 7892              	.LASF478:
 7893 3449 4359424C 		.ascii	"CYBLE_STATE_T\000"
 7893      455F5354 
 7893      4154455F 
 7893      5400
 7894              	.LASF242:
 7895 3457 4359424C 		.ascii	"CYBLE_GATTC_READ_RSP_PARAM_T\000"
 7895      455F4741 
 7895      5454435F 
 7895      52454144 
 7895      5F525350 
 7896              	.LASF304:
 7897 3474 4359424C 		.ascii	"CYBLE_EVT_BASC_NOTIFICATION\000"
ARM GAS  C:\Users\Zachary\AppData\Local\Temp\ccmvMQUz.s 			page 223


 7897      455F4556 
 7897      545F4241 
 7897      53435F4E 
 7897      4F544946 
 7898              	.LASF307:
 7899 3490 4359424C 		.ascii	"CYBLE_EVT_BASC_WRITE_DESCR_RESPONSE\000"
 7899      455F4556 
 7899      545F4241 
 7899      53435F57 
 7899      52495445 
 7900              	.LASF283:
 7901 34b4 4359424C 		.ascii	"CYBLE_EVT_GATTC_SRVC_DISCOVERY_FAILED\000"
 7901      455F4556 
 7901      545F4741 
 7901      5454435F 
 7901      53525643 
 7902              	.LASF364:
 7903 34da 4359424C 		.ascii	"CYBLE_EVT_GLSS_INDICATION_ENABLED\000"
 7903      455F4556 
 7903      545F474C 
 7903      53535F49 
 7903      4E444943 
 7904              	.LASF296:
 7905 34fc 4359424C 		.ascii	"CYBLE_EVT_ANSS_CHAR_WRITE\000"
 7905      455F4556 
 7905      545F414E 
 7905      53535F43 
 7905      4841525F 
 7906              	.LASF498:
 7907 3516 4359424C 		.ascii	"CYBLE_SRVI_COUNT\000"
 7907      455F5352 
 7907      56495F43 
 7907      4F554E54 
 7907      00
 7908              	.LASF60:
 7909 3527 4359424C 		.ascii	"CYBLE_EVT_L2CAP_CBFC_CONN_IND\000"
 7909      455F4556 
 7909      545F4C32 
 7909      4341505F 
 7909      43424643 
 7910              	.LASF51:
 7911 3545 4359424C 		.ascii	"CYBLE_EVT_GATTS_EXEC_WRITE_REQ\000"
 7911      455F4556 
 7911      545F4741 
 7911      5454535F 
 7911      45584543 
 7912              	.LASF22:
 7913 3564 4359424C 		.ascii	"CYBLE_EVT_GAPC_SCAN_PROGRESS_RESULT\000"
 7913      455F4556 
 7913      545F4741 
 7913      50435F53 
 7913      43414E5F 
 7914              	.LASF547:
 7915 3588 6379426C 		.ascii	"cyBle_connHandle\000"
 7915      655F636F 
 7915      6E6E4861 
 7915      6E646C65 
ARM GAS  C:\Users\Zachary\AppData\Local\Temp\ccmvMQUz.s 			page 224


 7915      00
 7916              	.LASF459:
 7917 3599 4359424C 		.ascii	"CYBLE_EVT_UDSS_INDICATION_ENABLED\000"
 7917      455F4556 
 7917      545F5544 
 7917      53535F49 
 7917      4E444943 
 7918              	.LASF79:
 7919 35bb 4359424C 		.ascii	"CYBLE_ERROR_GAP_ROLE\000"
 7919      455F4552 
 7919      524F525F 
 7919      4741505F 
 7919      524F4C45 
 7920              	.LASF398:
 7921 35d0 4359424C 		.ascii	"CYBLE_EVT_HTSS_INDICATION_ENABLED\000"
 7921      455F4556 
 7921      545F4854 
 7921      53535F49 
 7921      4E444943 
 7922              	.LASF469:
 7923 35f2 4359424C 		.ascii	"CYBLE_EVT_UDSC_READ_DESCR_RESPONSE\000"
 7923      455F4556 
 7923      545F5544 
 7923      53435F52 
 7923      4541445F 
 7924              	.LASF234:
 7925 3615 656E6448 		.ascii	"endHandle\000"
 7925      616E646C 
 7925      6500
 7926              	.LASF305:
 7927 361f 4359424C 		.ascii	"CYBLE_EVT_BASC_READ_CHAR_RESPONSE\000"
 7927      455F4556 
 7927      545F4241 
 7927      53435F52 
 7927      4541445F 
 7928              	.LASF371:
 7929 3641 4359424C 		.ascii	"CYBLE_EVT_GLSC_NOTIFICATION\000"
 7929      455F4556 
 7929      545F474C 
 7929      53435F4E 
 7929      4F544946 
 7930              	.LASF119:
 7931 365d 62644164 		.ascii	"bdAddr\000"
 7931      647200
 7932              	.LASF214:
 7933 3664 4359424C 		.ascii	"CYBLE_GATT_ERR_ANS_COMMAND_NOT_SUPPORTED\000"
 7933      455F4741 
 7933      54545F45 
 7933      52525F41 
 7933      4E535F43 
 7934              	.LASF512:
 7935 368d 72657370 		.ascii	"response\000"
 7935      6F6E7365 
 7935      00
 7936              	.LASF449:
 7937 3696 4359424C 		.ascii	"CYBLE_EVT_SCPSS_SCAN_INT_WIN_CHAR_WRITE\000"
 7937      455F4556 
ARM GAS  C:\Users\Zachary\AppData\Local\Temp\ccmvMQUz.s 			page 225


 7937      545F5343 
 7937      5053535F 
 7937      5343414E 
 7938              	.LASF473:
 7939 36be 4359424C 		.ascii	"CYBLE_STATE_INITIALIZING\000"
 7939      455F5354 
 7939      4154455F 
 7939      494E4954 
 7939      49414C49 
 7940              	.LASF170:
 7941 36d7 4359424C 		.ascii	"CYBLE_GATT_READ_RSP\000"
 7941      455F4741 
 7941      54545F52 
 7941      4541445F 
 7941      52535000 
 7942              	.LASF411:
 7943 36eb 4359424C 		.ascii	"CYBLE_EVT_LLSC_WRITE_CHAR_RESPONSE\000"
 7943      455F4556 
 7943      545F4C4C 
 7943      53435F57 
 7943      52495445 
 7944              	.LASF76:
 7945 370e 4359424C 		.ascii	"CYBLE_ERROR_NO_CONNECTION\000"
 7945      455F4552 
 7945      524F525F 
 7945      4E4F5F43 
 7945      4F4E4E45 
 7946              	.LASF108:
 7947 3728 4359424C 		.ascii	"CYBLE_LL_PWR_LVL_0_DBM\000"
 7947      455F4C4C 
 7947      5F505752 
 7947      5F4C564C 
 7947      5F305F44 
 7948              	.LASF112:
 7949 373f 4359424C 		.ascii	"CYBLE_LL_ADV_CH_TYPE\000"
 7949      455F4C4C 
 7949      5F414456 
 7949      5F43485F 
 7949      54595045 
 7950              	.LASF101:
 7951 3754 4359424C 		.ascii	"CYBLE_API_RESULT_T\000"
 7951      455F4150 
 7951      495F5245 
 7951      53554C54 
 7951      5F5400
 7952              	.LASF319:
 7953 3767 4359424C 		.ascii	"CYBLE_EVT_CGMSS_INDICATION_DISABLED\000"
 7953      455F4556 
 7953      545F4347 
 7953      4D53535F 
 7953      494E4449 
 7954              	.LASF548:
 7955 378b 6379426C 		.ascii	"cyBle_busyStatus\000"
 7955      655F6275 
 7955      73795374 
 7955      61747573 
 7955      00
ARM GAS  C:\Users\Zachary\AppData\Local\Temp\ccmvMQUz.s 			page 226


 7956              	.LASF293:
 7957 379c 4359424C 		.ascii	"CYBLE_EVT_GATTC_DISCOVERY_COMPLETE\000"
 7957      455F4556 
 7957      545F4741 
 7957      5454435F 
 7957      44495343 
 7958              	.LASF241:
 7959 37bf 4359424C 		.ascii	"CYBLE_GATTC_FIND_INFO_REQ_T\000"
 7959      455F4741 
 7959      5454435F 
 7959      46494E44 
 7959      5F494E46 
 7960              	.LASF323:
 7961 37db 4359424C 		.ascii	"CYBLE_EVT_CGMSS_WRITE_CHAR\000"
 7961      455F4556 
 7961      545F4347 
 7961      4D53535F 
 7961      57524954 
 7962              	.LASF375:
 7963 37f6 4359424C 		.ascii	"CYBLE_EVT_GLSC_WRITE_DESCR_RESPONSE\000"
 7963      455F4556 
 7963      545F474C 
 7963      53435F57 
 7963      52495445 
 7964              	.LASF54:
 7965 381a 4359424C 		.ascii	"CYBLE_EVT_GATTC_HANDLE_VALUE_IND\000"
 7965      455F4556 
 7965      545F4741 
 7965      5454435F 
 7965      48414E44 
 7966              	.LASF344:
 7967 383b 4359424C 		.ascii	"CYBLE_EVT_CPSC_SCAN_PROGRESS_RESULT\000"
 7967      455F4556 
 7967      545F4350 
 7967      53435F53 
 7967      43414E5F 
 7968              	.LASF443:
 7969 385f 4359424C 		.ascii	"CYBLE_EVT_RSCSC_READ_DESCR_RESPONSE\000"
 7969      455F4556 
 7969      545F5253 
 7969      4353435F 
 7969      52454144 
 7970              	.LASF514:
 7971 3883 6576656E 		.ascii	"eventCode\000"
 7971      74436F64 
 7971      6500
 7972              	.LASF82:
 7973 388d 4359424C 		.ascii	"CYBLE_ERROR_SEC_FAILED\000"
 7973      455F4552 
 7973      524F525F 
 7973      5345435F 
 7973      4641494C 
 7974              	.LASF21:
 7975 38a4 4359424C 		.ascii	"CYBLE_EVT_STACK_BUSY_STATUS\000"
 7975      455F4556 
 7975      545F5354 
 7975      41434B5F 
ARM GAS  C:\Users\Zachary\AppData\Local\Temp\ccmvMQUz.s 			page 227


 7975      42555359 
 7976              	.LASF157:
 7977 38c0 636F6E6E 		.ascii	"connLatency\000"
 7977      4C617465 
 7977      6E637900 
 7978              	.LASF132:
 7979 38cc 4359424C 		.ascii	"CYBLE_GAP_IOCAP_DISPLAY_YESNO\000"
 7979      455F4741 
 7979      505F494F 
 7979      4341505F 
 7979      44495350 
 7980              	.LASF407:
 7981 38ea 4359424C 		.ascii	"CYBLE_EVT_HTSC_WRITE_DESCR_RESPONSE\000"
 7981      455F4556 
 7981      545F4854 
 7981      53435F57 
 7981      52495445 
 7982              	.LASF34:
 7983 390e 4359424C 		.ascii	"CYBLE_EVT_GAP_KEYINFO_EXCHNGE_CMPLT\000"
 7983      455F4556 
 7983      545F4741 
 7983      505F4B45 
 7983      59494E46 
 7984              	.LASF182:
 7985 3932 4359424C 		.ascii	"CYBLE_GATT_EXECUTE_WRITE_REQ\000"
 7985      455F4741 
 7985      54545F45 
 7985      58454355 
 7985      54455F57 
 7986              	.LASF118:
 7987 394f 4359424C 		.ascii	"CYBLE_BLESS_PWR_IN_DB_T\000"
 7987      455F424C 
 7987      4553535F 
 7987      5057525F 
 7987      494E5F44 
 7988              	.LASF248:
 7989 3967 61747472 		.ascii	"attrLen\000"
 7989      4C656E00 
 7990              	.LASF114:
 7991 396f 4359424C 		.ascii	"CYBLE_LL_MAX_CH_TYPE\000"
 7991      455F4C4C 
 7991      5F4D4158 
 7991      5F43485F 
 7991      54595045 
 7992              	.LASF57:
 7993 3984 4359424C 		.ascii	"CYBLE_EVT_L2CAP_CONN_PARAM_UPDATE_REQ\000"
 7993      455F4556 
 7993      545F4C32 
 7993      4341505F 
 7993      434F4E4E 
 7994              	.LASF322:
 7995 39aa 4359424C 		.ascii	"CYBLE_EVT_CGMSS_NOTIFICATION_DISABLED\000"
 7995      455F4556 
 7995      545F4347 
 7995      4D53535F 
 7995      4E4F5449 
 7996              	.LASF536:
ARM GAS  C:\Users\Zachary\AppData\Local\Temp\ccmvMQUz.s 			page 228


 7997 39d0 4379426C 		.ascii	"CyBle_NextCharDscrDiscovery\000"
 7997      655F4E65 
 7997      78744368 
 7997      61724473 
 7997      63724469 
 7998              	.LASF538:
 7999 39ec 6379426C 		.ascii	"cyBle_charEndHandle\000"
 7999      655F6368 
 7999      6172456E 
 7999      6448616E 
 7999      646C6500 
 8000              	.LASF95:
 8001 3a00 4359424C 		.ascii	"CYBLE_CHAR_DISC_DONE\000"
 8001      455F4348 
 8001      41525F44 
 8001      4953435F 
 8001      444F4E45 
 8002              	.LASF284:
 8003 3a15 4359424C 		.ascii	"CYBLE_EVT_GATTC_INCL_DISCOVERY_FAILED\000"
 8003      455F4556 
 8003      545F4741 
 8003      5454435F 
 8003      494E434C 
 8004              	.LASF193:
 8005 3a3b 4359424C 		.ascii	"CYBLE_GATT_ERR_WRITE_NOT_PERMITTED\000"
 8005      455F4741 
 8005      54545F45 
 8005      52525F57 
 8005      52495445 
 8006              	.LASF156:
 8007 3a5e 636F6E6E 		.ascii	"connIntv\000"
 8007      496E7476 
 8007      00
 8008              	.LASF3:
 8009 3a67 73686F72 		.ascii	"short unsigned int\000"
 8009      7420756E 
 8009      7369676E 
 8009      65642069 
 8009      6E7400
 8010              	.LASF205:
 8011 3a7a 4359424C 		.ascii	"CYBLE_GATT_ERR_INSUFFICIENT_ENCRYPTION\000"
 8011      455F4741 
 8011      54545F45 
 8011      52525F49 
 8011      4E535546 
 8012              	.LASF422:
 8013 3aa1 4359424C 		.ascii	"CYBLE_EVT_LNSC_READ_DESCR_RESPONSE\000"
 8013      455F4556 
 8013      545F4C4E 
 8013      53435F52 
 8013      4541445F 
 8014              	.LASF474:
 8015 3ac4 4359424C 		.ascii	"CYBLE_STATE_CONNECTED\000"
 8015      455F5354 
 8015      4154455F 
 8015      434F4E4E 
 8015      45435445 
ARM GAS  C:\Users\Zachary\AppData\Local\Temp\ccmvMQUz.s 			page 229


 8016              	.LASF278:
 8017 3ada 4359424C 		.ascii	"CYBLE_LONG_TERM_KEY_REQUEST_REPLY\000"
 8017      455F4C4F 
 8017      4E475F54 
 8017      45524D5F 
 8017      4B45595F 
 8018              	.LASF229:
 8019 3afc 61637475 		.ascii	"actualLen\000"
 8019      616C4C65 
 8019      6E00
 8020              	.LASF274:
 8021 3b06 63636364 		.ascii	"cccdHandle\000"
 8021      48616E64 
 8021      6C6500
 8022              	.LASF175:
 8023 3b11 4359424C 		.ascii	"CYBLE_GATT_READ_BY_GROUP_REQ\000"
 8023      455F4741 
 8023      54545F52 
 8023      4541445F 
 8023      42595F47 
 8024              	.LASF519:
 8025 3b2e 64617461 		.ascii	"dataLength\000"
 8025      4C656E67 
 8025      746800
 8026              	.LASF140:
 8027 3b39 4359424C 		.ascii	"CYBLE_GAP_AUTH_ERROR_CONFIRM_VALUE_NOT_MATCH\000"
 8027      455F4741 
 8027      505F4155 
 8027      54485F45 
 8027      52524F52 
 8028              	.LASF370:
 8029 3b66 4359424C 		.ascii	"CYBLE_EVT_GLSC_INDICATION\000"
 8029      455F4556 
 8029      545F474C 
 8029      53435F49 
 8029      4E444943 
 8030              	.LASF336:
 8031 3b80 4359424C 		.ascii	"CYBLE_EVT_CPSS_BROADCAST_DISABLED\000"
 8031      455F4556 
 8031      545F4350 
 8031      53535F42 
 8031      524F4144 
 8032              	.LASF227:
 8033 3ba2 61747449 		.ascii	"attId\000"
 8033      6400
 8034              	.LASF72:
 8035 3ba8 4359424C 		.ascii	"CYBLE_ERROR_INVALID_OPERATION\000"
 8035      455F4552 
 8035      524F525F 
 8035      494E5641 
 8035      4C49445F 
 8036              	.LASF20:
 8037 3bc6 4359424C 		.ascii	"CYBLE_EVT_HCI_STATUS\000"
 8037      455F4556 
 8037      545F4843 
 8037      495F5354 
 8037      41545553 
ARM GAS  C:\Users\Zachary\AppData\Local\Temp\ccmvMQUz.s 			page 230


 8038              	.LASF37:
 8039 3bdb 4359424C 		.ascii	"CYBLE_EVT_GATT_DISCONNECT_IND\000"
 8039      455F4556 
 8039      545F4741 
 8039      54545F44 
 8039      4953434F 
 8040              	.LASF158:
 8041 3bf9 73757065 		.ascii	"supervisionTO\000"
 8041      72766973 
 8041      696F6E54 
 8041      4F00
 8042              	.LASF124:
 8043 3c07 4359424C 		.ascii	"CYBLE_GATT_RSP_TO\000"
 8043      455F4741 
 8043      54545F52 
 8043      53505F54 
 8043      4F00
 8044              	.LASF279:
 8045 3c19 4359424C 		.ascii	"CYBLE_KEY_EXCHANGE_INFO_REQUEST_REPLY\000"
 8045      455F4B45 
 8045      595F4558 
 8045      4348414E 
 8045      47455F49 
 8046              	.LASF67:
 8047 3c3f 4359424C 		.ascii	"CYBLE_EVT_L2CAP_CBFC_DATA_WRITE_IND\000"
 8047      455F4556 
 8047      545F4C32 
 8047      4341505F 
 8047      43424643 
 8048              	.LASF277:
 8049 3c63 4359424C 		.ascii	"CYBLE_PASSKEY_ENTRY_REQUEST_REPLY\000"
 8049      455F5041 
 8049      53534B45 
 8049      595F454E 
 8049      5452595F 
 8050              	.LASF297:
 8051 3c85 4359424C 		.ascii	"CYBLE_EVT_ANSC_NOTIFICATION\000"
 8051      455F4556 
 8051      545F414E 
 8051      53435F4E 
 8051      4F544946 
 8052              	.LASF30:
 8053 3ca1 4359424C 		.ascii	"CYBLE_EVT_GAP_DEVICE_DISCONNECTED\000"
 8053      455F4556 
 8053      545F4741 
 8053      505F4445 
 8053      56494345 
 8054              	.LASF378:
 8055 3cc3 4359424C 		.ascii	"CYBLE_EVT_HIDSS_BOOT_MODE_ENTER\000"
 8055      455F4556 
 8055      545F4849 
 8055      4453535F 
 8055      424F4F54 
 8056              	.LASF55:
 8057 3ce3 4359424C 		.ascii	"CYBLE_EVT_GATTS_HANDLE_VALUE_CNF\000"
 8057      455F4556 
 8057      545F4741 
ARM GAS  C:\Users\Zachary\AppData\Local\Temp\ccmvMQUz.s 			page 231


 8057      5454535F 
 8057      48414E44 
 8058              	.LASF355:
 8059 3d04 4359424C 		.ascii	"CYBLE_EVT_CSCSC_READ_DESCR_RESPONSE\000"
 8059      455F4556 
 8059      545F4353 
 8059      4353435F 
 8059      52454144 
 8060              	.LASF10:
 8061 3d28 75696E74 		.ascii	"uint16\000"
 8061      313600
 8062              	.LASF80:
 8063 3d2f 4359424C 		.ascii	"CYBLE_ERROR_TX_POWER_READ\000"
 8063      455F4552 
 8063      524F525F 
 8063      54585F50 
 8063      4F574552 
 8064              	.LASF433:
 8065 3d49 4359424C 		.ascii	"CYBLE_EVT_RSCSS_NOTIFICATION_ENABLED\000"
 8065      455F4556 
 8065      545F5253 
 8065      4353535F 
 8065      4E4F5449 
 8066              	.LASF224:
 8067 3d6e 4359424C 		.ascii	"CYBLE_UUID_T\000"
 8067      455F5555 
 8067      49445F54 
 8067      00
 8068              	.LASF295:
 8069 3d7b 4359424C 		.ascii	"CYBLE_EVT_ANSS_NOTIFICATION_DISABLED\000"
 8069      455F4556 
 8069      545F414E 
 8069      53535F4E 
 8069      4F544946 
 8070              	.LASF403:
 8071 3da0 4359424C 		.ascii	"CYBLE_EVT_HTSC_INDICATION\000"
 8071      455F4556 
 8071      545F4854 
 8071      53435F49 
 8071      4E444943 
 8072              	.LASF268:
 8073 3dba 76616C75 		.ascii	"valueHandle\000"
 8073      6548616E 
 8073      646C6500 
 8074              	.LASF376:
 8075 3dc6 4359424C 		.ascii	"CYBLE_EVT_HIDSS_NOTIFICATION_ENABLED\000"
 8075      455F4556 
 8075      545F4849 
 8075      4453535F 
 8075      4E4F5449 
 8076              	.LASF400:
 8077 3deb 4359424C 		.ascii	"CYBLE_EVT_HTSS_INDICATION_CONFIRMED\000"
 8077      455F4556 
 8077      545F4854 
 8077      53535F49 
 8077      4E444943 
 8078              	.LASF390:
ARM GAS  C:\Users\Zachary\AppData\Local\Temp\ccmvMQUz.s 			page 232


 8079 3e0f 4359424C 		.ascii	"CYBLE_EVT_HRSS_NOTIFICATION_DISABLED\000"
 8079      455F4556 
 8079      545F4852 
 8079      53535F4E 
 8079      4F544946 
 8080              		.ident	"GCC: (GNU Tools for ARM Embedded Processors) 4.8.4 20140526 (release) [ARM/embedded-4_8-br
