ARM GAS  C:\Users\Zachary\AppData\Local\Temp\ccmvMQUz.s 			page 1


   1              		.cpu cortex-m0
   2              		.fpu softvfp
   3              		.eabi_attribute 20, 1
   4              		.eabi_attribute 21, 1
   5              		.eabi_attribute 23, 3
   6              		.eabi_attribute 24, 1
   7              		.eabi_attribute 25, 1
   8              		.eabi_attribute 26, 1
   9              		.eabi_attribute 30, 6
  10              		.eabi_attribute 34, 0
  11              		.eabi_attribute 18, 4
  12              		.code	16
  13              		.file	"BLE_eventHandler.c"
  14              		.text
  15              	.Ltext0:
  16              		.cfi_sections	.debug_frame
  17              		.comm	cyBle_connHandle,2,4
  18              		.comm	cyBle_eventHandlerFlag,1,1
  19              		.comm	cyBle_busyStatus,1,1
  20              		.comm	cyBle_scanningIntervalType,1,1
  21              		.comm	cyBle_disCount,1,1
  22              		.bss
  23              		.align	1
  24              	cyBle_charEndHandle:
  25 0000 0000     		.space	2
  26              		.global	cyBle_serverInfo
  27              		.data
  28              		.align	2
  29              		.type	cyBle_serverInfo, %object
  30              		.size	cyBle_serverInfo, 18
  31              	cyBle_serverInfo:
  32 0000 0000     		.short	0
  33 0002 0000     		.short	0
  34 0004 0018     		.short	6144
  35 0006 0000     		.short	0
  36 0008 0000     		.short	0
  37 000a 0118     		.short	6145
  38 000c 0000     		.short	0
  39 000e 0000     		.short	0
  40 0010 0218     		.short	6146
  41              		.comm	cyBle_gapc,10,4
  42              		.global	cyBle_authInfo
  43 0012 0000     		.align	2
  44              		.type	cyBle_authInfo, %object
  45              		.size	cyBle_authInfo, 4
  46              	cyBle_authInfo:
  47 0014 10       		.byte	16
  48 0015 00       		.byte	0
  49 0016 10       		.byte	16
  50 0017 00       		.byte	0
  51              		.section	.text.CyBle_GattcWriteResponseEventHandler,"ax",%progbits
  52              		.align	2
  53              		.code	16
  54              		.thumb_func
  55              		.type	CyBle_GattcWriteResponseEventHandler, %function
  56              	CyBle_GattcWriteResponseEventHandler:
  57              	.LFB2:
ARM GAS  C:\Users\Zachary\AppData\Local\Temp\ccmvMQUz.s 			page 2


  58              		.file 1 ".\\Generated_Source\\PSoC4\\BLE_eventHandler.c"
   1:.\Generated_Source\PSoC4/BLE_eventHandler.c **** /*******************************************************************************
   2:.\Generated_Source\PSoC4/BLE_eventHandler.c **** File Name: CYBLE_eventHandler.c
   3:.\Generated_Source\PSoC4/BLE_eventHandler.c **** Version 1.20
   4:.\Generated_Source\PSoC4/BLE_eventHandler.c **** 
   5:.\Generated_Source\PSoC4/BLE_eventHandler.c **** Description:
   6:.\Generated_Source\PSoC4/BLE_eventHandler.c ****  This file contains the source code for the Event Handler State Machine
   7:.\Generated_Source\PSoC4/BLE_eventHandler.c ****  of the BLE Component.
   8:.\Generated_Source\PSoC4/BLE_eventHandler.c **** 
   9:.\Generated_Source\PSoC4/BLE_eventHandler.c **** ********************************************************************************
  10:.\Generated_Source\PSoC4/BLE_eventHandler.c **** Copyright 2014-2015, Cypress Semiconductor Corporation.  All rights reserved.
  11:.\Generated_Source\PSoC4/BLE_eventHandler.c **** You may use this file only in accordance with the license, terms, conditions,
  12:.\Generated_Source\PSoC4/BLE_eventHandler.c **** disclaimers, and limitations in the end user license agreement accompanying
  13:.\Generated_Source\PSoC4/BLE_eventHandler.c **** the software package with which this file was provided.
  14:.\Generated_Source\PSoC4/BLE_eventHandler.c **** *******************************************************************************/
  15:.\Generated_Source\PSoC4/BLE_eventHandler.c **** 
  16:.\Generated_Source\PSoC4/BLE_eventHandler.c **** #include "BLE_eventHandler.h"
  17:.\Generated_Source\PSoC4/BLE_eventHandler.c **** 
  18:.\Generated_Source\PSoC4/BLE_eventHandler.c **** 
  19:.\Generated_Source\PSoC4/BLE_eventHandler.c **** /***************************************
  20:.\Generated_Source\PSoC4/BLE_eventHandler.c **** ##Private Function Prototypes
  21:.\Generated_Source\PSoC4/BLE_eventHandler.c **** ***************************************/
  22:.\Generated_Source\PSoC4/BLE_eventHandler.c **** 
  23:.\Generated_Source\PSoC4/BLE_eventHandler.c **** #if (CYBLE_GATT_ROLE_SERVER || CYBLE_GATT_ROLE_CLIENT)
  24:.\Generated_Source\PSoC4/BLE_eventHandler.c **** 
  25:.\Generated_Source\PSoC4/BLE_eventHandler.c **** static uint8 CyBle_IsDeviceAddressValid(const CYBLE_GAP_BD_ADDR_T *sflashDeviceAddress);
  26:.\Generated_Source\PSoC4/BLE_eventHandler.c **** 
  27:.\Generated_Source\PSoC4/BLE_eventHandler.c **** #endif /* CYBLE_GATT_ROLE_SERVER || CYBLE_GATT_ROLE_CLIENT */
  28:.\Generated_Source\PSoC4/BLE_eventHandler.c **** 
  29:.\Generated_Source\PSoC4/BLE_eventHandler.c **** static void CyBle_GattDisconnectEventHandler(void);
  30:.\Generated_Source\PSoC4/BLE_eventHandler.c **** static void CyBle_TimeOutEventHandler(const CYBLE_TO_REASON_CODE_T *eventParam);
  31:.\Generated_Source\PSoC4/BLE_eventHandler.c **** static void CyBle_GattConnectReqHandler(void);
  32:.\Generated_Source\PSoC4/BLE_eventHandler.c **** static void CyBle_L2Cap_ConnParamUpdateRspEventHandler(uint16 response);
  33:.\Generated_Source\PSoC4/BLE_eventHandler.c **** static void CyBle_GapConnUpdateCompleteEventHandler(const CYBLE_GAP_CONN_PARAM_UPDATED_IN_CONTROLLE
  34:.\Generated_Source\PSoC4/BLE_eventHandler.c **** 
  35:.\Generated_Source\PSoC4/BLE_eventHandler.c **** 
  36:.\Generated_Source\PSoC4/BLE_eventHandler.c **** #if (CYBLE_GATT_ROLE_SERVER)
  37:.\Generated_Source\PSoC4/BLE_eventHandler.c **** 
  38:.\Generated_Source\PSoC4/BLE_eventHandler.c **** static void CyBle_WriteReqHandler(CYBLE_GATTS_WRITE_REQ_PARAM_T *eventParam);
  39:.\Generated_Source\PSoC4/BLE_eventHandler.c **** static void CyBle_ValueConfirmation(const CYBLE_CONN_HANDLE_T *eventParam);
  40:.\Generated_Source\PSoC4/BLE_eventHandler.c **** 
  41:.\Generated_Source\PSoC4/BLE_eventHandler.c **** #endif /* CYBLE_GATT_ROLE_SERVER */
  42:.\Generated_Source\PSoC4/BLE_eventHandler.c **** 
  43:.\Generated_Source\PSoC4/BLE_eventHandler.c **** #if (CYBLE_GATT_ROLE_CLIENT)
  44:.\Generated_Source\PSoC4/BLE_eventHandler.c **** 
  45:.\Generated_Source\PSoC4/BLE_eventHandler.c **** static void CyBle_GapcDiscoverCharacteristicsEventHandler(CYBLE_DISC_CHAR_INFO_T *discCharInfo);
  46:.\Generated_Source\PSoC4/BLE_eventHandler.c **** static CYBLE_GATT_ATTR_HANDLE_RANGE_T CyBle_GetCharRange(void);
  47:.\Generated_Source\PSoC4/BLE_eventHandler.c **** static void CyBle_GattcWriteResponseEventHandler(const CYBLE_CONN_HANDLE_T *eventParam);
  48:.\Generated_Source\PSoC4/BLE_eventHandler.c **** static void CyBle_NotificationEventHandler(CYBLE_GATTC_HANDLE_VALUE_NTF_PARAM_T *eventParam);
  49:.\Generated_Source\PSoC4/BLE_eventHandler.c **** static void CyBle_IndicationEventHandler(CYBLE_GATTC_HANDLE_VALUE_IND_PARAM_T *eventParam);
  50:.\Generated_Source\PSoC4/BLE_eventHandler.c **** static void CyBle_ReadResponseEventHandler(CYBLE_GATTC_READ_RSP_PARAM_T *eventParam);
  51:.\Generated_Source\PSoC4/BLE_eventHandler.c **** 
  52:.\Generated_Source\PSoC4/BLE_eventHandler.c **** #endif /* CYBLE_GATT_ROLE_CLIENT */
  53:.\Generated_Source\PSoC4/BLE_eventHandler.c **** 
  54:.\Generated_Source\PSoC4/BLE_eventHandler.c **** 
  55:.\Generated_Source\PSoC4/BLE_eventHandler.c **** /***************************************
  56:.\Generated_Source\PSoC4/BLE_eventHandler.c **** ##Global Variables
ARM GAS  C:\Users\Zachary\AppData\Local\Temp\ccmvMQUz.s 			page 3


  57:.\Generated_Source\PSoC4/BLE_eventHandler.c **** ***************************************/
  58:.\Generated_Source\PSoC4/BLE_eventHandler.c **** 
  59:.\Generated_Source\PSoC4/BLE_eventHandler.c **** /* This global variable is initialized after connection with peer device, 
  60:.\Generated_Source\PSoC4/BLE_eventHandler.c ****    after CYBLE_EVT_GATT_CONNECT_IND event, and could be used by application code
  61:.\Generated_Source\PSoC4/BLE_eventHandler.c ****    to send data to peer device. 
  62:.\Generated_Source\PSoC4/BLE_eventHandler.c **** */
  63:.\Generated_Source\PSoC4/BLE_eventHandler.c **** CYBLE_CONN_HANDLE_T cyBle_connHandle;
  64:.\Generated_Source\PSoC4/BLE_eventHandler.c **** 
  65:.\Generated_Source\PSoC4/BLE_eventHandler.c **** volatile uint8 cyBle_eventHandlerFlag;
  66:.\Generated_Source\PSoC4/BLE_eventHandler.c **** volatile uint8 cyBle_busyStatus;
  67:.\Generated_Source\PSoC4/BLE_eventHandler.c **** 
  68:.\Generated_Source\PSoC4/BLE_eventHandler.c **** #if(CYBLE_GAP_ROLE_PERIPHERAL || CYBLE_GAP_ROLE_BROADCASTER) 
  69:.\Generated_Source\PSoC4/BLE_eventHandler.c ****     uint8 cyBle_advertisingIntervalType;
  70:.\Generated_Source\PSoC4/BLE_eventHandler.c **** #endif /* CYBLE_GAP_ROLE_PERIPHERAL || CYBLE_GAP_ROLE_BROADCASTER) */
  71:.\Generated_Source\PSoC4/BLE_eventHandler.c **** 
  72:.\Generated_Source\PSoC4/BLE_eventHandler.c **** #if(CYBLE_GAP_ROLE_CENTRAL || CYBLE_GAP_ROLE_OBSERVER) 
  73:.\Generated_Source\PSoC4/BLE_eventHandler.c ****     uint8 cyBle_scanningIntervalType;
  74:.\Generated_Source\PSoC4/BLE_eventHandler.c **** #endif /* CYBLE_GAP_ROLE_CENTRAL || CYBLE_GAP_ROLE_OBSERVER */
  75:.\Generated_Source\PSoC4/BLE_eventHandler.c **** 
  76:.\Generated_Source\PSoC4/BLE_eventHandler.c **** #if(CYBLE_GATT_ROLE_CLIENT)
  77:.\Generated_Source\PSoC4/BLE_eventHandler.c **** uint8 cyBle_disCount; /* Counter for discovery procedures */
  78:.\Generated_Source\PSoC4/BLE_eventHandler.c **** static CYBLE_GATT_DB_ATTR_HANDLE_T cyBle_charEndHandle;
  79:.\Generated_Source\PSoC4/BLE_eventHandler.c **** #ifdef CYBLE_HIDS_CLIENT
  80:.\Generated_Source\PSoC4/BLE_eventHandler.c ****     static uint8 disServiceIndex;      /* To discovery descriptors for multiple HID service instanc
  81:.\Generated_Source\PSoC4/BLE_eventHandler.c **** #endif /* CYBLE_HIDS_CLIENT */
  82:.\Generated_Source\PSoC4/BLE_eventHandler.c **** 
  83:.\Generated_Source\PSoC4/BLE_eventHandler.c **** CYBLE_DISC_SRVC_INFO_T cyBle_serverInfo[CYBLE_SRVI_COUNT] = /*3*/
  84:.\Generated_Source\PSoC4/BLE_eventHandler.c **** {
  85:.\Generated_Source\PSoC4/BLE_eventHandler.c ****     {{CYBLE_GATT_INVALID_ATTR_HANDLE_VALUE, CYBLE_GATT_INVALID_ATTR_HANDLE_VALUE}, CYBLE_UUID_GAP_S
  86:.\Generated_Source\PSoC4/BLE_eventHandler.c ****     {{CYBLE_GATT_INVALID_ATTR_HANDLE_VALUE, CYBLE_GATT_INVALID_ATTR_HANDLE_VALUE}, CYBLE_UUID_GATT_
  87:.\Generated_Source\PSoC4/BLE_eventHandler.c **** #ifdef CYBLE_ANS_CLIENT
  88:.\Generated_Source\PSoC4/BLE_eventHandler.c ****     {{CYBLE_GATT_INVALID_ATTR_HANDLE_VALUE, CYBLE_GATT_INVALID_ATTR_HANDLE_VALUE}, CYBLE_UUID_ALERT
  89:.\Generated_Source\PSoC4/BLE_eventHandler.c **** #endif /* CYBLE_ANS_CLIENT */
  90:.\Generated_Source\PSoC4/BLE_eventHandler.c **** #ifdef CYBLE_BAS_CLIENT
  91:.\Generated_Source\PSoC4/BLE_eventHandler.c ****     {{CYBLE_GATT_INVALID_ATTR_HANDLE_VALUE, CYBLE_GATT_INVALID_ATTR_HANDLE_VALUE}, CYBLE_UUID_BAS_S
  92:.\Generated_Source\PSoC4/BLE_eventHandler.c ****     #if(CYBLE_BASC_SERVICE_COUNT > 1u) /* Generate it by GUI */
  93:.\Generated_Source\PSoC4/BLE_eventHandler.c ****         
  94:.\Generated_Source\PSoC4/BLE_eventHandler.c ****     #endif /* CYBLE_BASC_SERVICE_COUNT > 1u */
  95:.\Generated_Source\PSoC4/BLE_eventHandler.c **** #endif /* CYBLE_BAS_CLIENT */
  96:.\Generated_Source\PSoC4/BLE_eventHandler.c **** #ifdef CYBLE_BLS_CLIENT
  97:.\Generated_Source\PSoC4/BLE_eventHandler.c ****     {{CYBLE_GATT_INVALID_ATTR_HANDLE_VALUE, CYBLE_GATT_INVALID_ATTR_HANDLE_VALUE}, CYBLE_UUID_BLOOD
  98:.\Generated_Source\PSoC4/BLE_eventHandler.c **** #endif /* CYBLE_BLS_CLIENT */
  99:.\Generated_Source\PSoC4/BLE_eventHandler.c **** #ifdef CYBLE_CGMS_CLIENT
 100:.\Generated_Source\PSoC4/BLE_eventHandler.c ****     {{CYBLE_GATT_INVALID_ATTR_HANDLE_VALUE, CYBLE_GATT_INVALID_ATTR_HANDLE_VALUE}, CYBLE_UUID_CGM_S
 101:.\Generated_Source\PSoC4/BLE_eventHandler.c **** #endif /* CYBLE_CGMS_CLIENT */
 102:.\Generated_Source\PSoC4/BLE_eventHandler.c **** #ifdef CYBLE_CPS_CLIENT
 103:.\Generated_Source\PSoC4/BLE_eventHandler.c ****     {{CYBLE_GATT_INVALID_ATTR_HANDLE_VALUE, CYBLE_GATT_INVALID_ATTR_HANDLE_VALUE}, CYBLE_UUID_CPS_S
 104:.\Generated_Source\PSoC4/BLE_eventHandler.c **** #endif /* CYBLE_CPS_CLIENT */
 105:.\Generated_Source\PSoC4/BLE_eventHandler.c **** #ifdef CYBLE_CSCS_CLIENT
 106:.\Generated_Source\PSoC4/BLE_eventHandler.c ****     {{CYBLE_GATT_INVALID_ATTR_HANDLE_VALUE, CYBLE_GATT_INVALID_ATTR_HANDLE_VALUE}, CYBLE_UUID_CYCLI
 107:.\Generated_Source\PSoC4/BLE_eventHandler.c **** #endif /* CYBLE_CSCS_CLIENT */
 108:.\Generated_Source\PSoC4/BLE_eventHandler.c **** #ifdef CYBLE_CTS_CLIENT
 109:.\Generated_Source\PSoC4/BLE_eventHandler.c ****     {{CYBLE_GATT_INVALID_ATTR_HANDLE_VALUE, CYBLE_GATT_INVALID_ATTR_HANDLE_VALUE}, CYBLE_UUID_CURRE
 110:.\Generated_Source\PSoC4/BLE_eventHandler.c **** #endif /* CYBLE_CTS_CLIENT */
 111:.\Generated_Source\PSoC4/BLE_eventHandler.c **** #ifdef CYBLE_DIS_CLIENT
 112:.\Generated_Source\PSoC4/BLE_eventHandler.c ****     {{CYBLE_GATT_INVALID_ATTR_HANDLE_VALUE, CYBLE_GATT_INVALID_ATTR_HANDLE_VALUE}, CYBLE_UUID_DEVIC
 113:.\Generated_Source\PSoC4/BLE_eventHandler.c **** #endif /* CYBLE_DIS_CLIENT */
ARM GAS  C:\Users\Zachary\AppData\Local\Temp\ccmvMQUz.s 			page 4


 114:.\Generated_Source\PSoC4/BLE_eventHandler.c **** #ifdef CYBLE_GLS_CLIENT
 115:.\Generated_Source\PSoC4/BLE_eventHandler.c ****     {{CYBLE_GATT_INVALID_ATTR_HANDLE_VALUE, CYBLE_GATT_INVALID_ATTR_HANDLE_VALUE}, CYBLE_UUID_GLUCO
 116:.\Generated_Source\PSoC4/BLE_eventHandler.c **** #endif /* CYBLE_GLS_CLIENT */
 117:.\Generated_Source\PSoC4/BLE_eventHandler.c **** #ifdef CYBLE_HIDS_CLIENT
 118:.\Generated_Source\PSoC4/BLE_eventHandler.c ****     {{CYBLE_GATT_INVALID_ATTR_HANDLE_VALUE, CYBLE_GATT_INVALID_ATTR_HANDLE_VALUE}, CYBLE_UUID_HIDS_
 119:.\Generated_Source\PSoC4/BLE_eventHandler.c ****     #if(CYBLE_HIDSC_SERVICE_COUNT > 1u) /* Generate it by GUI */
 120:.\Generated_Source\PSoC4/BLE_eventHandler.c ****         
 121:.\Generated_Source\PSoC4/BLE_eventHandler.c ****     #endif /* CYBLE_HIDSC_SERVICE_COUNT > 1u */
 122:.\Generated_Source\PSoC4/BLE_eventHandler.c **** #endif /* CYBLE_HIDS_CLIENT */
 123:.\Generated_Source\PSoC4/BLE_eventHandler.c **** #ifdef CYBLE_HRS_CLIENT
 124:.\Generated_Source\PSoC4/BLE_eventHandler.c ****     {{CYBLE_GATT_INVALID_ATTR_HANDLE_VALUE, CYBLE_GATT_INVALID_ATTR_HANDLE_VALUE}, CYBLE_UUID_HEART
 125:.\Generated_Source\PSoC4/BLE_eventHandler.c **** #endif /* CYBLE_HRS_CLIENT */
 126:.\Generated_Source\PSoC4/BLE_eventHandler.c **** #ifdef CYBLE_HTS_CLIENT
 127:.\Generated_Source\PSoC4/BLE_eventHandler.c ****     {{CYBLE_GATT_INVALID_ATTR_HANDLE_VALUE, CYBLE_GATT_INVALID_ATTR_HANDLE_VALUE}, CYBLE_UUID_HEALT
 128:.\Generated_Source\PSoC4/BLE_eventHandler.c **** #endif /* CYBLE_HTS_CLIENT */
 129:.\Generated_Source\PSoC4/BLE_eventHandler.c **** #ifdef CYBLE_IAS_CLIENT
 130:.\Generated_Source\PSoC4/BLE_eventHandler.c ****     {{CYBLE_GATT_INVALID_ATTR_HANDLE_VALUE, CYBLE_GATT_INVALID_ATTR_HANDLE_VALUE}, CYBLE_UUID_IMMED
 131:.\Generated_Source\PSoC4/BLE_eventHandler.c **** #endif /* CYBLE_IAS_CLIENT */
 132:.\Generated_Source\PSoC4/BLE_eventHandler.c **** #ifdef CYBLE_LLS_CLIENT
 133:.\Generated_Source\PSoC4/BLE_eventHandler.c ****     {{CYBLE_GATT_INVALID_ATTR_HANDLE_VALUE, CYBLE_GATT_INVALID_ATTR_HANDLE_VALUE}, CYBLE_UUID_LINK_
 134:.\Generated_Source\PSoC4/BLE_eventHandler.c **** #endif /* CYBLE_LLS_CLIENT */
 135:.\Generated_Source\PSoC4/BLE_eventHandler.c **** #ifdef CYBLE_LNS_CLIENT
 136:.\Generated_Source\PSoC4/BLE_eventHandler.c ****     {{CYBLE_GATT_INVALID_ATTR_HANDLE_VALUE, CYBLE_GATT_INVALID_ATTR_HANDLE_VALUE}, CYBLE_UUID_LOCAT
 137:.\Generated_Source\PSoC4/BLE_eventHandler.c **** #endif /* CYBLE_LNS_CLIENT */
 138:.\Generated_Source\PSoC4/BLE_eventHandler.c **** #ifdef CYBLE_NDCS_CLIENT
 139:.\Generated_Source\PSoC4/BLE_eventHandler.c ****     {{CYBLE_GATT_INVALID_ATTR_HANDLE_VALUE, CYBLE_GATT_INVALID_ATTR_HANDLE_VALUE}, CYBLE_UUID_NEXT_
 140:.\Generated_Source\PSoC4/BLE_eventHandler.c **** #endif /* CYBLE_NDCS_CLIENT */
 141:.\Generated_Source\PSoC4/BLE_eventHandler.c **** #ifdef CYBLE_PASS_CLIENT
 142:.\Generated_Source\PSoC4/BLE_eventHandler.c ****     {{CYBLE_GATT_INVALID_ATTR_HANDLE_VALUE, CYBLE_GATT_INVALID_ATTR_HANDLE_VALUE}, CYBLE_UUID_PHONE
 143:.\Generated_Source\PSoC4/BLE_eventHandler.c **** #endif /* CYBLE_PASS_CLIENT */
 144:.\Generated_Source\PSoC4/BLE_eventHandler.c **** #ifdef CYBLE_RSCS_CLIENT
 145:.\Generated_Source\PSoC4/BLE_eventHandler.c ****     {{CYBLE_GATT_INVALID_ATTR_HANDLE_VALUE, CYBLE_GATT_INVALID_ATTR_HANDLE_VALUE}, CYBLE_UUID_RUNNI
 146:.\Generated_Source\PSoC4/BLE_eventHandler.c **** #endif /* CYBLE_RSCS_CLIENT */
 147:.\Generated_Source\PSoC4/BLE_eventHandler.c **** #ifdef CYBLE_RTUS_CLIENT
 148:.\Generated_Source\PSoC4/BLE_eventHandler.c ****     {{CYBLE_GATT_INVALID_ATTR_HANDLE_VALUE, CYBLE_GATT_INVALID_ATTR_HANDLE_VALUE}, CYBLE_UUID_REF_T
 149:.\Generated_Source\PSoC4/BLE_eventHandler.c **** #endif /* CYBLE_RTUS_CLIENT */
 150:.\Generated_Source\PSoC4/BLE_eventHandler.c **** #ifdef CYBLE_SCPS_CLIENT
 151:.\Generated_Source\PSoC4/BLE_eventHandler.c ****     {{CYBLE_GATT_INVALID_ATTR_HANDLE_VALUE, CYBLE_GATT_INVALID_ATTR_HANDLE_VALUE}, CYBLE_UUID_SCAN_
 152:.\Generated_Source\PSoC4/BLE_eventHandler.c **** #endif /* CYBLE_SCPS_CLIENT */
 153:.\Generated_Source\PSoC4/BLE_eventHandler.c **** #ifdef CYBLE_TPS_CLIENT
 154:.\Generated_Source\PSoC4/BLE_eventHandler.c ****     {{CYBLE_GATT_INVALID_ATTR_HANDLE_VALUE, CYBLE_GATT_INVALID_ATTR_HANDLE_VALUE}, CYBLE_UUID_TX_PO
 155:.\Generated_Source\PSoC4/BLE_eventHandler.c **** #endif /* CYBLE_TPS_CLIENT */
 156:.\Generated_Source\PSoC4/BLE_eventHandler.c **** #ifdef CYBLE_UDS_CLIENT
 157:.\Generated_Source\PSoC4/BLE_eventHandler.c ****     {{CYBLE_GATT_INVALID_ATTR_HANDLE_VALUE, CYBLE_GATT_INVALID_ATTR_HANDLE_VALUE}, CYBLE_UUID_USER_
 158:.\Generated_Source\PSoC4/BLE_eventHandler.c **** #endif /* CYBLE_UDS_CLIENT */
 159:.\Generated_Source\PSoC4/BLE_eventHandler.c **** 
 160:.\Generated_Source\PSoC4/BLE_eventHandler.c **** };
 161:.\Generated_Source\PSoC4/BLE_eventHandler.c **** 
 162:.\Generated_Source\PSoC4/BLE_eventHandler.c **** CYBLE_GAPC_T cyBle_gapc;
 163:.\Generated_Source\PSoC4/BLE_eventHandler.c **** 
 164:.\Generated_Source\PSoC4/BLE_eventHandler.c **** #endif /* CYBLE_GATT_ROLE_CLIENT */
 165:.\Generated_Source\PSoC4/BLE_eventHandler.c **** 
 166:.\Generated_Source\PSoC4/BLE_eventHandler.c **** /* Default device security */
 167:.\Generated_Source\PSoC4/BLE_eventHandler.c **** CYBLE_GAP_AUTH_INFO_T cyBle_authInfo =
 168:.\Generated_Source\PSoC4/BLE_eventHandler.c **** {
 169:.\Generated_Source\PSoC4/BLE_eventHandler.c ****     (CYBLE_GAP_SEC_MODE_1 | CYBLE_GAP_SEC_LEVEL_1 ), /* uint8 security */
 170:.\Generated_Source\PSoC4/BLE_eventHandler.c ****     CYBLE_GAP_BONDING_NONE, /* uint8 bonding */
ARM GAS  C:\Users\Zachary\AppData\Local\Temp\ccmvMQUz.s 			page 5


 171:.\Generated_Source\PSoC4/BLE_eventHandler.c ****     0x10u,      /* uint8 ekeySize */
 172:.\Generated_Source\PSoC4/BLE_eventHandler.c ****     CYBLE_GAP_AUTH_ERROR_NONE, /* CYBLE_AUTH_FAILED_REASON_T authErr */
 173:.\Generated_Source\PSoC4/BLE_eventHandler.c **** };
 174:.\Generated_Source\PSoC4/BLE_eventHandler.c **** 
 175:.\Generated_Source\PSoC4/BLE_eventHandler.c **** #if(CYBLE_GATT_ROLE_SERVER)
 176:.\Generated_Source\PSoC4/BLE_eventHandler.c **** 
 177:.\Generated_Source\PSoC4/BLE_eventHandler.c **** 
 178:.\Generated_Source\PSoC4/BLE_eventHandler.c **** /******************************************************************************    
 179:.\Generated_Source\PSoC4/BLE_eventHandler.c **** ##Function Name: CyBle_WriteReqHandler
 180:.\Generated_Source\PSoC4/BLE_eventHandler.c **** *******************************************************************************
 181:.\Generated_Source\PSoC4/BLE_eventHandler.c **** 
 182:.\Generated_Source\PSoC4/BLE_eventHandler.c **** Summary:
 183:.\Generated_Source\PSoC4/BLE_eventHandler.c ****  Handles the Write Request event from BLE stack.
 184:.\Generated_Source\PSoC4/BLE_eventHandler.c **** 
 185:.\Generated_Source\PSoC4/BLE_eventHandler.c **** Parameters:
 186:.\Generated_Source\PSoC4/BLE_eventHandler.c ****  CYBLE_GATTS_WRITE_REQ_PARAM_T * eventParam - event parameter
 187:.\Generated_Source\PSoC4/BLE_eventHandler.c **** 
 188:.\Generated_Source\PSoC4/BLE_eventHandler.c **** Return:
 189:.\Generated_Source\PSoC4/BLE_eventHandler.c ****  None
 190:.\Generated_Source\PSoC4/BLE_eventHandler.c **** 
 191:.\Generated_Source\PSoC4/BLE_eventHandler.c **** ******************************************************************************/
 192:.\Generated_Source\PSoC4/BLE_eventHandler.c **** static void CyBle_WriteReqHandler(CYBLE_GATTS_WRITE_REQ_PARAM_T *eventParam)
 193:.\Generated_Source\PSoC4/BLE_eventHandler.c **** {
 194:.\Generated_Source\PSoC4/BLE_eventHandler.c ****     CYBLE_GATT_ERR_CODE_T gattErr;
 195:.\Generated_Source\PSoC4/BLE_eventHandler.c ****     
 196:.\Generated_Source\PSoC4/BLE_eventHandler.c ****     gattErr = CyBle_GattsWriteEventHandler(eventParam);
 197:.\Generated_Source\PSoC4/BLE_eventHandler.c **** #ifdef CYBLE_ANS_SERVER
 198:.\Generated_Source\PSoC4/BLE_eventHandler.c ****     if((CYBLE_GATT_ERR_NONE == gattErr) && ((cyBle_eventHandlerFlag & CYBLE_CALLBACK) != 0u))
 199:.\Generated_Source\PSoC4/BLE_eventHandler.c ****     {
 200:.\Generated_Source\PSoC4/BLE_eventHandler.c ****         gattErr = CyBle_AnssWriteEventHandler(eventParam);
 201:.\Generated_Source\PSoC4/BLE_eventHandler.c ****     }
 202:.\Generated_Source\PSoC4/BLE_eventHandler.c **** #endif /* CYBLE_ANS_SERVER */
 203:.\Generated_Source\PSoC4/BLE_eventHandler.c **** #ifdef CYBLE_BAS_SERVER
 204:.\Generated_Source\PSoC4/BLE_eventHandler.c ****     if((CYBLE_GATT_ERR_NONE == gattErr) && ((cyBle_eventHandlerFlag & CYBLE_CALLBACK) != 0u))
 205:.\Generated_Source\PSoC4/BLE_eventHandler.c ****     {
 206:.\Generated_Source\PSoC4/BLE_eventHandler.c ****         gattErr = CyBle_BassWriteEventHandler(eventParam);
 207:.\Generated_Source\PSoC4/BLE_eventHandler.c ****     }
 208:.\Generated_Source\PSoC4/BLE_eventHandler.c **** #endif /* CYBLE_BAS_SERVER */
 209:.\Generated_Source\PSoC4/BLE_eventHandler.c **** #ifdef CYBLE_BLS_SERVER
 210:.\Generated_Source\PSoC4/BLE_eventHandler.c ****     if((CYBLE_GATT_ERR_NONE == gattErr) && ((cyBle_eventHandlerFlag & CYBLE_CALLBACK) != 0u))
 211:.\Generated_Source\PSoC4/BLE_eventHandler.c ****     {
 212:.\Generated_Source\PSoC4/BLE_eventHandler.c ****         gattErr = CyBle_BlssWriteEventHandler(eventParam);
 213:.\Generated_Source\PSoC4/BLE_eventHandler.c ****     }
 214:.\Generated_Source\PSoC4/BLE_eventHandler.c **** #endif /* CYBLE_BLS_SERVER */
 215:.\Generated_Source\PSoC4/BLE_eventHandler.c **** #ifdef CYBLE_CPS_SERVER
 216:.\Generated_Source\PSoC4/BLE_eventHandler.c ****     if((CYBLE_GATT_ERR_NONE == gattErr) && ((cyBle_eventHandlerFlag & CYBLE_CALLBACK) != 0u))
 217:.\Generated_Source\PSoC4/BLE_eventHandler.c ****     {
 218:.\Generated_Source\PSoC4/BLE_eventHandler.c ****         gattErr = CyBle_CpssWriteEventHandler(eventParam);
 219:.\Generated_Source\PSoC4/BLE_eventHandler.c ****     }
 220:.\Generated_Source\PSoC4/BLE_eventHandler.c **** #endif /* CYBLE_CPS_SERVER */
 221:.\Generated_Source\PSoC4/BLE_eventHandler.c **** #ifdef CYBLE_CSCS_SERVER
 222:.\Generated_Source\PSoC4/BLE_eventHandler.c ****     if((CYBLE_GATT_ERR_NONE == gattErr) && ((cyBle_eventHandlerFlag & CYBLE_CALLBACK) != 0u))
 223:.\Generated_Source\PSoC4/BLE_eventHandler.c ****     {
 224:.\Generated_Source\PSoC4/BLE_eventHandler.c ****         gattErr = CyBle_CscssWriteEventHandler(eventParam);
 225:.\Generated_Source\PSoC4/BLE_eventHandler.c ****     }
 226:.\Generated_Source\PSoC4/BLE_eventHandler.c **** #endif /* CYBLE_CSCS_SERVER */
 227:.\Generated_Source\PSoC4/BLE_eventHandler.c **** #ifdef CYBLE_CTS_SERVER
ARM GAS  C:\Users\Zachary\AppData\Local\Temp\ccmvMQUz.s 			page 6


 228:.\Generated_Source\PSoC4/BLE_eventHandler.c ****     if((CYBLE_GATT_ERR_NONE == gattErr) && ((cyBle_eventHandlerFlag & CYBLE_CALLBACK) != 0u))
 229:.\Generated_Source\PSoC4/BLE_eventHandler.c ****     {
 230:.\Generated_Source\PSoC4/BLE_eventHandler.c ****         gattErr = CyBle_CtssWriteEventHandler(eventParam);
 231:.\Generated_Source\PSoC4/BLE_eventHandler.c ****     }
 232:.\Generated_Source\PSoC4/BLE_eventHandler.c **** #endif /* CYBLE_CTS_SERVER */
 233:.\Generated_Source\PSoC4/BLE_eventHandler.c **** #ifdef CYBLE_GLS_SERVER
 234:.\Generated_Source\PSoC4/BLE_eventHandler.c ****     if((CYBLE_GATT_ERR_NONE == gattErr) && ((cyBle_eventHandlerFlag & CYBLE_CALLBACK) != 0u))
 235:.\Generated_Source\PSoC4/BLE_eventHandler.c ****     {
 236:.\Generated_Source\PSoC4/BLE_eventHandler.c ****         gattErr = CyBle_GlssWriteEventHandler(eventParam);
 237:.\Generated_Source\PSoC4/BLE_eventHandler.c ****     }
 238:.\Generated_Source\PSoC4/BLE_eventHandler.c **** #endif /* CYBLE_GLS_SERVER */
 239:.\Generated_Source\PSoC4/BLE_eventHandler.c **** #ifdef CYBLE_HIDS_SERVER
 240:.\Generated_Source\PSoC4/BLE_eventHandler.c ****     if((CYBLE_GATT_ERR_NONE == gattErr) && ((cyBle_eventHandlerFlag & CYBLE_CALLBACK) != 0u))
 241:.\Generated_Source\PSoC4/BLE_eventHandler.c ****     {
 242:.\Generated_Source\PSoC4/BLE_eventHandler.c ****         gattErr = CyBle_HidssWriteEventHandler(eventParam);
 243:.\Generated_Source\PSoC4/BLE_eventHandler.c ****     }
 244:.\Generated_Source\PSoC4/BLE_eventHandler.c **** #endif /* CYBLE_HIDS_SERVER */
 245:.\Generated_Source\PSoC4/BLE_eventHandler.c **** #ifdef CYBLE_HRS_SERVER
 246:.\Generated_Source\PSoC4/BLE_eventHandler.c ****     if((CYBLE_GATT_ERR_NONE == gattErr) && ((cyBle_eventHandlerFlag & CYBLE_CALLBACK) != 0u))
 247:.\Generated_Source\PSoC4/BLE_eventHandler.c ****     {
 248:.\Generated_Source\PSoC4/BLE_eventHandler.c ****         gattErr = CyBle_HrssWriteEventHandler(eventParam);
 249:.\Generated_Source\PSoC4/BLE_eventHandler.c ****     }
 250:.\Generated_Source\PSoC4/BLE_eventHandler.c **** #endif /* CYBLE_HRS_SERVER */
 251:.\Generated_Source\PSoC4/BLE_eventHandler.c **** #ifdef CYBLE_HTS_SERVER
 252:.\Generated_Source\PSoC4/BLE_eventHandler.c ****     if((CYBLE_GATT_ERR_NONE == gattErr) && ((cyBle_eventHandlerFlag & CYBLE_CALLBACK) != 0u))
 253:.\Generated_Source\PSoC4/BLE_eventHandler.c ****     {
 254:.\Generated_Source\PSoC4/BLE_eventHandler.c ****         gattErr = CyBle_HtssWriteEventHandler(eventParam);
 255:.\Generated_Source\PSoC4/BLE_eventHandler.c ****     }
 256:.\Generated_Source\PSoC4/BLE_eventHandler.c **** #endif /* CYBLE_HTS_SERVER */
 257:.\Generated_Source\PSoC4/BLE_eventHandler.c **** #ifdef CYBLE_LLS_SERVER
 258:.\Generated_Source\PSoC4/BLE_eventHandler.c ****     if((CYBLE_GATT_ERR_NONE == gattErr) && ((cyBle_eventHandlerFlag & CYBLE_CALLBACK) != 0u))
 259:.\Generated_Source\PSoC4/BLE_eventHandler.c ****     {
 260:.\Generated_Source\PSoC4/BLE_eventHandler.c ****         gattErr = CyBle_LlssWriteEventHandler(eventParam);
 261:.\Generated_Source\PSoC4/BLE_eventHandler.c ****     }
 262:.\Generated_Source\PSoC4/BLE_eventHandler.c **** #endif /* CYBLE_LLS_SERVER */
 263:.\Generated_Source\PSoC4/BLE_eventHandler.c **** #ifdef CYBLE_LNS_SERVER
 264:.\Generated_Source\PSoC4/BLE_eventHandler.c ****     if((CYBLE_GATT_ERR_NONE == gattErr) && ((cyBle_eventHandlerFlag & CYBLE_CALLBACK) != 0u))
 265:.\Generated_Source\PSoC4/BLE_eventHandler.c ****     {
 266:.\Generated_Source\PSoC4/BLE_eventHandler.c ****         gattErr = CyBle_LnssWriteEventHandler(eventParam);
 267:.\Generated_Source\PSoC4/BLE_eventHandler.c ****     }
 268:.\Generated_Source\PSoC4/BLE_eventHandler.c **** #endif /* CYBLE_LNS_SERVER */
 269:.\Generated_Source\PSoC4/BLE_eventHandler.c **** #ifdef CYBLE_PASS_SERVER
 270:.\Generated_Source\PSoC4/BLE_eventHandler.c ****     if((CYBLE_GATT_ERR_NONE == gattErr) && ((cyBle_eventHandlerFlag & CYBLE_CALLBACK) != 0u))
 271:.\Generated_Source\PSoC4/BLE_eventHandler.c ****     {
 272:.\Generated_Source\PSoC4/BLE_eventHandler.c ****         gattErr = CyBle_PasssWriteEventHandler(eventParam);
 273:.\Generated_Source\PSoC4/BLE_eventHandler.c ****     }
 274:.\Generated_Source\PSoC4/BLE_eventHandler.c **** #endif /* CYBLE_PASS_SERVER */
 275:.\Generated_Source\PSoC4/BLE_eventHandler.c **** #ifdef CYBLE_RSCS_SERVER
 276:.\Generated_Source\PSoC4/BLE_eventHandler.c ****     if((CYBLE_GATT_ERR_NONE == gattErr) && ((cyBle_eventHandlerFlag & CYBLE_CALLBACK) != 0u))
 277:.\Generated_Source\PSoC4/BLE_eventHandler.c ****     {
 278:.\Generated_Source\PSoC4/BLE_eventHandler.c ****         gattErr = CyBle_RscssWriteEventHandler(eventParam);
 279:.\Generated_Source\PSoC4/BLE_eventHandler.c ****     }
 280:.\Generated_Source\PSoC4/BLE_eventHandler.c **** #endif /* CYBLE_RSCS_SERVER */
 281:.\Generated_Source\PSoC4/BLE_eventHandler.c **** #ifdef CYBLE_SCPS_SERVER
 282:.\Generated_Source\PSoC4/BLE_eventHandler.c ****     if((CYBLE_GATT_ERR_NONE == gattErr) && ((cyBle_eventHandlerFlag & CYBLE_CALLBACK) != 0u))
 283:.\Generated_Source\PSoC4/BLE_eventHandler.c ****     {
 284:.\Generated_Source\PSoC4/BLE_eventHandler.c ****         gattErr = CyBle_ScpssWriteEventHandler(eventParam);
ARM GAS  C:\Users\Zachary\AppData\Local\Temp\ccmvMQUz.s 			page 7


 285:.\Generated_Source\PSoC4/BLE_eventHandler.c ****     }
 286:.\Generated_Source\PSoC4/BLE_eventHandler.c **** #endif /* CYBLE_SCPS_SERVER */
 287:.\Generated_Source\PSoC4/BLE_eventHandler.c **** #ifdef CYBLE_TPS_SERVER
 288:.\Generated_Source\PSoC4/BLE_eventHandler.c ****     if((CYBLE_GATT_ERR_NONE == gattErr) && ((cyBle_eventHandlerFlag & CYBLE_CALLBACK) != 0u))
 289:.\Generated_Source\PSoC4/BLE_eventHandler.c ****     {
 290:.\Generated_Source\PSoC4/BLE_eventHandler.c ****         gattErr = CyBle_TpssWriteEventHandler(eventParam);
 291:.\Generated_Source\PSoC4/BLE_eventHandler.c ****     }
 292:.\Generated_Source\PSoC4/BLE_eventHandler.c **** #endif /* CYBLE_TPS_SERVER */
 293:.\Generated_Source\PSoC4/BLE_eventHandler.c **** #ifdef CYBLE_UDS_SERVER
 294:.\Generated_Source\PSoC4/BLE_eventHandler.c ****     if((CYBLE_GATT_ERR_NONE == gattErr) && ((cyBle_eventHandlerFlag & CYBLE_CALLBACK) != 0u))
 295:.\Generated_Source\PSoC4/BLE_eventHandler.c ****     {
 296:.\Generated_Source\PSoC4/BLE_eventHandler.c ****         gattErr = CyBle_UdssWriteEventHandler(eventParam);
 297:.\Generated_Source\PSoC4/BLE_eventHandler.c ****     }
 298:.\Generated_Source\PSoC4/BLE_eventHandler.c **** #endif /* CYBLE_UDS_SERVER */
 299:.\Generated_Source\PSoC4/BLE_eventHandler.c **** 
 300:.\Generated_Source\PSoC4/BLE_eventHandler.c ****     /* Send response when event was handled by service */
 301:.\Generated_Source\PSoC4/BLE_eventHandler.c ****     if((cyBle_eventHandlerFlag & CYBLE_CALLBACK) == 0u)
 302:.\Generated_Source\PSoC4/BLE_eventHandler.c ****     {
 303:.\Generated_Source\PSoC4/BLE_eventHandler.c ****         if(CYBLE_GATT_ERR_NONE != gattErr)
 304:.\Generated_Source\PSoC4/BLE_eventHandler.c ****         {
 305:.\Generated_Source\PSoC4/BLE_eventHandler.c ****             CYBLE_GATTS_ERR_PARAM_T err_param;
 306:.\Generated_Source\PSoC4/BLE_eventHandler.c ****             
 307:.\Generated_Source\PSoC4/BLE_eventHandler.c ****             err_param.opcode = (uint8) CYBLE_GATT_WRITE_REQ;
 308:.\Generated_Source\PSoC4/BLE_eventHandler.c ****             err_param.attrHandle = eventParam->handleValPair.attrHandle;
 309:.\Generated_Source\PSoC4/BLE_eventHandler.c ****             err_param.errorCode = gattErr;
 310:.\Generated_Source\PSoC4/BLE_eventHandler.c **** 
 311:.\Generated_Source\PSoC4/BLE_eventHandler.c ****             /* Send Error Response */
 312:.\Generated_Source\PSoC4/BLE_eventHandler.c ****             (void)CyBle_GattsErrorRsp(eventParam->connHandle, &err_param);
 313:.\Generated_Source\PSoC4/BLE_eventHandler.c ****         }
 314:.\Generated_Source\PSoC4/BLE_eventHandler.c ****         else
 315:.\Generated_Source\PSoC4/BLE_eventHandler.c ****         {
 316:.\Generated_Source\PSoC4/BLE_eventHandler.c ****             (void)CyBle_GattsWriteRsp(eventParam->connHandle);
 317:.\Generated_Source\PSoC4/BLE_eventHandler.c ****         }
 318:.\Generated_Source\PSoC4/BLE_eventHandler.c ****     }
 319:.\Generated_Source\PSoC4/BLE_eventHandler.c **** }
 320:.\Generated_Source\PSoC4/BLE_eventHandler.c **** 
 321:.\Generated_Source\PSoC4/BLE_eventHandler.c **** 
 322:.\Generated_Source\PSoC4/BLE_eventHandler.c **** /****************************************************************************** 
 323:.\Generated_Source\PSoC4/BLE_eventHandler.c **** ##Function Name: CyBle_ValueConfirmation
 324:.\Generated_Source\PSoC4/BLE_eventHandler.c **** *******************************************************************************
 325:.\Generated_Source\PSoC4/BLE_eventHandler.c **** 
 326:.\Generated_Source\PSoC4/BLE_eventHandler.c **** Summary:
 327:.\Generated_Source\PSoC4/BLE_eventHandler.c ****  Handles the Value Confirmation request event from the BLE stack.
 328:.\Generated_Source\PSoC4/BLE_eventHandler.c **** 
 329:.\Generated_Source\PSoC4/BLE_eventHandler.c **** Parameters:
 330:.\Generated_Source\PSoC4/BLE_eventHandler.c ****  CYBLE_CONN_HANDLE_T *eventParam - Pointer to a structure
 331:.\Generated_Source\PSoC4/BLE_eventHandler.c ****     of type 'CYBLE_CONN_HANDLE_T'
 332:.\Generated_Source\PSoC4/BLE_eventHandler.c **** 
 333:.\Generated_Source\PSoC4/BLE_eventHandler.c **** Return:
 334:.\Generated_Source\PSoC4/BLE_eventHandler.c ****  None
 335:.\Generated_Source\PSoC4/BLE_eventHandler.c **** 
 336:.\Generated_Source\PSoC4/BLE_eventHandler.c **** ******************************************************************************/
 337:.\Generated_Source\PSoC4/BLE_eventHandler.c **** static void CyBle_ValueConfirmation(const CYBLE_CONN_HANDLE_T *eventParam)
 338:.\Generated_Source\PSoC4/BLE_eventHandler.c **** {
 339:.\Generated_Source\PSoC4/BLE_eventHandler.c ****     if(eventParam != NULL)
 340:.\Generated_Source\PSoC4/BLE_eventHandler.c ****     {
 341:.\Generated_Source\PSoC4/BLE_eventHandler.c ****     #ifdef CYBLE_BLS_SERVER
ARM GAS  C:\Users\Zachary\AppData\Local\Temp\ccmvMQUz.s 			page 8


 342:.\Generated_Source\PSoC4/BLE_eventHandler.c ****         CyBle_BlssConfirmationEventHandler(eventParam);
 343:.\Generated_Source\PSoC4/BLE_eventHandler.c ****     #endif /* CYBLE_BLS_SERVER */
 344:.\Generated_Source\PSoC4/BLE_eventHandler.c ****     
 345:.\Generated_Source\PSoC4/BLE_eventHandler.c ****     #ifdef CYBLE_CPS_SERVER
 346:.\Generated_Source\PSoC4/BLE_eventHandler.c ****         if((cyBle_eventHandlerFlag & CYBLE_CALLBACK) != 0u)
 347:.\Generated_Source\PSoC4/BLE_eventHandler.c ****         {
 348:.\Generated_Source\PSoC4/BLE_eventHandler.c ****             CyBle_CpssConfirmationEventHandler(eventParam);
 349:.\Generated_Source\PSoC4/BLE_eventHandler.c ****         }
 350:.\Generated_Source\PSoC4/BLE_eventHandler.c ****     #endif /* CYBLE_CPS_SERVER */
 351:.\Generated_Source\PSoC4/BLE_eventHandler.c ****     
 352:.\Generated_Source\PSoC4/BLE_eventHandler.c ****     #ifdef CYBLE_CSCS_SERVER
 353:.\Generated_Source\PSoC4/BLE_eventHandler.c ****         if((cyBle_eventHandlerFlag & CYBLE_CALLBACK) != 0u)
 354:.\Generated_Source\PSoC4/BLE_eventHandler.c ****         {
 355:.\Generated_Source\PSoC4/BLE_eventHandler.c ****             CyBle_CscssConfirmationEventHandler(eventParam);
 356:.\Generated_Source\PSoC4/BLE_eventHandler.c ****         }
 357:.\Generated_Source\PSoC4/BLE_eventHandler.c ****     #endif /* CYBLE_CSCS_SERVER */
 358:.\Generated_Source\PSoC4/BLE_eventHandler.c ****     
 359:.\Generated_Source\PSoC4/BLE_eventHandler.c ****     #ifdef CYBLE_GLS_SERVER
 360:.\Generated_Source\PSoC4/BLE_eventHandler.c ****         if((cyBle_eventHandlerFlag & CYBLE_CALLBACK) != 0u)
 361:.\Generated_Source\PSoC4/BLE_eventHandler.c ****         {
 362:.\Generated_Source\PSoC4/BLE_eventHandler.c ****             CyBle_GlssConfirmationEventHandler(eventParam);
 363:.\Generated_Source\PSoC4/BLE_eventHandler.c ****         }
 364:.\Generated_Source\PSoC4/BLE_eventHandler.c ****     #endif /* CYBLE_GLS_SERVER */
 365:.\Generated_Source\PSoC4/BLE_eventHandler.c ****     
 366:.\Generated_Source\PSoC4/BLE_eventHandler.c ****     #ifdef CYBLE_HTS_SERVER
 367:.\Generated_Source\PSoC4/BLE_eventHandler.c ****         if((cyBle_eventHandlerFlag & CYBLE_CALLBACK) != 0u)
 368:.\Generated_Source\PSoC4/BLE_eventHandler.c ****         {
 369:.\Generated_Source\PSoC4/BLE_eventHandler.c ****             CyBle_HtssConfirmationEventHandler(eventParam);
 370:.\Generated_Source\PSoC4/BLE_eventHandler.c ****         }
 371:.\Generated_Source\PSoC4/BLE_eventHandler.c ****     #endif /* CYBLE_HTS_SERVER */
 372:.\Generated_Source\PSoC4/BLE_eventHandler.c **** 
 373:.\Generated_Source\PSoC4/BLE_eventHandler.c ****     #ifdef CYBLE_LNS_SERVER
 374:.\Generated_Source\PSoC4/BLE_eventHandler.c ****         if((cyBle_eventHandlerFlag & CYBLE_CALLBACK) != 0u)
 375:.\Generated_Source\PSoC4/BLE_eventHandler.c ****         {
 376:.\Generated_Source\PSoC4/BLE_eventHandler.c ****             CyBle_LnssConfirmationEventHandler(eventParam);
 377:.\Generated_Source\PSoC4/BLE_eventHandler.c ****         }
 378:.\Generated_Source\PSoC4/BLE_eventHandler.c ****     #endif /* CYBLE_LNS_SERVER */
 379:.\Generated_Source\PSoC4/BLE_eventHandler.c ****     
 380:.\Generated_Source\PSoC4/BLE_eventHandler.c ****     #ifdef CYBLE_RSCS_SERVER
 381:.\Generated_Source\PSoC4/BLE_eventHandler.c ****         if((cyBle_eventHandlerFlag & CYBLE_CALLBACK) != 0u)
 382:.\Generated_Source\PSoC4/BLE_eventHandler.c ****         {
 383:.\Generated_Source\PSoC4/BLE_eventHandler.c ****             CyBle_RscssConfirmationEventHandler(eventParam);
 384:.\Generated_Source\PSoC4/BLE_eventHandler.c ****         }
 385:.\Generated_Source\PSoC4/BLE_eventHandler.c ****     #endif /* CYBLE_RSCS_SERVER */
 386:.\Generated_Source\PSoC4/BLE_eventHandler.c ****     
 387:.\Generated_Source\PSoC4/BLE_eventHandler.c ****     #ifdef CYBLE_UDS_SERVER
 388:.\Generated_Source\PSoC4/BLE_eventHandler.c ****         if((cyBle_eventHandlerFlag & CYBLE_CALLBACK) != 0u)
 389:.\Generated_Source\PSoC4/BLE_eventHandler.c ****         {
 390:.\Generated_Source\PSoC4/BLE_eventHandler.c ****             CyBle_UdssConfirmationEventHandler(eventParam);
 391:.\Generated_Source\PSoC4/BLE_eventHandler.c ****         }
 392:.\Generated_Source\PSoC4/BLE_eventHandler.c ****     #endif /* CYBLE_UDS_SERVER */
 393:.\Generated_Source\PSoC4/BLE_eventHandler.c ****     }
 394:.\Generated_Source\PSoC4/BLE_eventHandler.c **** }
 395:.\Generated_Source\PSoC4/BLE_eventHandler.c **** 
 396:.\Generated_Source\PSoC4/BLE_eventHandler.c **** #endif /* CYBLE_GATT_ROLE_SERVER */
 397:.\Generated_Source\PSoC4/BLE_eventHandler.c **** 
 398:.\Generated_Source\PSoC4/BLE_eventHandler.c **** 
ARM GAS  C:\Users\Zachary\AppData\Local\Temp\ccmvMQUz.s 			page 9


 399:.\Generated_Source\PSoC4/BLE_eventHandler.c **** #if (CYBLE_GATT_ROLE_CLIENT)
 400:.\Generated_Source\PSoC4/BLE_eventHandler.c **** 
 401:.\Generated_Source\PSoC4/BLE_eventHandler.c **** /****************************************************************************** 
 402:.\Generated_Source\PSoC4/BLE_eventHandler.c **** ##Function Name: CyBle_GattcWriteResponseEventHandler
 403:.\Generated_Source\PSoC4/BLE_eventHandler.c **** *******************************************************************************
 404:.\Generated_Source\PSoC4/BLE_eventHandler.c **** 
 405:.\Generated_Source\PSoC4/BLE_eventHandler.c **** Summary:
 406:.\Generated_Source\PSoC4/BLE_eventHandler.c ****  Handles the Write response event from the BLE stack.
 407:.\Generated_Source\PSoC4/BLE_eventHandler.c **** 
 408:.\Generated_Source\PSoC4/BLE_eventHandler.c **** Parameters:
 409:.\Generated_Source\PSoC4/BLE_eventHandler.c ****  CYBLE_CONN_HANDLE_T *eventParam - Pointer to a structure
 410:.\Generated_Source\PSoC4/BLE_eventHandler.c ****     of type 'CYBLE_CONN_HANDLE_T'
 411:.\Generated_Source\PSoC4/BLE_eventHandler.c **** 
 412:.\Generated_Source\PSoC4/BLE_eventHandler.c **** Return:
 413:.\Generated_Source\PSoC4/BLE_eventHandler.c ****  None
 414:.\Generated_Source\PSoC4/BLE_eventHandler.c **** 
 415:.\Generated_Source\PSoC4/BLE_eventHandler.c **** ******************************************************************************/
 416:.\Generated_Source\PSoC4/BLE_eventHandler.c **** static void CyBle_GattcWriteResponseEventHandler(const CYBLE_CONN_HANDLE_T *eventParam)
 417:.\Generated_Source\PSoC4/BLE_eventHandler.c **** {
  59              		.loc 1 417 0
  60              		.cfi_startproc
  61 0000 80B5     		push	{r7, lr}
  62              		.cfi_def_cfa_offset 8
  63              		.cfi_offset 7, -8
  64              		.cfi_offset 14, -4
  65 0002 82B0     		sub	sp, sp, #8
  66              		.cfi_def_cfa_offset 16
  67 0004 00AF     		add	r7, sp, #0
  68              		.cfi_def_cfa_register 7
  69 0006 7860     		str	r0, [r7, #4]
 418:.\Generated_Source\PSoC4/BLE_eventHandler.c **** #ifdef CYBLE_ANS_CLIENT
 419:.\Generated_Source\PSoC4/BLE_eventHandler.c ****     CyBle_AnscWriteResponseEventHandler(eventParam);
 420:.\Generated_Source\PSoC4/BLE_eventHandler.c **** #endif /* CYBLE_ANS_CLIENT */
 421:.\Generated_Source\PSoC4/BLE_eventHandler.c **** 
 422:.\Generated_Source\PSoC4/BLE_eventHandler.c **** #ifdef CYBLE_BAS_CLIENT
 423:.\Generated_Source\PSoC4/BLE_eventHandler.c ****     if((cyBle_eventHandlerFlag & CYBLE_CALLBACK) != 0u)
 424:.\Generated_Source\PSoC4/BLE_eventHandler.c ****     {
 425:.\Generated_Source\PSoC4/BLE_eventHandler.c ****         CyBle_BascWriteResponseEventHandler(eventParam);
 426:.\Generated_Source\PSoC4/BLE_eventHandler.c ****     }
 427:.\Generated_Source\PSoC4/BLE_eventHandler.c **** #endif /* CYBLE_BAS_CLIENT */
 428:.\Generated_Source\PSoC4/BLE_eventHandler.c **** 
 429:.\Generated_Source\PSoC4/BLE_eventHandler.c **** #ifdef CYBLE_BLS_CLIENT
 430:.\Generated_Source\PSoC4/BLE_eventHandler.c ****     if((cyBle_eventHandlerFlag & CYBLE_CALLBACK) != 0u)
 431:.\Generated_Source\PSoC4/BLE_eventHandler.c ****     {
 432:.\Generated_Source\PSoC4/BLE_eventHandler.c ****         CyBle_BlscWriteResponseEventHandler(eventParam);
 433:.\Generated_Source\PSoC4/BLE_eventHandler.c ****     }
 434:.\Generated_Source\PSoC4/BLE_eventHandler.c **** #endif /* CYBLE_BLS_CLIENT */
 435:.\Generated_Source\PSoC4/BLE_eventHandler.c **** 
 436:.\Generated_Source\PSoC4/BLE_eventHandler.c **** #ifdef CYBLE_CGMS_CLIENT
 437:.\Generated_Source\PSoC4/BLE_eventHandler.c ****     if((cyBle_eventHandlerFlag & CYBLE_CALLBACK) != 0u)
 438:.\Generated_Source\PSoC4/BLE_eventHandler.c ****     {
 439:.\Generated_Source\PSoC4/BLE_eventHandler.c ****         CyBle_CgmscWriteResponseEventHandler(eventParam);
 440:.\Generated_Source\PSoC4/BLE_eventHandler.c ****     }
 441:.\Generated_Source\PSoC4/BLE_eventHandler.c **** #endif /* CYBLE_CGMS_CLIENT */
 442:.\Generated_Source\PSoC4/BLE_eventHandler.c **** 
 443:.\Generated_Source\PSoC4/BLE_eventHandler.c **** #ifdef CYBLE_CPS_CLIENT
 444:.\Generated_Source\PSoC4/BLE_eventHandler.c ****     if((cyBle_eventHandlerFlag & CYBLE_CALLBACK) != 0u)
ARM GAS  C:\Users\Zachary\AppData\Local\Temp\ccmvMQUz.s 			page 10


 445:.\Generated_Source\PSoC4/BLE_eventHandler.c ****     {
 446:.\Generated_Source\PSoC4/BLE_eventHandler.c ****         CyBle_CpscWriteResponseEventHandler(eventParam);
 447:.\Generated_Source\PSoC4/BLE_eventHandler.c ****     }
 448:.\Generated_Source\PSoC4/BLE_eventHandler.c **** #endif /* CYBLE_CPS_CLIENT */
 449:.\Generated_Source\PSoC4/BLE_eventHandler.c **** 
 450:.\Generated_Source\PSoC4/BLE_eventHandler.c **** #ifdef CYBLE_CSCS_CLIENT
 451:.\Generated_Source\PSoC4/BLE_eventHandler.c ****     if((cyBle_eventHandlerFlag & CYBLE_CALLBACK) != 0u)
 452:.\Generated_Source\PSoC4/BLE_eventHandler.c ****     {
 453:.\Generated_Source\PSoC4/BLE_eventHandler.c ****         CyBle_CscscWriteResponseEventHandler(eventParam);
 454:.\Generated_Source\PSoC4/BLE_eventHandler.c ****     }
 455:.\Generated_Source\PSoC4/BLE_eventHandler.c **** #endif /* CYBLE_CSCS_CLIENT */
 456:.\Generated_Source\PSoC4/BLE_eventHandler.c **** 
 457:.\Generated_Source\PSoC4/BLE_eventHandler.c **** #ifdef CYBLE_CTS_CLIENT
 458:.\Generated_Source\PSoC4/BLE_eventHandler.c ****     if((cyBle_eventHandlerFlag & CYBLE_CALLBACK) != 0u)
 459:.\Generated_Source\PSoC4/BLE_eventHandler.c ****     {
 460:.\Generated_Source\PSoC4/BLE_eventHandler.c ****         CyBle_CtscWriteResponseEventHandler(eventParam);
 461:.\Generated_Source\PSoC4/BLE_eventHandler.c ****     }
 462:.\Generated_Source\PSoC4/BLE_eventHandler.c **** #endif /* CYBLE_CTS_CLIENT */
 463:.\Generated_Source\PSoC4/BLE_eventHandler.c **** 
 464:.\Generated_Source\PSoC4/BLE_eventHandler.c **** #ifdef CYBLE_GLS_CLIENT
 465:.\Generated_Source\PSoC4/BLE_eventHandler.c ****     if((cyBle_eventHandlerFlag & CYBLE_CALLBACK) != 0u)
 466:.\Generated_Source\PSoC4/BLE_eventHandler.c ****     {
 467:.\Generated_Source\PSoC4/BLE_eventHandler.c ****         CyBle_GlscWriteResponseEventHandler(eventParam);
 468:.\Generated_Source\PSoC4/BLE_eventHandler.c ****     }
 469:.\Generated_Source\PSoC4/BLE_eventHandler.c **** #endif /* CYBLE_GLS_CLIENT */
 470:.\Generated_Source\PSoC4/BLE_eventHandler.c **** 
 471:.\Generated_Source\PSoC4/BLE_eventHandler.c **** #ifdef CYBLE_HIDS_CLIENT
 472:.\Generated_Source\PSoC4/BLE_eventHandler.c ****     if((cyBle_eventHandlerFlag & CYBLE_CALLBACK) != 0u)
 473:.\Generated_Source\PSoC4/BLE_eventHandler.c ****     {
 474:.\Generated_Source\PSoC4/BLE_eventHandler.c ****         CyBle_HidscWriteResponseEventHandler(eventParam);
 475:.\Generated_Source\PSoC4/BLE_eventHandler.c ****     }
 476:.\Generated_Source\PSoC4/BLE_eventHandler.c **** #endif /* CYBLE_HIDS_CLIENT */
 477:.\Generated_Source\PSoC4/BLE_eventHandler.c **** 
 478:.\Generated_Source\PSoC4/BLE_eventHandler.c **** #ifdef CYBLE_HRS_CLIENT
 479:.\Generated_Source\PSoC4/BLE_eventHandler.c ****     if((cyBle_eventHandlerFlag & CYBLE_CALLBACK) != 0u)
 480:.\Generated_Source\PSoC4/BLE_eventHandler.c ****     {
 481:.\Generated_Source\PSoC4/BLE_eventHandler.c ****         CyBle_HrscWriteResponseEventHandler(eventParam);
 482:.\Generated_Source\PSoC4/BLE_eventHandler.c ****     }
 483:.\Generated_Source\PSoC4/BLE_eventHandler.c **** #endif /* CYBLE_HRS_CLIENT */
 484:.\Generated_Source\PSoC4/BLE_eventHandler.c **** 
 485:.\Generated_Source\PSoC4/BLE_eventHandler.c **** #ifdef CYBLE_HTS_CLIENT
 486:.\Generated_Source\PSoC4/BLE_eventHandler.c ****     if((cyBle_eventHandlerFlag & CYBLE_CALLBACK) != 0u)
 487:.\Generated_Source\PSoC4/BLE_eventHandler.c ****     {
 488:.\Generated_Source\PSoC4/BLE_eventHandler.c ****         CyBle_HtscWriteResponseEventHandler(eventParam);
 489:.\Generated_Source\PSoC4/BLE_eventHandler.c ****     }
 490:.\Generated_Source\PSoC4/BLE_eventHandler.c **** #endif /* CYBLE_HTS_CLIENT */
 491:.\Generated_Source\PSoC4/BLE_eventHandler.c **** 
 492:.\Generated_Source\PSoC4/BLE_eventHandler.c **** #ifdef CYBLE_LLS_CLIENT
 493:.\Generated_Source\PSoC4/BLE_eventHandler.c ****     if((cyBle_eventHandlerFlag & CYBLE_CALLBACK) != 0u)
 494:.\Generated_Source\PSoC4/BLE_eventHandler.c ****     {
 495:.\Generated_Source\PSoC4/BLE_eventHandler.c ****         CyBle_LlscWriteResponseEventHandler(eventParam);
 496:.\Generated_Source\PSoC4/BLE_eventHandler.c ****     }
 497:.\Generated_Source\PSoC4/BLE_eventHandler.c **** #endif /* CYBLE_LLS_CLIENT */
 498:.\Generated_Source\PSoC4/BLE_eventHandler.c **** 
 499:.\Generated_Source\PSoC4/BLE_eventHandler.c **** #ifdef CYBLE_LNS_CLIENT
 500:.\Generated_Source\PSoC4/BLE_eventHandler.c ****     if((cyBle_eventHandlerFlag & CYBLE_CALLBACK) != 0u)
 501:.\Generated_Source\PSoC4/BLE_eventHandler.c ****     {
ARM GAS  C:\Users\Zachary\AppData\Local\Temp\ccmvMQUz.s 			page 11


 502:.\Generated_Source\PSoC4/BLE_eventHandler.c ****         CyBle_LnscWriteResponseEventHandler(eventParam);
 503:.\Generated_Source\PSoC4/BLE_eventHandler.c ****     }
 504:.\Generated_Source\PSoC4/BLE_eventHandler.c **** #endif /* CYBLE_LNS_CLIENT */
 505:.\Generated_Source\PSoC4/BLE_eventHandler.c **** 
 506:.\Generated_Source\PSoC4/BLE_eventHandler.c **** #ifdef CYBLE_PASS_CLIENT
 507:.\Generated_Source\PSoC4/BLE_eventHandler.c ****     if((cyBle_eventHandlerFlag & CYBLE_CALLBACK) != 0u)
 508:.\Generated_Source\PSoC4/BLE_eventHandler.c ****     {
 509:.\Generated_Source\PSoC4/BLE_eventHandler.c ****         CyBle_PasscWriteResponseEventHandler(eventParam);
 510:.\Generated_Source\PSoC4/BLE_eventHandler.c ****     }
 511:.\Generated_Source\PSoC4/BLE_eventHandler.c **** #endif /* CYBLE_PASS_CLIENT */
 512:.\Generated_Source\PSoC4/BLE_eventHandler.c **** 
 513:.\Generated_Source\PSoC4/BLE_eventHandler.c **** #ifdef CYBLE_RSCS_CLIENT
 514:.\Generated_Source\PSoC4/BLE_eventHandler.c ****     if((cyBle_eventHandlerFlag & CYBLE_CALLBACK) != 0u)
 515:.\Generated_Source\PSoC4/BLE_eventHandler.c ****     {
 516:.\Generated_Source\PSoC4/BLE_eventHandler.c ****         CyBle_RscscWriteResponseEventHandler(eventParam);
 517:.\Generated_Source\PSoC4/BLE_eventHandler.c ****     }
 518:.\Generated_Source\PSoC4/BLE_eventHandler.c **** #endif /* CYBLE_RSCS_CLIENT */
 519:.\Generated_Source\PSoC4/BLE_eventHandler.c **** 
 520:.\Generated_Source\PSoC4/BLE_eventHandler.c **** #ifdef CYBLE_SCPS_CLIENT
 521:.\Generated_Source\PSoC4/BLE_eventHandler.c ****     if((cyBle_eventHandlerFlag & CYBLE_CALLBACK) != 0u)
 522:.\Generated_Source\PSoC4/BLE_eventHandler.c ****     {
 523:.\Generated_Source\PSoC4/BLE_eventHandler.c ****         CyBle_ScpscWriteResponseEventHandler(eventParam);
 524:.\Generated_Source\PSoC4/BLE_eventHandler.c ****     }
 525:.\Generated_Source\PSoC4/BLE_eventHandler.c **** #endif /* CYBLE_SCPS_CLIENT */
 526:.\Generated_Source\PSoC4/BLE_eventHandler.c **** 
 527:.\Generated_Source\PSoC4/BLE_eventHandler.c **** #ifdef CYBLE_TPS_CLIENT
 528:.\Generated_Source\PSoC4/BLE_eventHandler.c ****     if((cyBle_eventHandlerFlag & CYBLE_CALLBACK) != 0u)
 529:.\Generated_Source\PSoC4/BLE_eventHandler.c ****     {
 530:.\Generated_Source\PSoC4/BLE_eventHandler.c ****         CyBle_TpscWriteResponseEventHandler(eventParam);
 531:.\Generated_Source\PSoC4/BLE_eventHandler.c ****     }
 532:.\Generated_Source\PSoC4/BLE_eventHandler.c **** #endif /* CYBLE_TPS_CLIENT */
 533:.\Generated_Source\PSoC4/BLE_eventHandler.c **** 
 534:.\Generated_Source\PSoC4/BLE_eventHandler.c **** #ifdef CYBLE_UDS_CLIENT
 535:.\Generated_Source\PSoC4/BLE_eventHandler.c ****     if((cyBle_eventHandlerFlag & CYBLE_CALLBACK) != 0u)
 536:.\Generated_Source\PSoC4/BLE_eventHandler.c ****     {
 537:.\Generated_Source\PSoC4/BLE_eventHandler.c ****         CyBle_UdscWriteResponseEventHandler(eventParam);
 538:.\Generated_Source\PSoC4/BLE_eventHandler.c ****     }
 539:.\Generated_Source\PSoC4/BLE_eventHandler.c **** #endif /* CYBLE_UDS_CLIENT */
 540:.\Generated_Source\PSoC4/BLE_eventHandler.c **** }
  70              		.loc 1 540 0
  71 0008 BD46     		mov	sp, r7
  72 000a 02B0     		add	sp, sp, #8
  73              		@ sp needed
  74 000c 80BD     		pop	{r7, pc}
  75              		.cfi_endproc
  76              	.LFE2:
  77              		.size	CyBle_GattcWriteResponseEventHandler, .-CyBle_GattcWriteResponseEventHandler
  78 000e C046     		.section	.text.CyBle_NotificationEventHandler,"ax",%progbits
  79              		.align	2
  80              		.code	16
  81              		.thumb_func
  82              		.type	CyBle_NotificationEventHandler, %function
  83              	CyBle_NotificationEventHandler:
  84              	.LFB3:
 541:.\Generated_Source\PSoC4/BLE_eventHandler.c **** 
 542:.\Generated_Source\PSoC4/BLE_eventHandler.c **** 
 543:.\Generated_Source\PSoC4/BLE_eventHandler.c **** /******************************************************************************    
ARM GAS  C:\Users\Zachary\AppData\Local\Temp\ccmvMQUz.s 			page 12


 544:.\Generated_Source\PSoC4/BLE_eventHandler.c **** ##Function Name: CyBle_NotificationEventHandler
 545:.\Generated_Source\PSoC4/BLE_eventHandler.c **** *******************************************************************************
 546:.\Generated_Source\PSoC4/BLE_eventHandler.c **** 
 547:.\Generated_Source\PSoC4/BLE_eventHandler.c **** Summary:
 548:.\Generated_Source\PSoC4/BLE_eventHandler.c ****  Handles the Notification event from BLE stack.
 549:.\Generated_Source\PSoC4/BLE_eventHandler.c **** 
 550:.\Generated_Source\PSoC4/BLE_eventHandler.c **** Parameters:
 551:.\Generated_Source\PSoC4/BLE_eventHandler.c ****  CYBLE_GATTC_HANDLE_VALUE_NTF_PARAM_T * eventParam - event parameter
 552:.\Generated_Source\PSoC4/BLE_eventHandler.c **** 
 553:.\Generated_Source\PSoC4/BLE_eventHandler.c **** Return:
 554:.\Generated_Source\PSoC4/BLE_eventHandler.c ****  None
 555:.\Generated_Source\PSoC4/BLE_eventHandler.c **** 
 556:.\Generated_Source\PSoC4/BLE_eventHandler.c **** ******************************************************************************/
 557:.\Generated_Source\PSoC4/BLE_eventHandler.c **** static void CyBle_NotificationEventHandler(CYBLE_GATTC_HANDLE_VALUE_NTF_PARAM_T *eventParam)
 558:.\Generated_Source\PSoC4/BLE_eventHandler.c **** {
  85              		.loc 1 558 0
  86              		.cfi_startproc
  87 0000 80B5     		push	{r7, lr}
  88              		.cfi_def_cfa_offset 8
  89              		.cfi_offset 7, -8
  90              		.cfi_offset 14, -4
  91 0002 82B0     		sub	sp, sp, #8
  92              		.cfi_def_cfa_offset 16
  93 0004 00AF     		add	r7, sp, #0
  94              		.cfi_def_cfa_register 7
  95 0006 7860     		str	r0, [r7, #4]
 559:.\Generated_Source\PSoC4/BLE_eventHandler.c **** #ifdef CYBLE_ANS_CLIENT
 560:.\Generated_Source\PSoC4/BLE_eventHandler.c ****     CyBle_AnscNotificationEventHandler(eventParam);
 561:.\Generated_Source\PSoC4/BLE_eventHandler.c **** #endif /* CYBLE_ANS_CLIENT */
 562:.\Generated_Source\PSoC4/BLE_eventHandler.c **** #ifdef CYBLE_BAS_CLIENT
 563:.\Generated_Source\PSoC4/BLE_eventHandler.c ****     if((cyBle_eventHandlerFlag & CYBLE_CALLBACK) != 0u)
 564:.\Generated_Source\PSoC4/BLE_eventHandler.c ****     {
 565:.\Generated_Source\PSoC4/BLE_eventHandler.c ****         CyBle_BascNotificationEventHandler(eventParam);
 566:.\Generated_Source\PSoC4/BLE_eventHandler.c ****     }
 567:.\Generated_Source\PSoC4/BLE_eventHandler.c **** #endif /* CYBLE_BAS_CLIENT */
 568:.\Generated_Source\PSoC4/BLE_eventHandler.c **** #ifdef CYBLE_BLS_CLIENT
 569:.\Generated_Source\PSoC4/BLE_eventHandler.c ****     if((cyBle_eventHandlerFlag & CYBLE_CALLBACK) != 0u)
 570:.\Generated_Source\PSoC4/BLE_eventHandler.c ****     {
 571:.\Generated_Source\PSoC4/BLE_eventHandler.c ****         CyBle_BlscNotificationEventHandler(eventParam);
 572:.\Generated_Source\PSoC4/BLE_eventHandler.c ****     }
 573:.\Generated_Source\PSoC4/BLE_eventHandler.c **** #endif /* CYBLE_BLS_CLIENT */
 574:.\Generated_Source\PSoC4/BLE_eventHandler.c **** #ifdef CYBLE_CGMS_CLIENT
 575:.\Generated_Source\PSoC4/BLE_eventHandler.c ****     if((cyBle_eventHandlerFlag & CYBLE_CALLBACK) != 0u)
 576:.\Generated_Source\PSoC4/BLE_eventHandler.c ****     {
 577:.\Generated_Source\PSoC4/BLE_eventHandler.c ****         CyBle_CgmscNotificationEventHandler(eventParam);
 578:.\Generated_Source\PSoC4/BLE_eventHandler.c ****     }
 579:.\Generated_Source\PSoC4/BLE_eventHandler.c **** #endif /* CYBLE_CGMS_CLIENT */
 580:.\Generated_Source\PSoC4/BLE_eventHandler.c **** #ifdef CYBLE_CPS_CLIENT
 581:.\Generated_Source\PSoC4/BLE_eventHandler.c ****     if((cyBle_eventHandlerFlag & CYBLE_CALLBACK) != 0u)
 582:.\Generated_Source\PSoC4/BLE_eventHandler.c ****     {
 583:.\Generated_Source\PSoC4/BLE_eventHandler.c ****         CyBle_CpscNotificationEventHandler(eventParam);
 584:.\Generated_Source\PSoC4/BLE_eventHandler.c ****     }
 585:.\Generated_Source\PSoC4/BLE_eventHandler.c **** #endif /* CYBLE_CPS_CLIENT */
 586:.\Generated_Source\PSoC4/BLE_eventHandler.c **** #ifdef CYBLE_CSCS_CLIENT
 587:.\Generated_Source\PSoC4/BLE_eventHandler.c ****     if((cyBle_eventHandlerFlag & CYBLE_CALLBACK) != 0u)
 588:.\Generated_Source\PSoC4/BLE_eventHandler.c ****     {
 589:.\Generated_Source\PSoC4/BLE_eventHandler.c ****         CyBle_CscscNotificationEventHandler(eventParam);
ARM GAS  C:\Users\Zachary\AppData\Local\Temp\ccmvMQUz.s 			page 13


 590:.\Generated_Source\PSoC4/BLE_eventHandler.c ****     }
 591:.\Generated_Source\PSoC4/BLE_eventHandler.c **** #endif /* CYBLE_CSCS_CLIENT */
 592:.\Generated_Source\PSoC4/BLE_eventHandler.c **** #ifdef CYBLE_CTS_CLIENT
 593:.\Generated_Source\PSoC4/BLE_eventHandler.c ****     if((cyBle_eventHandlerFlag & CYBLE_CALLBACK) != 0u)
 594:.\Generated_Source\PSoC4/BLE_eventHandler.c ****     {
 595:.\Generated_Source\PSoC4/BLE_eventHandler.c ****         CyBle_CtscNotificationEventHandler(eventParam);
 596:.\Generated_Source\PSoC4/BLE_eventHandler.c ****     }
 597:.\Generated_Source\PSoC4/BLE_eventHandler.c **** #endif /* CYBLE_CTS_CLIENT */
 598:.\Generated_Source\PSoC4/BLE_eventHandler.c **** #ifdef CYBLE_GLS_CLIENT
 599:.\Generated_Source\PSoC4/BLE_eventHandler.c ****     if((cyBle_eventHandlerFlag & CYBLE_CALLBACK) != 0u)
 600:.\Generated_Source\PSoC4/BLE_eventHandler.c ****     {
 601:.\Generated_Source\PSoC4/BLE_eventHandler.c ****         CyBle_GlscNotificationEventHandler(eventParam);
 602:.\Generated_Source\PSoC4/BLE_eventHandler.c ****     }
 603:.\Generated_Source\PSoC4/BLE_eventHandler.c **** #endif /* CYBLE_GLS_CLIENT */
 604:.\Generated_Source\PSoC4/BLE_eventHandler.c **** #ifdef CYBLE_HIDS_CLIENT
 605:.\Generated_Source\PSoC4/BLE_eventHandler.c ****     if((cyBle_eventHandlerFlag & CYBLE_CALLBACK) != 0u)
 606:.\Generated_Source\PSoC4/BLE_eventHandler.c ****     {
 607:.\Generated_Source\PSoC4/BLE_eventHandler.c ****         CyBle_HidscNotificationEventHandler(eventParam);
 608:.\Generated_Source\PSoC4/BLE_eventHandler.c ****     }
 609:.\Generated_Source\PSoC4/BLE_eventHandler.c **** #endif /* CYBLE_HIDS_CLIENT */
 610:.\Generated_Source\PSoC4/BLE_eventHandler.c **** #ifdef CYBLE_HRS_CLIENT
 611:.\Generated_Source\PSoC4/BLE_eventHandler.c ****     if((cyBle_eventHandlerFlag & CYBLE_CALLBACK) != 0u)
 612:.\Generated_Source\PSoC4/BLE_eventHandler.c ****     {
 613:.\Generated_Source\PSoC4/BLE_eventHandler.c ****         CyBle_HrscNotificationEventHandler(eventParam);
 614:.\Generated_Source\PSoC4/BLE_eventHandler.c ****     }
 615:.\Generated_Source\PSoC4/BLE_eventHandler.c **** #endif /* CYBLE_HRS_CLIENT */
 616:.\Generated_Source\PSoC4/BLE_eventHandler.c **** #ifdef CYBLE_HTS_CLIENT
 617:.\Generated_Source\PSoC4/BLE_eventHandler.c ****     if((cyBle_eventHandlerFlag & CYBLE_CALLBACK) != 0u)
 618:.\Generated_Source\PSoC4/BLE_eventHandler.c ****     {
 619:.\Generated_Source\PSoC4/BLE_eventHandler.c ****         CyBle_HtscNotificationEventHandler(eventParam);
 620:.\Generated_Source\PSoC4/BLE_eventHandler.c ****     }
 621:.\Generated_Source\PSoC4/BLE_eventHandler.c **** #endif /* CYBLE_HTS_CLIENT */
 622:.\Generated_Source\PSoC4/BLE_eventHandler.c **** #ifdef CYBLE_LNS_CLIENT
 623:.\Generated_Source\PSoC4/BLE_eventHandler.c ****     if((cyBle_eventHandlerFlag & CYBLE_CALLBACK) != 0u)
 624:.\Generated_Source\PSoC4/BLE_eventHandler.c ****     {
 625:.\Generated_Source\PSoC4/BLE_eventHandler.c ****         CyBle_LnscNotificationEventHandler(eventParam);
 626:.\Generated_Source\PSoC4/BLE_eventHandler.c ****     }
 627:.\Generated_Source\PSoC4/BLE_eventHandler.c **** #endif /* CYBLE_LNS_CLIENT */
 628:.\Generated_Source\PSoC4/BLE_eventHandler.c **** #ifdef CYBLE_PASS_CLIENT
 629:.\Generated_Source\PSoC4/BLE_eventHandler.c ****     if((cyBle_eventHandlerFlag & CYBLE_CALLBACK) != 0u)
 630:.\Generated_Source\PSoC4/BLE_eventHandler.c ****     {
 631:.\Generated_Source\PSoC4/BLE_eventHandler.c ****         CyBle_PasscNotificationEventHandler(eventParam);
 632:.\Generated_Source\PSoC4/BLE_eventHandler.c ****     }
 633:.\Generated_Source\PSoC4/BLE_eventHandler.c **** #endif /* CYBLE_PASS_CLIENT */
 634:.\Generated_Source\PSoC4/BLE_eventHandler.c **** #ifdef CYBLE_RSCS_CLIENT
 635:.\Generated_Source\PSoC4/BLE_eventHandler.c ****     if((cyBle_eventHandlerFlag & CYBLE_CALLBACK) != 0u)
 636:.\Generated_Source\PSoC4/BLE_eventHandler.c ****     {
 637:.\Generated_Source\PSoC4/BLE_eventHandler.c ****         CyBle_RscscNotificationEventHandler(eventParam);
 638:.\Generated_Source\PSoC4/BLE_eventHandler.c ****     }
 639:.\Generated_Source\PSoC4/BLE_eventHandler.c **** #endif /* CYBLE_RSCS_CLIENT */
 640:.\Generated_Source\PSoC4/BLE_eventHandler.c **** #ifdef CYBLE_SCPS_CLIENT
 641:.\Generated_Source\PSoC4/BLE_eventHandler.c ****     if((cyBle_eventHandlerFlag & CYBLE_CALLBACK) != 0u)
 642:.\Generated_Source\PSoC4/BLE_eventHandler.c ****     {
 643:.\Generated_Source\PSoC4/BLE_eventHandler.c ****         CyBle_ScpscNotificationEventHandler(eventParam);
 644:.\Generated_Source\PSoC4/BLE_eventHandler.c ****     }
 645:.\Generated_Source\PSoC4/BLE_eventHandler.c **** #endif /* CYBLE_SCPS_CLIENT */
 646:.\Generated_Source\PSoC4/BLE_eventHandler.c **** #ifdef CYBLE_TPS_CLIENT
ARM GAS  C:\Users\Zachary\AppData\Local\Temp\ccmvMQUz.s 			page 14


 647:.\Generated_Source\PSoC4/BLE_eventHandler.c ****     if((cyBle_eventHandlerFlag & CYBLE_CALLBACK) != 0u)
 648:.\Generated_Source\PSoC4/BLE_eventHandler.c ****     {
 649:.\Generated_Source\PSoC4/BLE_eventHandler.c ****         CyBle_TpscNotificationEventHandler(eventParam);
 650:.\Generated_Source\PSoC4/BLE_eventHandler.c ****     }
 651:.\Generated_Source\PSoC4/BLE_eventHandler.c **** #endif /* CYBLE_TPS_CLIENT */
 652:.\Generated_Source\PSoC4/BLE_eventHandler.c **** #ifdef CYBLE_UDS_CLIENT
 653:.\Generated_Source\PSoC4/BLE_eventHandler.c ****     if((cyBle_eventHandlerFlag & CYBLE_CALLBACK) != 0u)
 654:.\Generated_Source\PSoC4/BLE_eventHandler.c ****     {
 655:.\Generated_Source\PSoC4/BLE_eventHandler.c ****         CyBle_UdscNotificationEventHandler(eventParam);
 656:.\Generated_Source\PSoC4/BLE_eventHandler.c ****     }
 657:.\Generated_Source\PSoC4/BLE_eventHandler.c **** #endif /* CYBLE_UDS_CLIENT */
 658:.\Generated_Source\PSoC4/BLE_eventHandler.c **** }
  96              		.loc 1 658 0
  97 0008 BD46     		mov	sp, r7
  98 000a 02B0     		add	sp, sp, #8
  99              		@ sp needed
 100 000c 80BD     		pop	{r7, pc}
 101              		.cfi_endproc
 102              	.LFE3:
 103              		.size	CyBle_NotificationEventHandler, .-CyBle_NotificationEventHandler
 104              		.section	.text.CyBle_IndicationEventHandler,"ax",%progbits
 105              		.align	2
 106              		.code	16
 107              		.thumb_func
 108              		.type	CyBle_IndicationEventHandler, %function
 109              	CyBle_IndicationEventHandler:
 110              	.LFB4:
 659:.\Generated_Source\PSoC4/BLE_eventHandler.c **** 
 660:.\Generated_Source\PSoC4/BLE_eventHandler.c **** 
 661:.\Generated_Source\PSoC4/BLE_eventHandler.c **** /******************************************************************************    
 662:.\Generated_Source\PSoC4/BLE_eventHandler.c **** ##Function Name: CyBle_IndicationEventHandler
 663:.\Generated_Source\PSoC4/BLE_eventHandler.c **** *******************************************************************************
 664:.\Generated_Source\PSoC4/BLE_eventHandler.c **** 
 665:.\Generated_Source\PSoC4/BLE_eventHandler.c **** Summary:
 666:.\Generated_Source\PSoC4/BLE_eventHandler.c ****  Handles the Indication event from BLE stack.
 667:.\Generated_Source\PSoC4/BLE_eventHandler.c **** 
 668:.\Generated_Source\PSoC4/BLE_eventHandler.c **** Parameters:
 669:.\Generated_Source\PSoC4/BLE_eventHandler.c ****  CYBLE_GATTC_HANDLE_VALUE_IND_PARAM_T * eventParam - event parameter
 670:.\Generated_Source\PSoC4/BLE_eventHandler.c **** 
 671:.\Generated_Source\PSoC4/BLE_eventHandler.c **** Return:
 672:.\Generated_Source\PSoC4/BLE_eventHandler.c ****  None
 673:.\Generated_Source\PSoC4/BLE_eventHandler.c **** 
 674:.\Generated_Source\PSoC4/BLE_eventHandler.c **** ******************************************************************************/
 675:.\Generated_Source\PSoC4/BLE_eventHandler.c **** static void CyBle_IndicationEventHandler(CYBLE_GATTC_HANDLE_VALUE_IND_PARAM_T *eventParam)
 676:.\Generated_Source\PSoC4/BLE_eventHandler.c **** {
 111              		.loc 1 676 0
 112              		.cfi_startproc
 113 0000 80B5     		push	{r7, lr}
 114              		.cfi_def_cfa_offset 8
 115              		.cfi_offset 7, -8
 116              		.cfi_offset 14, -4
 117 0002 82B0     		sub	sp, sp, #8
 118              		.cfi_def_cfa_offset 16
 119 0004 00AF     		add	r7, sp, #0
 120              		.cfi_def_cfa_register 7
 121 0006 7860     		str	r0, [r7, #4]
 677:.\Generated_Source\PSoC4/BLE_eventHandler.c **** #ifdef CYBLE_BLS_CLIENT
ARM GAS  C:\Users\Zachary\AppData\Local\Temp\ccmvMQUz.s 			page 15


 678:.\Generated_Source\PSoC4/BLE_eventHandler.c ****     if((cyBle_eventHandlerFlag & CYBLE_CALLBACK) != 0u)
 679:.\Generated_Source\PSoC4/BLE_eventHandler.c ****     {
 680:.\Generated_Source\PSoC4/BLE_eventHandler.c ****         CyBle_BlscIndicationEventHandler(eventParam);
 681:.\Generated_Source\PSoC4/BLE_eventHandler.c ****     }
 682:.\Generated_Source\PSoC4/BLE_eventHandler.c **** #endif /* CYBLE_BLS_CLIENT */
 683:.\Generated_Source\PSoC4/BLE_eventHandler.c **** #ifdef CYBLE_CGMS_CLIENT
 684:.\Generated_Source\PSoC4/BLE_eventHandler.c ****     if((cyBle_eventHandlerFlag & CYBLE_CALLBACK) != 0u)
 685:.\Generated_Source\PSoC4/BLE_eventHandler.c ****     {
 686:.\Generated_Source\PSoC4/BLE_eventHandler.c ****         CyBle_CgmscIndicationEventHandler(eventParam);
 687:.\Generated_Source\PSoC4/BLE_eventHandler.c ****     }
 688:.\Generated_Source\PSoC4/BLE_eventHandler.c **** #endif /* CYBLE_CGMS_CLIENT */
 689:.\Generated_Source\PSoC4/BLE_eventHandler.c **** #ifdef CYBLE_CPS_CLIENT
 690:.\Generated_Source\PSoC4/BLE_eventHandler.c ****     if((cyBle_eventHandlerFlag & CYBLE_CALLBACK) != 0u)
 691:.\Generated_Source\PSoC4/BLE_eventHandler.c ****     {
 692:.\Generated_Source\PSoC4/BLE_eventHandler.c ****         CyBle_CpscIndicationEventHandler(eventParam);
 693:.\Generated_Source\PSoC4/BLE_eventHandler.c ****     }
 694:.\Generated_Source\PSoC4/BLE_eventHandler.c **** #endif /* CYBLE_CPS_CLIENT */
 695:.\Generated_Source\PSoC4/BLE_eventHandler.c **** #ifdef CYBLE_CSCS_CLIENT
 696:.\Generated_Source\PSoC4/BLE_eventHandler.c ****     if((cyBle_eventHandlerFlag & CYBLE_CALLBACK) != 0u)
 697:.\Generated_Source\PSoC4/BLE_eventHandler.c ****     {
 698:.\Generated_Source\PSoC4/BLE_eventHandler.c ****         CyBle_CscscIndicationEventHandler(eventParam);
 699:.\Generated_Source\PSoC4/BLE_eventHandler.c ****     }
 700:.\Generated_Source\PSoC4/BLE_eventHandler.c **** #endif /* CYBLE_CSCS_CLIENT */
 701:.\Generated_Source\PSoC4/BLE_eventHandler.c **** #ifdef CYBLE_GLS_CLIENT
 702:.\Generated_Source\PSoC4/BLE_eventHandler.c ****     if((cyBle_eventHandlerFlag & CYBLE_CALLBACK) != 0u)
 703:.\Generated_Source\PSoC4/BLE_eventHandler.c ****     {
 704:.\Generated_Source\PSoC4/BLE_eventHandler.c ****         CyBle_GlscIndicationEventHandler(eventParam);
 705:.\Generated_Source\PSoC4/BLE_eventHandler.c ****     }
 706:.\Generated_Source\PSoC4/BLE_eventHandler.c **** #endif /* CYBLE_GLS_CLIENT */
 707:.\Generated_Source\PSoC4/BLE_eventHandler.c **** #ifdef CYBLE_HTS_CLIENT
 708:.\Generated_Source\PSoC4/BLE_eventHandler.c ****     if((cyBle_eventHandlerFlag & CYBLE_CALLBACK) != 0u)
 709:.\Generated_Source\PSoC4/BLE_eventHandler.c ****     {
 710:.\Generated_Source\PSoC4/BLE_eventHandler.c ****         CyBle_HtscIndicationEventHandler(eventParam);
 711:.\Generated_Source\PSoC4/BLE_eventHandler.c ****     }
 712:.\Generated_Source\PSoC4/BLE_eventHandler.c **** #endif /* CYBLE_HTS_CLIENT */
 713:.\Generated_Source\PSoC4/BLE_eventHandler.c **** #ifdef CYBLE_LNS_CLIENT
 714:.\Generated_Source\PSoC4/BLE_eventHandler.c ****     if((cyBle_eventHandlerFlag & CYBLE_CALLBACK) != 0u)
 715:.\Generated_Source\PSoC4/BLE_eventHandler.c ****     {
 716:.\Generated_Source\PSoC4/BLE_eventHandler.c ****         CyBle_LnscIndicationEventHandler(eventParam);
 717:.\Generated_Source\PSoC4/BLE_eventHandler.c ****     }
 718:.\Generated_Source\PSoC4/BLE_eventHandler.c **** #endif /* CYBLE_LNS_CLIENT */
 719:.\Generated_Source\PSoC4/BLE_eventHandler.c **** #ifdef CYBLE_RSCS_CLIENT
 720:.\Generated_Source\PSoC4/BLE_eventHandler.c ****     if((cyBle_eventHandlerFlag & CYBLE_CALLBACK) != 0u)
 721:.\Generated_Source\PSoC4/BLE_eventHandler.c ****     {
 722:.\Generated_Source\PSoC4/BLE_eventHandler.c ****         CyBle_RscscIndicationEventHandler(eventParam);
 723:.\Generated_Source\PSoC4/BLE_eventHandler.c ****     }
 724:.\Generated_Source\PSoC4/BLE_eventHandler.c **** #endif /* CYBLE_RSCS_CLIENT */
 725:.\Generated_Source\PSoC4/BLE_eventHandler.c **** #ifdef CYBLE_UDS_CLIENT
 726:.\Generated_Source\PSoC4/BLE_eventHandler.c ****     if((cyBle_eventHandlerFlag & CYBLE_CALLBACK) != 0u)
 727:.\Generated_Source\PSoC4/BLE_eventHandler.c ****     {
 728:.\Generated_Source\PSoC4/BLE_eventHandler.c ****         CyBle_UdscIndicationEventHandler(eventParam);
 729:.\Generated_Source\PSoC4/BLE_eventHandler.c ****     }
 730:.\Generated_Source\PSoC4/BLE_eventHandler.c **** #endif /* CYBLE_UDS_CLIENT */
 731:.\Generated_Source\PSoC4/BLE_eventHandler.c **** }
 122              		.loc 1 731 0
 123 0008 BD46     		mov	sp, r7
 124 000a 02B0     		add	sp, sp, #8
ARM GAS  C:\Users\Zachary\AppData\Local\Temp\ccmvMQUz.s 			page 16


 125              		@ sp needed
 126 000c 80BD     		pop	{r7, pc}
 127              		.cfi_endproc
 128              	.LFE4:
 129              		.size	CyBle_IndicationEventHandler, .-CyBle_IndicationEventHandler
 130              		.section	.text.CyBle_ReadResponseEventHandler,"ax",%progbits
 131              		.align	2
 132              		.code	16
 133              		.thumb_func
 134              		.type	CyBle_ReadResponseEventHandler, %function
 135              	CyBle_ReadResponseEventHandler:
 136              	.LFB5:
 732:.\Generated_Source\PSoC4/BLE_eventHandler.c **** 
 733:.\Generated_Source\PSoC4/BLE_eventHandler.c **** 
 734:.\Generated_Source\PSoC4/BLE_eventHandler.c **** 
 735:.\Generated_Source\PSoC4/BLE_eventHandler.c **** /******************************************************************************    
 736:.\Generated_Source\PSoC4/BLE_eventHandler.c **** ##Function Name: CyBle_ReadResponseEventHandler
 737:.\Generated_Source\PSoC4/BLE_eventHandler.c **** *******************************************************************************
 738:.\Generated_Source\PSoC4/BLE_eventHandler.c **** 
 739:.\Generated_Source\PSoC4/BLE_eventHandler.c **** Summary:
 740:.\Generated_Source\PSoC4/BLE_eventHandler.c ****  Handles the Read Response event from BLE stack.
 741:.\Generated_Source\PSoC4/BLE_eventHandler.c **** 
 742:.\Generated_Source\PSoC4/BLE_eventHandler.c **** Parameters:
 743:.\Generated_Source\PSoC4/BLE_eventHandler.c ****  CYBLE_GATTC_READ_RSP_PARAM_T * eventParam - event parameter
 744:.\Generated_Source\PSoC4/BLE_eventHandler.c **** 
 745:.\Generated_Source\PSoC4/BLE_eventHandler.c **** Return:
 746:.\Generated_Source\PSoC4/BLE_eventHandler.c ****  None
 747:.\Generated_Source\PSoC4/BLE_eventHandler.c **** 
 748:.\Generated_Source\PSoC4/BLE_eventHandler.c **** ******************************************************************************/
 749:.\Generated_Source\PSoC4/BLE_eventHandler.c **** static void CyBle_ReadResponseEventHandler(CYBLE_GATTC_READ_RSP_PARAM_T *eventParam)
 750:.\Generated_Source\PSoC4/BLE_eventHandler.c **** {
 137              		.loc 1 750 0
 138              		.cfi_startproc
 139 0000 80B5     		push	{r7, lr}
 140              		.cfi_def_cfa_offset 8
 141              		.cfi_offset 7, -8
 142              		.cfi_offset 14, -4
 143 0002 82B0     		sub	sp, sp, #8
 144              		.cfi_def_cfa_offset 16
 145 0004 00AF     		add	r7, sp, #0
 146              		.cfi_def_cfa_register 7
 147 0006 7860     		str	r0, [r7, #4]
 751:.\Generated_Source\PSoC4/BLE_eventHandler.c **** #ifdef CYBLE_ANS_CLIENT
 752:.\Generated_Source\PSoC4/BLE_eventHandler.c ****     CyBle_AnscReadResponseEventHandler(eventParam);
 753:.\Generated_Source\PSoC4/BLE_eventHandler.c **** #endif /* CYBLE_ANS_CLIENT */
 754:.\Generated_Source\PSoC4/BLE_eventHandler.c **** #ifdef CYBLE_BAS_CLIENT
 755:.\Generated_Source\PSoC4/BLE_eventHandler.c ****     if((cyBle_eventHandlerFlag & CYBLE_CALLBACK) != 0u)
 756:.\Generated_Source\PSoC4/BLE_eventHandler.c ****     {
 757:.\Generated_Source\PSoC4/BLE_eventHandler.c ****         CyBle_BascReadResponseEventHandler(eventParam);
 758:.\Generated_Source\PSoC4/BLE_eventHandler.c ****     }
 759:.\Generated_Source\PSoC4/BLE_eventHandler.c **** #endif /* CYBLE_BAS_CLIENT */
 760:.\Generated_Source\PSoC4/BLE_eventHandler.c **** #ifdef CYBLE_BLS_CLIENT
 761:.\Generated_Source\PSoC4/BLE_eventHandler.c ****     if((cyBle_eventHandlerFlag & CYBLE_CALLBACK) != 0u)
 762:.\Generated_Source\PSoC4/BLE_eventHandler.c ****     {
 763:.\Generated_Source\PSoC4/BLE_eventHandler.c ****         CyBle_BlscReadResponseEventHandler(eventParam);
 764:.\Generated_Source\PSoC4/BLE_eventHandler.c ****     }
 765:.\Generated_Source\PSoC4/BLE_eventHandler.c **** #endif /* CYBLE_BLS_CLIENT */
ARM GAS  C:\Users\Zachary\AppData\Local\Temp\ccmvMQUz.s 			page 17


 766:.\Generated_Source\PSoC4/BLE_eventHandler.c **** #ifdef CYBLE_CGMS_CLIENT
 767:.\Generated_Source\PSoC4/BLE_eventHandler.c ****     if((cyBle_eventHandlerFlag & CYBLE_CALLBACK) != 0u)
 768:.\Generated_Source\PSoC4/BLE_eventHandler.c ****     {
 769:.\Generated_Source\PSoC4/BLE_eventHandler.c ****         CyBle_CgmscReadResponseEventHandler(eventParam);
 770:.\Generated_Source\PSoC4/BLE_eventHandler.c ****     }
 771:.\Generated_Source\PSoC4/BLE_eventHandler.c **** #endif /* CYBLE_CGMS_CLIENT */
 772:.\Generated_Source\PSoC4/BLE_eventHandler.c **** #ifdef CYBLE_CPS_CLIENT
 773:.\Generated_Source\PSoC4/BLE_eventHandler.c ****     if((cyBle_eventHandlerFlag & CYBLE_CALLBACK) != 0u)
 774:.\Generated_Source\PSoC4/BLE_eventHandler.c ****     {
 775:.\Generated_Source\PSoC4/BLE_eventHandler.c ****         CyBle_CpscReadResponseEventHandler(eventParam);
 776:.\Generated_Source\PSoC4/BLE_eventHandler.c ****     }
 777:.\Generated_Source\PSoC4/BLE_eventHandler.c **** #endif /* CYBLE_CPS_CLIENT */
 778:.\Generated_Source\PSoC4/BLE_eventHandler.c **** #ifdef CYBLE_CSCS_CLIENT
 779:.\Generated_Source\PSoC4/BLE_eventHandler.c ****     if((cyBle_eventHandlerFlag & CYBLE_CALLBACK) != 0u)
 780:.\Generated_Source\PSoC4/BLE_eventHandler.c ****     {
 781:.\Generated_Source\PSoC4/BLE_eventHandler.c ****         CyBle_CscscReadResponseEventHandler(eventParam);
 782:.\Generated_Source\PSoC4/BLE_eventHandler.c ****     }
 783:.\Generated_Source\PSoC4/BLE_eventHandler.c **** #endif /* CYBLE_CSCS_CLIENT */
 784:.\Generated_Source\PSoC4/BLE_eventHandler.c **** #ifdef CYBLE_CTS_CLIENT
 785:.\Generated_Source\PSoC4/BLE_eventHandler.c ****     if((cyBle_eventHandlerFlag & CYBLE_CALLBACK) != 0u)
 786:.\Generated_Source\PSoC4/BLE_eventHandler.c ****     {
 787:.\Generated_Source\PSoC4/BLE_eventHandler.c ****         CyBle_CtscReadResponseEventHandler(eventParam);
 788:.\Generated_Source\PSoC4/BLE_eventHandler.c ****     }
 789:.\Generated_Source\PSoC4/BLE_eventHandler.c **** #endif /* CYBLE_BAS_CLIENT */
 790:.\Generated_Source\PSoC4/BLE_eventHandler.c **** #ifdef CYBLE_DIS_CLIENT
 791:.\Generated_Source\PSoC4/BLE_eventHandler.c ****     if((cyBle_eventHandlerFlag & CYBLE_CALLBACK) != 0u)
 792:.\Generated_Source\PSoC4/BLE_eventHandler.c ****     {
 793:.\Generated_Source\PSoC4/BLE_eventHandler.c ****         CyBle_DiscReadResponseEventHandler(eventParam);
 794:.\Generated_Source\PSoC4/BLE_eventHandler.c ****     }
 795:.\Generated_Source\PSoC4/BLE_eventHandler.c **** #endif /* CYBLE_DIS_CLIENT */
 796:.\Generated_Source\PSoC4/BLE_eventHandler.c **** #ifdef CYBLE_GLS_CLIENT
 797:.\Generated_Source\PSoC4/BLE_eventHandler.c ****     if((cyBle_eventHandlerFlag & CYBLE_CALLBACK) != 0u)
 798:.\Generated_Source\PSoC4/BLE_eventHandler.c ****     {
 799:.\Generated_Source\PSoC4/BLE_eventHandler.c ****         CyBle_GlscReadResponseEventHandler(eventParam);
 800:.\Generated_Source\PSoC4/BLE_eventHandler.c ****     }
 801:.\Generated_Source\PSoC4/BLE_eventHandler.c **** #endif /* CYBLE_GLS_CLIENT */
 802:.\Generated_Source\PSoC4/BLE_eventHandler.c **** #ifdef CYBLE_HIDS_CLIENT
 803:.\Generated_Source\PSoC4/BLE_eventHandler.c ****     if((cyBle_eventHandlerFlag & CYBLE_CALLBACK) != 0u)
 804:.\Generated_Source\PSoC4/BLE_eventHandler.c ****     {
 805:.\Generated_Source\PSoC4/BLE_eventHandler.c ****         CyBle_HidscReadResponseEventHandler(eventParam);
 806:.\Generated_Source\PSoC4/BLE_eventHandler.c ****     }
 807:.\Generated_Source\PSoC4/BLE_eventHandler.c **** #endif /* CYBLE_HIDS_CLIENT */
 808:.\Generated_Source\PSoC4/BLE_eventHandler.c **** #ifdef CYBLE_HRS_CLIENT
 809:.\Generated_Source\PSoC4/BLE_eventHandler.c ****     if((cyBle_eventHandlerFlag & CYBLE_CALLBACK) != 0u)
 810:.\Generated_Source\PSoC4/BLE_eventHandler.c ****     {
 811:.\Generated_Source\PSoC4/BLE_eventHandler.c ****         CyBle_HrscReadResponseEventHandler(eventParam);
 812:.\Generated_Source\PSoC4/BLE_eventHandler.c ****     }
 813:.\Generated_Source\PSoC4/BLE_eventHandler.c **** #endif /* CYBLE_HRS_CLIENT */
 814:.\Generated_Source\PSoC4/BLE_eventHandler.c **** #ifdef CYBLE_HTS_CLIENT
 815:.\Generated_Source\PSoC4/BLE_eventHandler.c ****     if((cyBle_eventHandlerFlag & CYBLE_CALLBACK) != 0u)
 816:.\Generated_Source\PSoC4/BLE_eventHandler.c ****     {
 817:.\Generated_Source\PSoC4/BLE_eventHandler.c ****         CyBle_HtscReadResponseEventHandler(eventParam);
 818:.\Generated_Source\PSoC4/BLE_eventHandler.c ****     }
 819:.\Generated_Source\PSoC4/BLE_eventHandler.c **** #endif /* CYBLE_HTS_CLIENT */
 820:.\Generated_Source\PSoC4/BLE_eventHandler.c **** #ifdef CYBLE_LLS_CLIENT
 821:.\Generated_Source\PSoC4/BLE_eventHandler.c ****     if((cyBle_eventHandlerFlag & CYBLE_CALLBACK) != 0u)
 822:.\Generated_Source\PSoC4/BLE_eventHandler.c ****     {
ARM GAS  C:\Users\Zachary\AppData\Local\Temp\ccmvMQUz.s 			page 18


 823:.\Generated_Source\PSoC4/BLE_eventHandler.c ****         CyBle_LlscReadResponseEventHandler(eventParam);
 824:.\Generated_Source\PSoC4/BLE_eventHandler.c ****     }
 825:.\Generated_Source\PSoC4/BLE_eventHandler.c **** #endif /* CYBLE_LLS_CLIENT */
 826:.\Generated_Source\PSoC4/BLE_eventHandler.c **** #ifdef CYBLE_LNS_CLIENT
 827:.\Generated_Source\PSoC4/BLE_eventHandler.c ****     if((cyBle_eventHandlerFlag & CYBLE_CALLBACK) != 0u)
 828:.\Generated_Source\PSoC4/BLE_eventHandler.c ****     {
 829:.\Generated_Source\PSoC4/BLE_eventHandler.c ****         CyBle_LnscReadResponseEventHandler(eventParam);
 830:.\Generated_Source\PSoC4/BLE_eventHandler.c ****     }
 831:.\Generated_Source\PSoC4/BLE_eventHandler.c **** #endif /* CYBLE_LNS_CLIENT */
 832:.\Generated_Source\PSoC4/BLE_eventHandler.c **** #ifdef CYBLE_NDCS_CLIENT
 833:.\Generated_Source\PSoC4/BLE_eventHandler.c ****     if((cyBle_eventHandlerFlag & CYBLE_CALLBACK) != 0u)
 834:.\Generated_Source\PSoC4/BLE_eventHandler.c ****     {
 835:.\Generated_Source\PSoC4/BLE_eventHandler.c ****         CyBle_NdcscReadResponseEventHandler(eventParam);
 836:.\Generated_Source\PSoC4/BLE_eventHandler.c ****     }
 837:.\Generated_Source\PSoC4/BLE_eventHandler.c **** #endif /* CYBLE_NDCS_CLIENT */
 838:.\Generated_Source\PSoC4/BLE_eventHandler.c **** #ifdef CYBLE_PASS_CLIENT
 839:.\Generated_Source\PSoC4/BLE_eventHandler.c ****     if((cyBle_eventHandlerFlag & CYBLE_CALLBACK) != 0u)
 840:.\Generated_Source\PSoC4/BLE_eventHandler.c ****     {
 841:.\Generated_Source\PSoC4/BLE_eventHandler.c ****         CyBle_PasscReadResponseEventHandler(eventParam);
 842:.\Generated_Source\PSoC4/BLE_eventHandler.c ****     }
 843:.\Generated_Source\PSoC4/BLE_eventHandler.c **** #endif /* CYBLE_PASS_CLIENT */
 844:.\Generated_Source\PSoC4/BLE_eventHandler.c **** #ifdef CYBLE_RSCS_CLIENT
 845:.\Generated_Source\PSoC4/BLE_eventHandler.c ****     if((cyBle_eventHandlerFlag & CYBLE_CALLBACK) != 0u)
 846:.\Generated_Source\PSoC4/BLE_eventHandler.c ****     {
 847:.\Generated_Source\PSoC4/BLE_eventHandler.c ****         CyBle_RscscReadResponseEventHandler(eventParam);
 848:.\Generated_Source\PSoC4/BLE_eventHandler.c ****     }
 849:.\Generated_Source\PSoC4/BLE_eventHandler.c **** #endif /* CYBLE_RSCS_CLIENT */
 850:.\Generated_Source\PSoC4/BLE_eventHandler.c **** #ifdef CYBLE_RTUS_CLIENT
 851:.\Generated_Source\PSoC4/BLE_eventHandler.c ****     if((cyBle_eventHandlerFlag & CYBLE_CALLBACK) != 0u)
 852:.\Generated_Source\PSoC4/BLE_eventHandler.c ****     {
 853:.\Generated_Source\PSoC4/BLE_eventHandler.c ****         CyBle_RtuscReadResponseEventHandler(eventParam);
 854:.\Generated_Source\PSoC4/BLE_eventHandler.c ****     }
 855:.\Generated_Source\PSoC4/BLE_eventHandler.c **** #endif /* CYBLE_RTUS_CLIENT */
 856:.\Generated_Source\PSoC4/BLE_eventHandler.c **** #ifdef CYBLE_SCPS_CLIENT
 857:.\Generated_Source\PSoC4/BLE_eventHandler.c ****     if((cyBle_eventHandlerFlag & CYBLE_CALLBACK) != 0u)
 858:.\Generated_Source\PSoC4/BLE_eventHandler.c ****     {
 859:.\Generated_Source\PSoC4/BLE_eventHandler.c ****         CyBle_ScpscReadResponseEventHandler(eventParam);
 860:.\Generated_Source\PSoC4/BLE_eventHandler.c ****     }
 861:.\Generated_Source\PSoC4/BLE_eventHandler.c **** #endif /* CYBLE_SCPS_CLIENT */
 862:.\Generated_Source\PSoC4/BLE_eventHandler.c **** #ifdef CYBLE_TPS_CLIENT
 863:.\Generated_Source\PSoC4/BLE_eventHandler.c ****     if((cyBle_eventHandlerFlag & CYBLE_CALLBACK) != 0u)
 864:.\Generated_Source\PSoC4/BLE_eventHandler.c ****     {
 865:.\Generated_Source\PSoC4/BLE_eventHandler.c ****         CyBle_TpscReadResponseEventHandler(eventParam);
 866:.\Generated_Source\PSoC4/BLE_eventHandler.c ****     }
 867:.\Generated_Source\PSoC4/BLE_eventHandler.c **** #endif /* CYBLE_TPS_CLIENT */
 868:.\Generated_Source\PSoC4/BLE_eventHandler.c **** #ifdef CYBLE_UDS_CLIENT
 869:.\Generated_Source\PSoC4/BLE_eventHandler.c ****     if((cyBle_eventHandlerFlag & CYBLE_CALLBACK) != 0u)
 870:.\Generated_Source\PSoC4/BLE_eventHandler.c ****     {
 871:.\Generated_Source\PSoC4/BLE_eventHandler.c ****         CyBle_UdscReadResponseEventHandler(eventParam);
 872:.\Generated_Source\PSoC4/BLE_eventHandler.c ****     }
 873:.\Generated_Source\PSoC4/BLE_eventHandler.c **** #endif /* CYBLE_UDS_CLIENT */
 874:.\Generated_Source\PSoC4/BLE_eventHandler.c **** }
 148              		.loc 1 874 0
 149 0008 BD46     		mov	sp, r7
 150 000a 02B0     		add	sp, sp, #8
 151              		@ sp needed
 152 000c 80BD     		pop	{r7, pc}
ARM GAS  C:\Users\Zachary\AppData\Local\Temp\ccmvMQUz.s 			page 19


 153              		.cfi_endproc
 154              	.LFE5:
 155              		.size	CyBle_ReadResponseEventHandler, .-CyBle_ReadResponseEventHandler
 156              		.section	.text.CyBle_GattDisconnectEventHandler,"ax",%progbits
 157              		.align	2
 158              		.code	16
 159              		.thumb_func
 160              		.type	CyBle_GattDisconnectEventHandler, %function
 161              	CyBle_GattDisconnectEventHandler:
 162              	.LFB6:
 875:.\Generated_Source\PSoC4/BLE_eventHandler.c **** #endif /* CYBLE_GATT_ROLE_CLIENT */
 876:.\Generated_Source\PSoC4/BLE_eventHandler.c **** 
 877:.\Generated_Source\PSoC4/BLE_eventHandler.c **** 
 878:.\Generated_Source\PSoC4/BLE_eventHandler.c **** /****************************************************************************** 
 879:.\Generated_Source\PSoC4/BLE_eventHandler.c **** ##Function Name: CyBle_DisconnectEventHandler
 880:.\Generated_Source\PSoC4/BLE_eventHandler.c **** *******************************************************************************
 881:.\Generated_Source\PSoC4/BLE_eventHandler.c **** 
 882:.\Generated_Source\PSoC4/BLE_eventHandler.c **** Summary:
 883:.\Generated_Source\PSoC4/BLE_eventHandler.c ****  Handles the GATT Disconnection event from the BLE stack.
 884:.\Generated_Source\PSoC4/BLE_eventHandler.c **** 
 885:.\Generated_Source\PSoC4/BLE_eventHandler.c **** Parameters:
 886:.\Generated_Source\PSoC4/BLE_eventHandler.c ****  None
 887:.\Generated_Source\PSoC4/BLE_eventHandler.c **** 
 888:.\Generated_Source\PSoC4/BLE_eventHandler.c **** Return:
 889:.\Generated_Source\PSoC4/BLE_eventHandler.c ****  None
 890:.\Generated_Source\PSoC4/BLE_eventHandler.c **** 
 891:.\Generated_Source\PSoC4/BLE_eventHandler.c **** ******************************************************************************/
 892:.\Generated_Source\PSoC4/BLE_eventHandler.c **** static void CyBle_GattDisconnectEventHandler(void)
 893:.\Generated_Source\PSoC4/BLE_eventHandler.c **** {
 163              		.loc 1 893 0
 164              		.cfi_startproc
 165 0000 80B5     		push	{r7, lr}
 166              		.cfi_def_cfa_offset 8
 167              		.cfi_offset 7, -8
 168              		.cfi_offset 14, -4
 169 0002 00AF     		add	r7, sp, #0
 170              		.cfi_def_cfa_register 7
 894:.\Generated_Source\PSoC4/BLE_eventHandler.c ****     cyBle_connHandle.attId = 0u;
 171              		.loc 1 894 0
 172 0004 094B     		ldr	r3, .L8
 173 0006 0022     		mov	r2, #0
 174 0008 5A70     		strb	r2, [r3, #1]
 895:.\Generated_Source\PSoC4/BLE_eventHandler.c ****     cyBle_connHandle.bdHandle = 0u;
 175              		.loc 1 895 0
 176 000a 084B     		ldr	r3, .L8
 177 000c 0022     		mov	r2, #0
 178 000e 1A70     		strb	r2, [r3]
 896:.\Generated_Source\PSoC4/BLE_eventHandler.c ****     
 897:.\Generated_Source\PSoC4/BLE_eventHandler.c ****     #if (CYBLE_GATT_ROLE_CLIENT)
 898:.\Generated_Source\PSoC4/BLE_eventHandler.c ****         if(CYBLE_CLIENT_STATE_DISCOVERED == CyBle_GetClientState())
 179              		.loc 1 898 0
 180 0010 074B     		ldr	r3, .L8+4
 181 0012 1B78     		ldrb	r3, [r3]
 182 0014 052B     		cmp	r3, #5
 183 0016 03D1     		bne	.L6
 899:.\Generated_Source\PSoC4/BLE_eventHandler.c ****         {
 900:.\Generated_Source\PSoC4/BLE_eventHandler.c ****             CyBle_SetClientState(CYBLE_CLIENT_STATE_DISCONNECTED_DISCOVERED);
ARM GAS  C:\Users\Zachary\AppData\Local\Temp\ccmvMQUz.s 			page 20


 184              		.loc 1 900 0
 185 0018 054B     		ldr	r3, .L8+4
 186 001a 0722     		mov	r2, #7
 187 001c 1A70     		strb	r2, [r3]
 188 001e 02E0     		b	.L5
 189              	.L6:
 901:.\Generated_Source\PSoC4/BLE_eventHandler.c ****         }
 902:.\Generated_Source\PSoC4/BLE_eventHandler.c ****         else
 903:.\Generated_Source\PSoC4/BLE_eventHandler.c ****         {
 904:.\Generated_Source\PSoC4/BLE_eventHandler.c ****             CyBle_SetClientState(CYBLE_CLIENT_STATE_DISCONNECTED);
 190              		.loc 1 904 0
 191 0020 034B     		ldr	r3, .L8+4
 192 0022 0822     		mov	r2, #8
 193 0024 1A70     		strb	r2, [r3]
 194              	.L5:
 905:.\Generated_Source\PSoC4/BLE_eventHandler.c ****         }
 906:.\Generated_Source\PSoC4/BLE_eventHandler.c ****     #endif /* CYBLE_GATT_ROLE_CLIENT */
 907:.\Generated_Source\PSoC4/BLE_eventHandler.c ****         
 908:.\Generated_Source\PSoC4/BLE_eventHandler.c ****     #ifdef CYBLE_CPS_SERVER
 909:.\Generated_Source\PSoC4/BLE_eventHandler.c ****         #if CYBLE_GAP_ROLE_BROADCASTER
 910:.\Generated_Source\PSoC4/BLE_eventHandler.c ****             CyBle_CpssDisconnectEventHandler();
 911:.\Generated_Source\PSoC4/BLE_eventHandler.c ****         #endif /* CYBLE_GAP_ROLE_BROADCASTER */
 912:.\Generated_Source\PSoC4/BLE_eventHandler.c ****     #endif /* CYBLE_CPS_SERVER */
 913:.\Generated_Source\PSoC4/BLE_eventHandler.c **** 
 914:.\Generated_Source\PSoC4/BLE_eventHandler.c ****     #ifdef CYBLE_CPS_CLIENT
 915:.\Generated_Source\PSoC4/BLE_eventHandler.c ****         CyBle_CpscDisconnectEventHandler();
 916:.\Generated_Source\PSoC4/BLE_eventHandler.c ****     #endif /* CYBLE_CPS_CLIENT */
 917:.\Generated_Source\PSoC4/BLE_eventHandler.c **** 
 918:.\Generated_Source\PSoC4/BLE_eventHandler.c ****     #ifdef CYBLE_IAS_SERVER
 919:.\Generated_Source\PSoC4/BLE_eventHandler.c ****         CyBle_IassDisconnectEventHandler();
 920:.\Generated_Source\PSoC4/BLE_eventHandler.c ****     #endif /* CYBLE_IAS_SERVER */
 921:.\Generated_Source\PSoC4/BLE_eventHandler.c ****     
 922:.\Generated_Source\PSoC4/BLE_eventHandler.c ****     #ifdef CYBLE_GLS_SERVER
 923:.\Generated_Source\PSoC4/BLE_eventHandler.c ****         CyBle_GlsInit();
 924:.\Generated_Source\PSoC4/BLE_eventHandler.c ****     #endif /* CYBLE_GLS_SERVER */
 925:.\Generated_Source\PSoC4/BLE_eventHandler.c ****     
 926:.\Generated_Source\PSoC4/BLE_eventHandler.c ****     #ifdef CYBLE_LNS_SERVER
 927:.\Generated_Source\PSoC4/BLE_eventHandler.c ****         CyBle_LnsInit();
 928:.\Generated_Source\PSoC4/BLE_eventHandler.c ****     #endif /* CYBLE_LNS_SERVER */
 929:.\Generated_Source\PSoC4/BLE_eventHandler.c ****     
 930:.\Generated_Source\PSoC4/BLE_eventHandler.c ****     #ifdef CYBLE_UDS_SERVER
 931:.\Generated_Source\PSoC4/BLE_eventHandler.c ****         CyBle_UdsInit();
 932:.\Generated_Source\PSoC4/BLE_eventHandler.c ****     #endif /* CYBLE_UDS_SERVER */
 933:.\Generated_Source\PSoC4/BLE_eventHandler.c **** }
 195              		.loc 1 933 0
 196 0026 BD46     		mov	sp, r7
 197              		@ sp needed
 198 0028 80BD     		pop	{r7, pc}
 199              	.L9:
 200 002a C046     		.align	2
 201              	.L8:
 202 002c 00000000 		.word	cyBle_connHandle
 203 0030 00000000 		.word	cyBle_clientState
 204              		.cfi_endproc
 205              	.LFE6:
 206              		.size	CyBle_GattDisconnectEventHandler, .-CyBle_GattDisconnectEventHandler
 207              		.section	.text.CyBle_TimeOutEventHandler,"ax",%progbits
ARM GAS  C:\Users\Zachary\AppData\Local\Temp\ccmvMQUz.s 			page 21


 208              		.align	2
 209              		.code	16
 210              		.thumb_func
 211              		.type	CyBle_TimeOutEventHandler, %function
 212              	CyBle_TimeOutEventHandler:
 213              	.LFB7:
 934:.\Generated_Source\PSoC4/BLE_eventHandler.c **** 
 935:.\Generated_Source\PSoC4/BLE_eventHandler.c **** 
 936:.\Generated_Source\PSoC4/BLE_eventHandler.c **** /****************************************************************************** 
 937:.\Generated_Source\PSoC4/BLE_eventHandler.c **** ##Function Name: CyBle_TimeOutEventHandler
 938:.\Generated_Source\PSoC4/BLE_eventHandler.c **** *******************************************************************************
 939:.\Generated_Source\PSoC4/BLE_eventHandler.c **** 
 940:.\Generated_Source\PSoC4/BLE_eventHandler.c **** Summary:
 941:.\Generated_Source\PSoC4/BLE_eventHandler.c ****  Handles the CYBLE_EVT_TIMEOUT event from the BLE stack.
 942:.\Generated_Source\PSoC4/BLE_eventHandler.c **** 
 943:.\Generated_Source\PSoC4/BLE_eventHandler.c **** Parameters:
 944:.\Generated_Source\PSoC4/BLE_eventHandler.c ****  *eventParam - The pointer to a structure of type CYBLE_TO_REASON_CODE_T.
 945:.\Generated_Source\PSoC4/BLE_eventHandler.c **** 
 946:.\Generated_Source\PSoC4/BLE_eventHandler.c **** Return:
 947:.\Generated_Source\PSoC4/BLE_eventHandler.c ****  None
 948:.\Generated_Source\PSoC4/BLE_eventHandler.c **** 
 949:.\Generated_Source\PSoC4/BLE_eventHandler.c **** ******************************************************************************/
 950:.\Generated_Source\PSoC4/BLE_eventHandler.c **** static void CyBle_TimeOutEventHandler(const CYBLE_TO_REASON_CODE_T *eventParam)
 951:.\Generated_Source\PSoC4/BLE_eventHandler.c **** {
 214              		.loc 1 951 0
 215              		.cfi_startproc
 216 0000 80B5     		push	{r7, lr}
 217              		.cfi_def_cfa_offset 8
 218              		.cfi_offset 7, -8
 219              		.cfi_offset 14, -4
 220 0002 82B0     		sub	sp, sp, #8
 221              		.cfi_def_cfa_offset 16
 222 0004 00AF     		add	r7, sp, #0
 223              		.cfi_def_cfa_register 7
 224 0006 7860     		str	r0, [r7, #4]
 952:.\Generated_Source\PSoC4/BLE_eventHandler.c ****     if(*eventParam == CYBLE_GATT_RSP_TO)
 225              		.loc 1 952 0
 226 0008 7B68     		ldr	r3, [r7, #4]
 227 000a 1B78     		ldrb	r3, [r3]
 228 000c 032B     		cmp	r3, #3
 229 000e 3ED1     		bne	.L11
 953:.\Generated_Source\PSoC4/BLE_eventHandler.c ****     {
 954:.\Generated_Source\PSoC4/BLE_eventHandler.c ****     #if (CYBLE_GATT_ROLE_CLIENT)
 955:.\Generated_Source\PSoC4/BLE_eventHandler.c ****         if(0u != (cyBle_eventHandlerFlag & CYBLE_AUTO_DISCOVERY))
 230              		.loc 1 955 0
 231 0010 254B     		ldr	r3, .L20
 232 0012 1B78     		ldrb	r3, [r3]
 233 0014 DBB2     		uxtb	r3, r3
 234 0016 1A1C     		mov	r2, r3
 235 0018 0223     		mov	r3, #2
 236 001a 1340     		and	r3, r2
 237 001c 37D0     		beq	.L11
 956:.\Generated_Source\PSoC4/BLE_eventHandler.c ****         {
 957:.\Generated_Source\PSoC4/BLE_eventHandler.c ****             switch(CyBle_GetClientState())
 238              		.loc 1 957 0
 239 001e 234B     		ldr	r3, .L20+4
 240 0020 1B78     		ldrb	r3, [r3]
ARM GAS  C:\Users\Zachary\AppData\Local\Temp\ccmvMQUz.s 			page 22


 241 0022 022B     		cmp	r3, #2
 242 0024 10D0     		beq	.L13
 243 0026 02DC     		bgt	.L14
 244 0028 012B     		cmp	r3, #1
 245 002a 05D0     		beq	.L15
 958:.\Generated_Source\PSoC4/BLE_eventHandler.c ****             {
 959:.\Generated_Source\PSoC4/BLE_eventHandler.c ****                 case CYBLE_CLIENT_STATE_SRVC_DISCOVERING:
 960:.\Generated_Source\PSoC4/BLE_eventHandler.c ****                     CyBle_ApplCallback(CYBLE_EVT_GATTC_SRVC_DISCOVERY_FAILED, NULL);
 961:.\Generated_Source\PSoC4/BLE_eventHandler.c ****                     break;
 962:.\Generated_Source\PSoC4/BLE_eventHandler.c ****                 case CYBLE_CLIENT_STATE_INCL_DISCOVERING:
 963:.\Generated_Source\PSoC4/BLE_eventHandler.c ****                     CyBle_ApplCallback(CYBLE_EVT_GATTC_INCL_DISCOVERY_FAILED, NULL);
 964:.\Generated_Source\PSoC4/BLE_eventHandler.c ****                     break;
 965:.\Generated_Source\PSoC4/BLE_eventHandler.c ****                 case CYBLE_CLIENT_STATE_CHAR_DISCOVERING:
 966:.\Generated_Source\PSoC4/BLE_eventHandler.c ****                     CyBle_ApplCallback(CYBLE_EVT_GATTC_CHAR_DISCOVERY_FAILED, NULL);
 967:.\Generated_Source\PSoC4/BLE_eventHandler.c ****                     break;
 968:.\Generated_Source\PSoC4/BLE_eventHandler.c ****                 case CYBLE_CLIENT_STATE_DESCR_DISCOVERING:
 969:.\Generated_Source\PSoC4/BLE_eventHandler.c ****                     CyBle_ApplCallback(CYBLE_EVT_GATTC_DESCR_DISCOVERY_FAILED, NULL);
 970:.\Generated_Source\PSoC4/BLE_eventHandler.c ****                     break;
 971:.\Generated_Source\PSoC4/BLE_eventHandler.c ****                 default:        /* Other states should not be set in Auto discovery mode */
 972:.\Generated_Source\PSoC4/BLE_eventHandler.c ****                     break;
 246              		.loc 1 972 0
 247 002c 24E0     		b	.L18
 248              	.L14:
 957:.\Generated_Source\PSoC4/BLE_eventHandler.c ****             switch(CyBle_GetClientState())
 249              		.loc 1 957 0
 250 002e 032B     		cmp	r3, #3
 251 0030 12D0     		beq	.L16
 252 0032 042B     		cmp	r3, #4
 253 0034 18D0     		beq	.L17
 254              		.loc 1 972 0
 255 0036 1FE0     		b	.L18
 256              	.L15:
 960:.\Generated_Source\PSoC4/BLE_eventHandler.c ****                     CyBle_ApplCallback(CYBLE_EVT_GATTC_SRVC_DISCOVERY_FAILED, NULL);
 257              		.loc 1 960 0
 258 0038 1D4B     		ldr	r3, .L20+8
 259 003a 1B68     		ldr	r3, [r3]
 260 003c 0822     		mov	r2, #8
 261 003e FF32     		add	r2, r2, #255
 262 0040 101C     		mov	r0, r2
 263 0042 0021     		mov	r1, #0
 264 0044 9847     		blx	r3
 961:.\Generated_Source\PSoC4/BLE_eventHandler.c ****                     break;
 265              		.loc 1 961 0
 266 0046 17E0     		b	.L18
 267              	.L13:
 963:.\Generated_Source\PSoC4/BLE_eventHandler.c ****                     CyBle_ApplCallback(CYBLE_EVT_GATTC_INCL_DISCOVERY_FAILED, NULL);
 268              		.loc 1 963 0
 269 0048 194B     		ldr	r3, .L20+8
 270 004a 1B68     		ldr	r3, [r3]
 271 004c 8422     		mov	r2, #132
 272 004e 5200     		lsl	r2, r2, #1
 273 0050 101C     		mov	r0, r2
 274 0052 0021     		mov	r1, #0
 275 0054 9847     		blx	r3
 964:.\Generated_Source\PSoC4/BLE_eventHandler.c ****                     break;
 276              		.loc 1 964 0
 277 0056 0FE0     		b	.L18
ARM GAS  C:\Users\Zachary\AppData\Local\Temp\ccmvMQUz.s 			page 23


 278              	.L16:
 966:.\Generated_Source\PSoC4/BLE_eventHandler.c ****                     CyBle_ApplCallback(CYBLE_EVT_GATTC_CHAR_DISCOVERY_FAILED, NULL);
 279              		.loc 1 966 0
 280 0058 154B     		ldr	r3, .L20+8
 281 005a 1B68     		ldr	r3, [r3]
 282 005c 0A22     		mov	r2, #10
 283 005e FF32     		add	r2, r2, #255
 284 0060 101C     		mov	r0, r2
 285 0062 0021     		mov	r1, #0
 286 0064 9847     		blx	r3
 967:.\Generated_Source\PSoC4/BLE_eventHandler.c ****                     break;
 287              		.loc 1 967 0
 288 0066 07E0     		b	.L18
 289              	.L17:
 969:.\Generated_Source\PSoC4/BLE_eventHandler.c ****                     CyBle_ApplCallback(CYBLE_EVT_GATTC_DESCR_DISCOVERY_FAILED, NULL);
 290              		.loc 1 969 0
 291 0068 114B     		ldr	r3, .L20+8
 292 006a 1B68     		ldr	r3, [r3]
 293 006c 8522     		mov	r2, #133
 294 006e 5200     		lsl	r2, r2, #1
 295 0070 101C     		mov	r0, r2
 296 0072 0021     		mov	r1, #0
 297 0074 9847     		blx	r3
 970:.\Generated_Source\PSoC4/BLE_eventHandler.c ****                     break;
 298              		.loc 1 970 0
 299 0076 C046     		mov	r8, r8
 300              	.L18:
 973:.\Generated_Source\PSoC4/BLE_eventHandler.c ****             }
 974:.\Generated_Source\PSoC4/BLE_eventHandler.c ****             cyBle_eventHandlerFlag &= (uint8)~CYBLE_AUTO_DISCOVERY;
 301              		.loc 1 974 0
 302 0078 0B4B     		ldr	r3, .L20
 303 007a 1B78     		ldrb	r3, [r3]
 304 007c DBB2     		uxtb	r3, r3
 305 007e 0222     		mov	r2, #2
 306 0080 9343     		bic	r3, r2
 307 0082 DAB2     		uxtb	r2, r3
 308 0084 084B     		ldr	r3, .L20
 309 0086 1A70     		strb	r2, [r3]
 975:.\Generated_Source\PSoC4/BLE_eventHandler.c ****             CyBle_SetClientState(CYBLE_CLIENT_STATE_CONNECTED);
 310              		.loc 1 975 0
 311 0088 084B     		ldr	r3, .L20+4
 312 008a 0022     		mov	r2, #0
 313 008c 1A70     		strb	r2, [r3]
 314              	.L11:
 976:.\Generated_Source\PSoC4/BLE_eventHandler.c ****         }
 977:.\Generated_Source\PSoC4/BLE_eventHandler.c ****     #endif /* CYBLE_GATT_ROLE_CLIENT */
 978:.\Generated_Source\PSoC4/BLE_eventHandler.c ****     #ifdef CYBLE_CPS_SERVER
 979:.\Generated_Source\PSoC4/BLE_eventHandler.c ****         CyBle_CpssTimeOutEventHandler();
 980:.\Generated_Source\PSoC4/BLE_eventHandler.c ****     #endif /* CYBLE_CPS_SERVER */
 981:.\Generated_Source\PSoC4/BLE_eventHandler.c ****     }
 982:.\Generated_Source\PSoC4/BLE_eventHandler.c ****     
 983:.\Generated_Source\PSoC4/BLE_eventHandler.c ****     /* Connection procedure timeout */
 984:.\Generated_Source\PSoC4/BLE_eventHandler.c ****     if(*eventParam == CYBLE_GENERIC_TO)
 315              		.loc 1 984 0
 316 008e 7B68     		ldr	r3, [r7, #4]
 317 0090 1B78     		ldrb	r3, [r3]
 318 0092 042B     		cmp	r3, #4
ARM GAS  C:\Users\Zachary\AppData\Local\Temp\ccmvMQUz.s 			page 24


 319 0094 05D1     		bne	.L10
 985:.\Generated_Source\PSoC4/BLE_eventHandler.c ****     {
 986:.\Generated_Source\PSoC4/BLE_eventHandler.c ****     #if(CYBLE_GAP_ROLE_CENTRAL)
 987:.\Generated_Source\PSoC4/BLE_eventHandler.c ****         if(CYBLE_STATE_CONNECTING == CyBle_GetState())
 320              		.loc 1 987 0
 321 0096 074B     		ldr	r3, .L20+12
 322 0098 1B78     		ldrb	r3, [r3]
 323 009a 042B     		cmp	r3, #4
 324 009c 01D1     		bne	.L10
 988:.\Generated_Source\PSoC4/BLE_eventHandler.c ****         {
 989:.\Generated_Source\PSoC4/BLE_eventHandler.c ****             (void)CyBle_GapcCancelDeviceConnection();
 325              		.loc 1 989 0
 326 009e FFF7FEFF 		bl	CyBle_GapcCancelDeviceConnection
 327              	.L10:
 990:.\Generated_Source\PSoC4/BLE_eventHandler.c ****         }
 991:.\Generated_Source\PSoC4/BLE_eventHandler.c ****     #endif /* CYBLE_GAP_ROLE_CENTRAL */
 992:.\Generated_Source\PSoC4/BLE_eventHandler.c ****     }
 993:.\Generated_Source\PSoC4/BLE_eventHandler.c **** }
 328              		.loc 1 993 0
 329 00a2 BD46     		mov	sp, r7
 330 00a4 02B0     		add	sp, sp, #8
 331              		@ sp needed
 332 00a6 80BD     		pop	{r7, pc}
 333              	.L21:
 334              		.align	2
 335              	.L20:
 336 00a8 00000000 		.word	cyBle_eventHandlerFlag
 337 00ac 00000000 		.word	cyBle_clientState
 338 00b0 00000000 		.word	CyBle_ApplCallback
 339 00b4 00000000 		.word	cyBle_state
 340              		.cfi_endproc
 341              	.LFE7:
 342              		.size	CyBle_TimeOutEventHandler, .-CyBle_TimeOutEventHandler
 343              		.section	.text.CyBle_GattConnectReqHandler,"ax",%progbits
 344              		.align	2
 345              		.code	16
 346              		.thumb_func
 347              		.type	CyBle_GattConnectReqHandler, %function
 348              	CyBle_GattConnectReqHandler:
 349              	.LFB8:
 994:.\Generated_Source\PSoC4/BLE_eventHandler.c **** 
 995:.\Generated_Source\PSoC4/BLE_eventHandler.c **** 
 996:.\Generated_Source\PSoC4/BLE_eventHandler.c **** /****************************************************************************** 
 997:.\Generated_Source\PSoC4/BLE_eventHandler.c **** ##Function Name: CyBle_GattConnectReqHandler
 998:.\Generated_Source\PSoC4/BLE_eventHandler.c **** *******************************************************************************
 999:.\Generated_Source\PSoC4/BLE_eventHandler.c **** 
1000:.\Generated_Source\PSoC4/BLE_eventHandler.c **** Summary:
1001:.\Generated_Source\PSoC4/BLE_eventHandler.c ****  Handles the GATT connect event from the BLE stack.
1002:.\Generated_Source\PSoC4/BLE_eventHandler.c **** 
1003:.\Generated_Source\PSoC4/BLE_eventHandler.c **** Parameters:
1004:.\Generated_Source\PSoC4/BLE_eventHandler.c ****  None
1005:.\Generated_Source\PSoC4/BLE_eventHandler.c **** 
1006:.\Generated_Source\PSoC4/BLE_eventHandler.c **** Return:
1007:.\Generated_Source\PSoC4/BLE_eventHandler.c ****  None
1008:.\Generated_Source\PSoC4/BLE_eventHandler.c **** 
1009:.\Generated_Source\PSoC4/BLE_eventHandler.c **** ******************************************************************************/
1010:.\Generated_Source\PSoC4/BLE_eventHandler.c **** static void CyBle_GattConnectReqHandler(void)
ARM GAS  C:\Users\Zachary\AppData\Local\Temp\ccmvMQUz.s 			page 25


1011:.\Generated_Source\PSoC4/BLE_eventHandler.c **** {
 350              		.loc 1 1011 0
 351              		.cfi_startproc
 352 0000 80B5     		push	{r7, lr}
 353              		.cfi_def_cfa_offset 8
 354              		.cfi_offset 7, -8
 355              		.cfi_offset 14, -4
 356 0002 00AF     		add	r7, sp, #0
 357              		.cfi_def_cfa_register 7
1012:.\Generated_Source\PSoC4/BLE_eventHandler.c ****     #ifdef CYBLE_CPS_SERVER
1013:.\Generated_Source\PSoC4/BLE_eventHandler.c ****         CyBle_CpssConnectEventHandler();
1014:.\Generated_Source\PSoC4/BLE_eventHandler.c ****     #endif /* CYBLE_CPS_SERVER */
1015:.\Generated_Source\PSoC4/BLE_eventHandler.c ****     
1016:.\Generated_Source\PSoC4/BLE_eventHandler.c ****     #ifdef CYBLE_CSCS_SERVER
1017:.\Generated_Source\PSoC4/BLE_eventHandler.c ****             CyBle_CscsInit();
1018:.\Generated_Source\PSoC4/BLE_eventHandler.c ****     #endif /* CYBLE_CSCS_SERVER */
1019:.\Generated_Source\PSoC4/BLE_eventHandler.c ****     
1020:.\Generated_Source\PSoC4/BLE_eventHandler.c ****     #ifdef CYBLE_LLS_SERVER
1021:.\Generated_Source\PSoC4/BLE_eventHandler.c ****         CyBle_LlssConnectEventHandler();
1022:.\Generated_Source\PSoC4/BLE_eventHandler.c ****     #endif /* CYBLE_LLS_SERVER */
1023:.\Generated_Source\PSoC4/BLE_eventHandler.c ****     
1024:.\Generated_Source\PSoC4/BLE_eventHandler.c ****     #ifdef CYBLE_HIDS_SERVER
1025:.\Generated_Source\PSoC4/BLE_eventHandler.c ****         CyBle_HidssOnDeviceConnected();
1026:.\Generated_Source\PSoC4/BLE_eventHandler.c ****     #endif /* CYBLE_HIDS_SERVER */
1027:.\Generated_Source\PSoC4/BLE_eventHandler.c **** 
1028:.\Generated_Source\PSoC4/BLE_eventHandler.c ****     #ifdef CYBLE_RSCS_SERVER
1029:.\Generated_Source\PSoC4/BLE_eventHandler.c ****         CyBle_RscsInit();
1030:.\Generated_Source\PSoC4/BLE_eventHandler.c ****     #endif /* CYBLE_RSCS_SERVER */
1031:.\Generated_Source\PSoC4/BLE_eventHandler.c **** }
 358              		.loc 1 1031 0
 359 0004 BD46     		mov	sp, r7
 360              		@ sp needed
 361 0006 80BD     		pop	{r7, pc}
 362              		.cfi_endproc
 363              	.LFE8:
 364              		.size	CyBle_GattConnectReqHandler, .-CyBle_GattConnectReqHandler
 365              		.section	.text.CyBle_IsDeviceAddressValid,"ax",%progbits
 366              		.align	2
 367              		.code	16
 368              		.thumb_func
 369              		.type	CyBle_IsDeviceAddressValid, %function
 370              	CyBle_IsDeviceAddressValid:
 371              	.LFB9:
1032:.\Generated_Source\PSoC4/BLE_eventHandler.c **** 
1033:.\Generated_Source\PSoC4/BLE_eventHandler.c **** 
1034:.\Generated_Source\PSoC4/BLE_eventHandler.c **** #if (CYBLE_GATT_ROLE_SERVER || CYBLE_GATT_ROLE_CLIENT)
1035:.\Generated_Source\PSoC4/BLE_eventHandler.c **** 
1036:.\Generated_Source\PSoC4/BLE_eventHandler.c **** /****************************************************************************** 
1037:.\Generated_Source\PSoC4/BLE_eventHandler.c **** ##Function Name: CyBle_IsDeviceAddressValid
1038:.\Generated_Source\PSoC4/BLE_eventHandler.c **** *******************************************************************************
1039:.\Generated_Source\PSoC4/BLE_eventHandler.c **** 
1040:.\Generated_Source\PSoC4/BLE_eventHandler.c **** Summary:
1041:.\Generated_Source\PSoC4/BLE_eventHandler.c ****  This function verifies that BLE public address has been programmed to SFLASH 
1042:.\Generated_Source\PSoC4/BLE_eventHandler.c ****  during manufacture.
1043:.\Generated_Source\PSoC4/BLE_eventHandler.c **** 
1044:.\Generated_Source\PSoC4/BLE_eventHandler.c **** Parameters:
1045:.\Generated_Source\PSoC4/BLE_eventHandler.c ****  CYBLE_GAP_BD_ADDR_T *sflashDeviceAddress: the pointer to the BD address of 
ARM GAS  C:\Users\Zachary\AppData\Local\Temp\ccmvMQUz.s 			page 26


1046:.\Generated_Source\PSoC4/BLE_eventHandler.c ****                                            type CYBLE_GAP_BD_ADDR_T. 
1047:.\Generated_Source\PSoC4/BLE_eventHandler.c **** 
1048:.\Generated_Source\PSoC4/BLE_eventHandler.c **** Return:
1049:.\Generated_Source\PSoC4/BLE_eventHandler.c ****  Non zero value when a device address differs from the default SFLASH content.
1050:.\Generated_Source\PSoC4/BLE_eventHandler.c **** 
1051:.\Generated_Source\PSoC4/BLE_eventHandler.c **** ******************************************************************************/
1052:.\Generated_Source\PSoC4/BLE_eventHandler.c **** static uint8 CyBle_IsDeviceAddressValid(const CYBLE_GAP_BD_ADDR_T *sflashDeviceAddress)
1053:.\Generated_Source\PSoC4/BLE_eventHandler.c **** {
 372              		.loc 1 1053 0
 373              		.cfi_startproc
 374 0000 80B5     		push	{r7, lr}
 375              		.cfi_def_cfa_offset 8
 376              		.cfi_offset 7, -8
 377              		.cfi_offset 14, -4
 378 0002 84B0     		sub	sp, sp, #16
 379              		.cfi_def_cfa_offset 24
 380 0004 00AF     		add	r7, sp, #0
 381              		.cfi_def_cfa_register 7
 382 0006 7860     		str	r0, [r7, #4]
1054:.\Generated_Source\PSoC4/BLE_eventHandler.c ****     uint8 i;
1055:.\Generated_Source\PSoC4/BLE_eventHandler.c ****     uint8 sflashAddressValid = 0u;
 383              		.loc 1 1055 0
 384 0008 3B1C     		mov	r3, r7
 385 000a 0E33     		add	r3, r3, #14
 386 000c 0022     		mov	r2, #0
 387 000e 1A70     		strb	r2, [r3]
1056:.\Generated_Source\PSoC4/BLE_eventHandler.c ****     
1057:.\Generated_Source\PSoC4/BLE_eventHandler.c ****     if(sflashDeviceAddress -> type == CYBLE_GAP_ADDR_TYPE_PUBLIC)  
 388              		.loc 1 1057 0
 389 0010 7B68     		ldr	r3, [r7, #4]
 390 0012 9B79     		ldrb	r3, [r3, #6]
 391 0014 002B     		cmp	r3, #0
 392 0016 1CD1     		bne	.L24
1058:.\Generated_Source\PSoC4/BLE_eventHandler.c ****     {
1059:.\Generated_Source\PSoC4/BLE_eventHandler.c ****         for(i = 0u; i < CYBLE_GAP_BD_ADDR_SIZE; i++)
 393              		.loc 1 1059 0
 394 0018 3B1C     		mov	r3, r7
 395 001a 0F33     		add	r3, r3, #15
 396 001c 0022     		mov	r2, #0
 397 001e 1A70     		strb	r2, [r3]
 398 0020 12E0     		b	.L25
 399              	.L27:
1060:.\Generated_Source\PSoC4/BLE_eventHandler.c ****         {
1061:.\Generated_Source\PSoC4/BLE_eventHandler.c ****             if(sflashDeviceAddress->bdAddr[i] != 0u)
 400              		.loc 1 1061 0
 401 0022 3B1C     		mov	r3, r7
 402 0024 0F33     		add	r3, r3, #15
 403 0026 1B78     		ldrb	r3, [r3]
 404 0028 7A68     		ldr	r2, [r7, #4]
 405 002a D35C     		ldrb	r3, [r2, r3]
 406 002c 002B     		cmp	r3, #0
 407 002e 04D0     		beq	.L26
1062:.\Generated_Source\PSoC4/BLE_eventHandler.c ****             {
1063:.\Generated_Source\PSoC4/BLE_eventHandler.c ****                 sflashAddressValid = 1u;
 408              		.loc 1 1063 0
 409 0030 3B1C     		mov	r3, r7
 410 0032 0E33     		add	r3, r3, #14
ARM GAS  C:\Users\Zachary\AppData\Local\Temp\ccmvMQUz.s 			page 27


 411 0034 0122     		mov	r2, #1
 412 0036 1A70     		strb	r2, [r3]
1064:.\Generated_Source\PSoC4/BLE_eventHandler.c ****                 break;
 413              		.loc 1 1064 0
 414 0038 0BE0     		b	.L24
 415              	.L26:
1059:.\Generated_Source\PSoC4/BLE_eventHandler.c ****         for(i = 0u; i < CYBLE_GAP_BD_ADDR_SIZE; i++)
 416              		.loc 1 1059 0
 417 003a 3B1C     		mov	r3, r7
 418 003c 0F33     		add	r3, r3, #15
 419 003e 1A78     		ldrb	r2, [r3]
 420 0040 3B1C     		mov	r3, r7
 421 0042 0F33     		add	r3, r3, #15
 422 0044 0132     		add	r2, r2, #1
 423 0046 1A70     		strb	r2, [r3]
 424              	.L25:
1059:.\Generated_Source\PSoC4/BLE_eventHandler.c ****         for(i = 0u; i < CYBLE_GAP_BD_ADDR_SIZE; i++)
 425              		.loc 1 1059 0 is_stmt 0 discriminator 1
 426 0048 3B1C     		mov	r3, r7
 427 004a 0F33     		add	r3, r3, #15
 428 004c 1B78     		ldrb	r3, [r3]
 429 004e 052B     		cmp	r3, #5
 430 0050 E7D9     		bls	.L27
 431              	.L24:
1065:.\Generated_Source\PSoC4/BLE_eventHandler.c ****             }
1066:.\Generated_Source\PSoC4/BLE_eventHandler.c ****         }
1067:.\Generated_Source\PSoC4/BLE_eventHandler.c ****     }
1068:.\Generated_Source\PSoC4/BLE_eventHandler.c ****     return (sflashAddressValid);
 432              		.loc 1 1068 0 is_stmt 1
 433 0052 3B1C     		mov	r3, r7
 434 0054 0E33     		add	r3, r3, #14
 435 0056 1B78     		ldrb	r3, [r3]
1069:.\Generated_Source\PSoC4/BLE_eventHandler.c **** }
 436              		.loc 1 1069 0
 437 0058 181C     		mov	r0, r3
 438 005a BD46     		mov	sp, r7
 439 005c 04B0     		add	sp, sp, #16
 440              		@ sp needed
 441 005e 80BD     		pop	{r7, pc}
 442              		.cfi_endproc
 443              	.LFE9:
 444              		.size	CyBle_IsDeviceAddressValid, .-CyBle_IsDeviceAddressValid
 445              		.section	.text.CyBle_L2Cap_ConnParamUpdateRspEventHandler,"ax",%progbits
 446              		.align	2
 447              		.code	16
 448              		.thumb_func
 449              		.type	CyBle_L2Cap_ConnParamUpdateRspEventHandler, %function
 450              	CyBle_L2Cap_ConnParamUpdateRspEventHandler:
 451              	.LFB10:
1070:.\Generated_Source\PSoC4/BLE_eventHandler.c **** #endif /* CYBLE_GATT_ROLE_SERVER || CYBLE_GATT_ROLE_CLIENT */
1071:.\Generated_Source\PSoC4/BLE_eventHandler.c **** 
1072:.\Generated_Source\PSoC4/BLE_eventHandler.c **** 
1073:.\Generated_Source\PSoC4/BLE_eventHandler.c **** /****************************************************************************** 
1074:.\Generated_Source\PSoC4/BLE_eventHandler.c **** ##Function Name: CyBle_L2Cap_ConnParamUpdateRspHandler
1075:.\Generated_Source\PSoC4/BLE_eventHandler.c **** *******************************************************************************
1076:.\Generated_Source\PSoC4/BLE_eventHandler.c **** 
1077:.\Generated_Source\PSoC4/BLE_eventHandler.c **** Summary:
ARM GAS  C:\Users\Zachary\AppData\Local\Temp\ccmvMQUz.s 			page 28


1078:.\Generated_Source\PSoC4/BLE_eventHandler.c ****  Handles the L2CAP connection parameter response event from
1079:.\Generated_Source\PSoC4/BLE_eventHandler.c ****  the BLE stack.
1080:.\Generated_Source\PSoC4/BLE_eventHandler.c **** 
1081:.\Generated_Source\PSoC4/BLE_eventHandler.c **** Parameters:
1082:.\Generated_Source\PSoC4/BLE_eventHandler.c ****  uint16 response:
1083:.\Generated_Source\PSoC4/BLE_eventHandler.c ****      * Accepted = 0x0000
1084:.\Generated_Source\PSoC4/BLE_eventHandler.c ****      * Rejected = 0x0001
1085:.\Generated_Source\PSoC4/BLE_eventHandler.c **** 
1086:.\Generated_Source\PSoC4/BLE_eventHandler.c **** Return:
1087:.\Generated_Source\PSoC4/BLE_eventHandler.c ****  None
1088:.\Generated_Source\PSoC4/BLE_eventHandler.c **** 
1089:.\Generated_Source\PSoC4/BLE_eventHandler.c **** ******************************************************************************/
1090:.\Generated_Source\PSoC4/BLE_eventHandler.c **** static void CyBle_L2Cap_ConnParamUpdateRspEventHandler(uint16 response)
1091:.\Generated_Source\PSoC4/BLE_eventHandler.c **** {
 452              		.loc 1 1091 0
 453              		.cfi_startproc
 454 0000 80B5     		push	{r7, lr}
 455              		.cfi_def_cfa_offset 8
 456              		.cfi_offset 7, -8
 457              		.cfi_offset 14, -4
 458 0002 82B0     		sub	sp, sp, #8
 459              		.cfi_def_cfa_offset 16
 460 0004 00AF     		add	r7, sp, #0
 461              		.cfi_def_cfa_register 7
 462 0006 021C     		mov	r2, r0
 463 0008 BB1D     		add	r3, r7, #6
 464 000a 1A80     		strh	r2, [r3]
1092:.\Generated_Source\PSoC4/BLE_eventHandler.c ****     #ifdef CYBLE_CPS_SERVER
1093:.\Generated_Source\PSoC4/BLE_eventHandler.c ****         CyBle_CpssConnParamUpdateRspEventHandler(response);
1094:.\Generated_Source\PSoC4/BLE_eventHandler.c ****     #endif /* CYBLE_CPS_SERVER */
1095:.\Generated_Source\PSoC4/BLE_eventHandler.c ****     
1096:.\Generated_Source\PSoC4/BLE_eventHandler.c ****     /* Unreferenced variable warning workaround */
1097:.\Generated_Source\PSoC4/BLE_eventHandler.c ****     if(response != 0u)
1098:.\Generated_Source\PSoC4/BLE_eventHandler.c ****     {
1099:.\Generated_Source\PSoC4/BLE_eventHandler.c ****     }
1100:.\Generated_Source\PSoC4/BLE_eventHandler.c **** }
 465              		.loc 1 1100 0
 466 000c BD46     		mov	sp, r7
 467 000e 02B0     		add	sp, sp, #8
 468              		@ sp needed
 469 0010 80BD     		pop	{r7, pc}
 470              		.cfi_endproc
 471              	.LFE10:
 472              		.size	CyBle_L2Cap_ConnParamUpdateRspEventHandler, .-CyBle_L2Cap_ConnParamUpdateRspEventHandler
 473 0012 C046     		.section	.text.CyBle_GapConnUpdateCompleteEventHandler,"ax",%progbits
 474              		.align	2
 475              		.code	16
 476              		.thumb_func
 477              		.type	CyBle_GapConnUpdateCompleteEventHandler, %function
 478              	CyBle_GapConnUpdateCompleteEventHandler:
 479              	.LFB11:
1101:.\Generated_Source\PSoC4/BLE_eventHandler.c **** 
1102:.\Generated_Source\PSoC4/BLE_eventHandler.c **** 
1103:.\Generated_Source\PSoC4/BLE_eventHandler.c **** /****************************************************************************** 
1104:.\Generated_Source\PSoC4/BLE_eventHandler.c **** ##Function Name: CyBle_GapConnUpdateCompleteEventHandler
1105:.\Generated_Source\PSoC4/BLE_eventHandler.c **** *******************************************************************************
1106:.\Generated_Source\PSoC4/BLE_eventHandler.c **** 
ARM GAS  C:\Users\Zachary\AppData\Local\Temp\ccmvMQUz.s 			page 29


1107:.\Generated_Source\PSoC4/BLE_eventHandler.c **** Summary:
1108:.\Generated_Source\PSoC4/BLE_eventHandler.c ****  Handles the CYBLE_EVT_GAP_CONNECTION_UPDATE_COMPLETE event from
1109:.\Generated_Source\PSoC4/BLE_eventHandler.c ****  the BLE stack.
1110:.\Generated_Source\PSoC4/BLE_eventHandler.c **** 
1111:.\Generated_Source\PSoC4/BLE_eventHandler.c **** Parameters:
1112:.\Generated_Source\PSoC4/BLE_eventHandler.c ****  *eventParam: The pointer to the data structure specified by the event.
1113:.\Generated_Source\PSoC4/BLE_eventHandler.c **** 
1114:.\Generated_Source\PSoC4/BLE_eventHandler.c **** Return:
1115:.\Generated_Source\PSoC4/BLE_eventHandler.c ****  None
1116:.\Generated_Source\PSoC4/BLE_eventHandler.c **** 
1117:.\Generated_Source\PSoC4/BLE_eventHandler.c **** ******************************************************************************/
1118:.\Generated_Source\PSoC4/BLE_eventHandler.c **** static void CyBle_GapConnUpdateCompleteEventHandler(const CYBLE_GAP_CONN_PARAM_UPDATED_IN_CONTROLLE
1119:.\Generated_Source\PSoC4/BLE_eventHandler.c **** {
 480              		.loc 1 1119 0
 481              		.cfi_startproc
 482 0000 80B5     		push	{r7, lr}
 483              		.cfi_def_cfa_offset 8
 484              		.cfi_offset 7, -8
 485              		.cfi_offset 14, -4
 486 0002 82B0     		sub	sp, sp, #8
 487              		.cfi_def_cfa_offset 16
 488 0004 00AF     		add	r7, sp, #0
 489              		.cfi_def_cfa_register 7
 490 0006 7860     		str	r0, [r7, #4]
1120:.\Generated_Source\PSoC4/BLE_eventHandler.c ****     #ifdef CYBLE_CPS_SERVER
1121:.\Generated_Source\PSoC4/BLE_eventHandler.c ****         CyBle_CpssConnUpdateCompleteEventHandler(eventParam);
1122:.\Generated_Source\PSoC4/BLE_eventHandler.c ****     #endif /* CYBLE_CPS_SERVER */
1123:.\Generated_Source\PSoC4/BLE_eventHandler.c ****     
1124:.\Generated_Source\PSoC4/BLE_eventHandler.c ****     /* Unreferenced variable warning workaround */
1125:.\Generated_Source\PSoC4/BLE_eventHandler.c ****     if(eventParam != 0u)
1126:.\Generated_Source\PSoC4/BLE_eventHandler.c ****     {
1127:.\Generated_Source\PSoC4/BLE_eventHandler.c ****     }
1128:.\Generated_Source\PSoC4/BLE_eventHandler.c **** }
 491              		.loc 1 1128 0
 492 0008 BD46     		mov	sp, r7
 493 000a 02B0     		add	sp, sp, #8
 494              		@ sp needed
 495 000c 80BD     		pop	{r7, pc}
 496              		.cfi_endproc
 497              	.LFE11:
 498              		.size	CyBle_GapConnUpdateCompleteEventHandler, .-CyBle_GapConnUpdateCompleteEventHandler
 499              		.section	.text.CyBle_EventHandler,"ax",%progbits
 500              		.align	2
 501              		.global	CyBle_EventHandler
 502              		.code	16
 503              		.thumb_func
 504              		.type	CyBle_EventHandler, %function
 505              	CyBle_EventHandler:
 506              	.LFB12:
1129:.\Generated_Source\PSoC4/BLE_eventHandler.c **** 
1130:.\Generated_Source\PSoC4/BLE_eventHandler.c **** 
1131:.\Generated_Source\PSoC4/BLE_eventHandler.c **** /****************************************************************************** 
1132:.\Generated_Source\PSoC4/BLE_eventHandler.c **** ##Function Name: CyBle_EventHandler
1133:.\Generated_Source\PSoC4/BLE_eventHandler.c **** *******************************************************************************
1134:.\Generated_Source\PSoC4/BLE_eventHandler.c **** 
1135:.\Generated_Source\PSoC4/BLE_eventHandler.c **** Summary:
1136:.\Generated_Source\PSoC4/BLE_eventHandler.c ****  Handles the events from the BLE stack
ARM GAS  C:\Users\Zachary\AppData\Local\Temp\ccmvMQUz.s 			page 30


1137:.\Generated_Source\PSoC4/BLE_eventHandler.c **** 
1138:.\Generated_Source\PSoC4/BLE_eventHandler.c **** Parameters:
1139:.\Generated_Source\PSoC4/BLE_eventHandler.c ****  eventCode:    the event code
1140:.\Generated_Source\PSoC4/BLE_eventHandler.c ****  *eventParam:  the event parameters
1141:.\Generated_Source\PSoC4/BLE_eventHandler.c **** 
1142:.\Generated_Source\PSoC4/BLE_eventHandler.c **** Return:
1143:.\Generated_Source\PSoC4/BLE_eventHandler.c ****  None.
1144:.\Generated_Source\PSoC4/BLE_eventHandler.c **** 
1145:.\Generated_Source\PSoC4/BLE_eventHandler.c **** ******************************************************************************/
1146:.\Generated_Source\PSoC4/BLE_eventHandler.c **** void CyBle_EventHandler(uint8 eventCode, void *eventParam)
1147:.\Generated_Source\PSoC4/BLE_eventHandler.c **** {
 507              		.loc 1 1147 0
 508              		.cfi_startproc
 509 0000 80B5     		push	{r7, lr}
 510              		.cfi_def_cfa_offset 8
 511              		.cfi_offset 7, -8
 512              		.cfi_offset 14, -4
 513 0002 84B0     		sub	sp, sp, #16
 514              		.cfi_def_cfa_offset 24
 515 0004 00AF     		add	r7, sp, #0
 516              		.cfi_def_cfa_register 7
 517 0006 021C     		mov	r2, r0
 518 0008 3960     		str	r1, [r7]
 519 000a FB1D     		add	r3, r7, #7
 520 000c 1A70     		strb	r2, [r3]
1148:.\Generated_Source\PSoC4/BLE_eventHandler.c ****     cyBle_eventHandlerFlag |= CYBLE_CALLBACK;
 521              		.loc 1 1148 0
 522 000e A64B     		ldr	r3, .L69
 523 0010 1B78     		ldrb	r3, [r3]
 524 0012 DBB2     		uxtb	r3, r3
 525 0014 0122     		mov	r2, #1
 526 0016 1343     		orr	r3, r2
 527 0018 DAB2     		uxtb	r2, r3
 528 001a A34B     		ldr	r3, .L69
 529 001c 1A70     		strb	r2, [r3]
1149:.\Generated_Source\PSoC4/BLE_eventHandler.c **** 
1150:.\Generated_Source\PSoC4/BLE_eventHandler.c ****     /* Common Profile event handling */
1151:.\Generated_Source\PSoC4/BLE_eventHandler.c ****     switch(eventCode)
 530              		.loc 1 1151 0
 531 001e FB1D     		add	r3, r7, #7
 532 0020 1B78     		ldrb	r3, [r3]
 533 0022 712B     		cmp	r3, #113
 534 0024 00D9     		bls	.LCB436
 535 0026 24E1     		b	.L68	@long jump
 536              	.LCB436:
 537 0028 9A00     		lsl	r2, r3, #2
 538 002a A04B     		ldr	r3, .L69+4
 539 002c D318     		add	r3, r2, r3
 540 002e 1B68     		ldr	r3, [r3]
 541 0030 9F46     		mov	pc, r3
 542              		.section	.rodata
 543              		.align	2
 544              	.L34:
 545 0000 72020000 		.word	.L68
 546 0004 32000000 		.word	.L33
 547 0008 B0000000 		.word	.L35
 548 000c 72020000 		.word	.L68
ARM GAS  C:\Users\Zachary\AppData\Local\Temp\ccmvMQUz.s 			page 31


 549 0010 72020000 		.word	.L68
 550 0014 BA000000 		.word	.L36
 551 0018 72020000 		.word	.L68
 552 001c 72020000 		.word	.L68
 553 0020 72020000 		.word	.L68
 554 0024 72020000 		.word	.L68
 555 0028 72020000 		.word	.L68
 556 002c 72020000 		.word	.L68
 557 0030 72020000 		.word	.L68
 558 0034 72020000 		.word	.L68
 559 0038 72020000 		.word	.L68
 560 003c 72020000 		.word	.L68
 561 0040 72020000 		.word	.L68
 562 0044 72020000 		.word	.L68
 563 0048 72020000 		.word	.L68
 564 004c 72020000 		.word	.L68
 565 0050 72020000 		.word	.L68
 566 0054 72020000 		.word	.L68
 567 0058 72020000 		.word	.L68
 568 005c 72020000 		.word	.L68
 569 0060 72020000 		.word	.L68
 570 0064 72020000 		.word	.L68
 571 0068 72020000 		.word	.L68
 572 006c 72020000 		.word	.L68
 573 0070 72020000 		.word	.L68
 574 0074 72020000 		.word	.L68
 575 0078 72020000 		.word	.L68
 576 007c 72020000 		.word	.L68
 577 0080 72020000 		.word	.L68
 578 0084 C4000000 		.word	.L38
 579 0088 72020000 		.word	.L68
 580 008c 72020000 		.word	.L68
 581 0090 72020000 		.word	.L68
 582 0094 72020000 		.word	.L68
 583 0098 72020000 		.word	.L68
 584 009c FC000000 		.word	.L39
 585 00a0 18010000 		.word	.L40
 586 00a4 72020000 		.word	.L68
 587 00a8 F2000000 		.word	.L41
 588 00ac 20010000 		.word	.L42
 589 00b0 72020000 		.word	.L68
 590 00b4 72020000 		.word	.L68
 591 00b8 72020000 		.word	.L68
 592 00bc 72020000 		.word	.L68
 593 00c0 72020000 		.word	.L68
 594 00c4 72020000 		.word	.L68
 595 00c8 72020000 		.word	.L68
 596 00cc 72020000 		.word	.L68
 597 00d0 72020000 		.word	.L68
 598 00d4 72020000 		.word	.L68
 599 00d8 72020000 		.word	.L68
 600 00dc 72020000 		.word	.L68
 601 00e0 72020000 		.word	.L68
 602 00e4 72020000 		.word	.L68
 603 00e8 72020000 		.word	.L68
 604 00ec 72020000 		.word	.L68
 605 00f0 72020000 		.word	.L68
ARM GAS  C:\Users\Zachary\AppData\Local\Temp\ccmvMQUz.s 			page 32


 606 00f4 72020000 		.word	.L68
 607 00f8 72020000 		.word	.L68
 608 00fc 72020000 		.word	.L68
 609 0100 20020000 		.word	.L43
 610 0104 A0010000 		.word	.L44
 611 0108 C0010000 		.word	.L45
 612 010c C6010000 		.word	.L46
 613 0110 72020000 		.word	.L68
 614 0114 02020000 		.word	.L47
 615 0118 0C020000 		.word	.L48
 616 011c 16020000 		.word	.L49
 617 0120 72020000 		.word	.L68
 618 0124 5E020000 		.word	.L50
 619 0128 72020000 		.word	.L68
 620 012c 72020000 		.word	.L68
 621 0130 72020000 		.word	.L68
 622 0134 68020000 		.word	.L51
 623 0138 72020000 		.word	.L68
 624 013c 72020000 		.word	.L68
 625 0140 72020000 		.word	.L68
 626 0144 72020000 		.word	.L68
 627 0148 2A020000 		.word	.L52
 628 014c 34020000 		.word	.L53
 629 0150 72020000 		.word	.L68
 630 0154 72020000 		.word	.L68
 631 0158 72020000 		.word	.L68
 632 015c 72020000 		.word	.L68
 633 0160 72020000 		.word	.L68
 634 0164 72020000 		.word	.L68
 635 0168 72020000 		.word	.L68
 636 016c 72020000 		.word	.L68
 637 0170 72020000 		.word	.L68
 638 0174 72020000 		.word	.L68
 639 0178 72020000 		.word	.L68
 640 017c 72020000 		.word	.L68
 641 0180 72020000 		.word	.L68
 642 0184 72020000 		.word	.L68
 643 0188 72020000 		.word	.L68
 644 018c 72020000 		.word	.L68
 645 0190 72020000 		.word	.L68
 646 0194 72020000 		.word	.L68
 647 0198 72020000 		.word	.L68
 648 019c 72020000 		.word	.L68
 649 01a0 72020000 		.word	.L68
 650 01a4 72020000 		.word	.L68
 651 01a8 72020000 		.word	.L68
 652 01ac 72020000 		.word	.L68
 653 01b0 72020000 		.word	.L68
 654 01b4 72020000 		.word	.L68
 655 01b8 72020000 		.word	.L68
 656 01bc 72020000 		.word	.L68
 657 01c0 72020000 		.word	.L68
 658 01c4 94010000 		.word	.L54
 659              		.section	.text.CyBle_EventHandler
 660              	.L33:
 661              	.LBB2:
1152:.\Generated_Source\PSoC4/BLE_eventHandler.c ****     {
ARM GAS  C:\Users\Zachary\AppData\Local\Temp\ccmvMQUz.s 			page 33


1153:.\Generated_Source\PSoC4/BLE_eventHandler.c ****         /**********************************************************
1154:.\Generated_Source\PSoC4/BLE_eventHandler.c ****         ##General events
1155:.\Generated_Source\PSoC4/BLE_eventHandler.c ****         ***********************************************************/
1156:.\Generated_Source\PSoC4/BLE_eventHandler.c ****         case CYBLE_EVT_STACK_ON:
1157:.\Generated_Source\PSoC4/BLE_eventHandler.c ****         #if(CYBLE_MODE_PROFILE)
1158:.\Generated_Source\PSoC4/BLE_eventHandler.c ****         {
1159:.\Generated_Source\PSoC4/BLE_eventHandler.c ****             CYBLE_BLESS_PWR_IN_DB_T bleSsPowerLevel;
1160:.\Generated_Source\PSoC4/BLE_eventHandler.c ****             
1161:.\Generated_Source\PSoC4/BLE_eventHandler.c ****             /* Set Tx Power Level for advertising and connection channels */
1162:.\Generated_Source\PSoC4/BLE_eventHandler.c ****             bleSsPowerLevel.blePwrLevelInDbm = CYBLE_TX_POWER_LEVEL;
 662              		.loc 1 1162 0
 663 0032 3B1C     		mov	r3, r7
 664 0034 0C33     		add	r3, r3, #12
 665 0036 0722     		mov	r2, #7
 666 0038 1A70     		strb	r2, [r3]
1163:.\Generated_Source\PSoC4/BLE_eventHandler.c ****             bleSsPowerLevel.bleSsChId = CYBLE_LL_ADV_CH_TYPE;
 667              		.loc 1 1163 0
 668 003a 3B1C     		mov	r3, r7
 669 003c 0C33     		add	r3, r3, #12
 670 003e 0022     		mov	r2, #0
 671 0040 5A70     		strb	r2, [r3, #1]
1164:.\Generated_Source\PSoC4/BLE_eventHandler.c ****             (void) CyBle_SetTxPowerLevel (&bleSsPowerLevel);
 672              		.loc 1 1164 0
 673 0042 3B1C     		mov	r3, r7
 674 0044 0C33     		add	r3, r3, #12
 675 0046 181C     		mov	r0, r3
 676 0048 FFF7FEFF 		bl	CyBle_SetTxPowerLevel
1165:.\Generated_Source\PSoC4/BLE_eventHandler.c ****             bleSsPowerLevel.blePwrLevelInDbm = CYBLE_TX_POWER_LEVEL;
 677              		.loc 1 1165 0
 678 004c 3B1C     		mov	r3, r7
 679 004e 0C33     		add	r3, r3, #12
 680 0050 0722     		mov	r2, #7
 681 0052 1A70     		strb	r2, [r3]
1166:.\Generated_Source\PSoC4/BLE_eventHandler.c ****             bleSsPowerLevel.bleSsChId = CYBLE_LL_CONN_CH_TYPE;
 682              		.loc 1 1166 0
 683 0054 3B1C     		mov	r3, r7
 684 0056 0C33     		add	r3, r3, #12
 685 0058 0122     		mov	r2, #1
 686 005a 5A70     		strb	r2, [r3, #1]
1167:.\Generated_Source\PSoC4/BLE_eventHandler.c ****             (void) CyBle_SetTxPowerLevel (&bleSsPowerLevel);
 687              		.loc 1 1167 0
 688 005c 3B1C     		mov	r3, r7
 689 005e 0C33     		add	r3, r3, #12
 690 0060 181C     		mov	r0, r3
 691 0062 FFF7FEFF 		bl	CyBle_SetTxPowerLevel
 692              	.LBE2:
1168:.\Generated_Source\PSoC4/BLE_eventHandler.c ****         }
1169:.\Generated_Source\PSoC4/BLE_eventHandler.c ****         #endif /* CYBLE_MODE_PROFILE */
1170:.\Generated_Source\PSoC4/BLE_eventHandler.c ****         #if (CYBLE_GATT_ROLE_SERVER || CYBLE_GATT_ROLE_CLIENT)
1171:.\Generated_Source\PSoC4/BLE_eventHandler.c ****             /* Set device Address  */
1172:.\Generated_Source\PSoC4/BLE_eventHandler.c ****             if(CyBle_IsDeviceAddressValid(cyBle_sflashDeviceAddress) != 0u)
 693              		.loc 1 1172 0
 694 0066 924B     		ldr	r3, .L69+8
 695 0068 1B68     		ldr	r3, [r3]
 696 006a 181C     		mov	r0, r3
 697 006c FFF7FEFF 		bl	CyBle_IsDeviceAddressValid
 698 0070 031C     		mov	r3, r0
ARM GAS  C:\Users\Zachary\AppData\Local\Temp\ccmvMQUz.s 			page 34


 699 0072 002B     		cmp	r3, #0
 700 0074 05D0     		beq	.L55
1173:.\Generated_Source\PSoC4/BLE_eventHandler.c ****             {
1174:.\Generated_Source\PSoC4/BLE_eventHandler.c ****                 (void) CyBle_SetDeviceAddress(cyBle_sflashDeviceAddress);
 701              		.loc 1 1174 0
 702 0076 8E4B     		ldr	r3, .L69+8
 703 0078 1B68     		ldr	r3, [r3]
 704 007a 181C     		mov	r0, r3
 705 007c FFF7FEFF 		bl	CyBle_SetDeviceAddress
 706 0080 0FE0     		b	.L56
 707              	.L55:
1175:.\Generated_Source\PSoC4/BLE_eventHandler.c ****                 #if(CYBLE_GAP_ROLE_PERIPHERAL || CYBLE_GAP_ROLE_BROADCASTER)
1176:.\Generated_Source\PSoC4/BLE_eventHandler.c ****                     CyBle_ChangeAdDeviceAddress(cyBle_sflashDeviceAddress, 0u);
1177:.\Generated_Source\PSoC4/BLE_eventHandler.c ****                     CyBle_ChangeAdDeviceAddress(cyBle_sflashDeviceAddress, 1u);
1178:.\Generated_Source\PSoC4/BLE_eventHandler.c ****                 #endif /* CYBLE_GAP_ROLE_PERIPHERAL || CYBLE_GAP_ROLE_BROADCASTER */    
1179:.\Generated_Source\PSoC4/BLE_eventHandler.c ****             }
1180:.\Generated_Source\PSoC4/BLE_eventHandler.c ****             else
1181:.\Generated_Source\PSoC4/BLE_eventHandler.c ****             {
1182:.\Generated_Source\PSoC4/BLE_eventHandler.c ****             #if (SILICON_GENERATED_DEVICE_ADDRESS != 0u)
1183:.\Generated_Source\PSoC4/BLE_eventHandler.c ****                 cyBle_deviceAddress.bdAddr[0] = CYBLE_SFLASH_DIE_X_REG;
 708              		.loc 1 1183 0
 709 0082 8C4B     		ldr	r3, .L69+12
 710 0084 1A78     		ldrb	r2, [r3]
 711 0086 8C4B     		ldr	r3, .L69+16
 712 0088 1A70     		strb	r2, [r3]
1184:.\Generated_Source\PSoC4/BLE_eventHandler.c ****                 cyBle_deviceAddress.bdAddr[1] = CYBLE_SFLASH_DIE_Y_REG;
 713              		.loc 1 1184 0
 714 008a 8C4B     		ldr	r3, .L69+20
 715 008c 1A78     		ldrb	r2, [r3]
 716 008e 8A4B     		ldr	r3, .L69+16
 717 0090 5A70     		strb	r2, [r3, #1]
1185:.\Generated_Source\PSoC4/BLE_eventHandler.c ****                 cyBle_deviceAddress.bdAddr[2] = CYBLE_SFLASH_DIE_WAFER_REG;
 718              		.loc 1 1185 0
 719 0092 8B4B     		ldr	r3, .L69+24
 720 0094 1A78     		ldrb	r2, [r3]
 721 0096 884B     		ldr	r3, .L69+16
 722 0098 9A70     		strb	r2, [r3, #2]
1186:.\Generated_Source\PSoC4/BLE_eventHandler.c ****             #endif /* SILICON_GENERATED_DEVICE_ADDRESS != 0u */
1187:.\Generated_Source\PSoC4/BLE_eventHandler.c ****                 (void) CyBle_SetDeviceAddress(&cyBle_deviceAddress);
 723              		.loc 1 1187 0
 724 009a 874B     		ldr	r3, .L69+16
 725 009c 181C     		mov	r0, r3
 726 009e FFF7FEFF 		bl	CyBle_SetDeviceAddress
 727              	.L56:
1188:.\Generated_Source\PSoC4/BLE_eventHandler.c ****                 #if(CYBLE_GAP_ROLE_PERIPHERAL || CYBLE_GAP_ROLE_BROADCASTER)
1189:.\Generated_Source\PSoC4/BLE_eventHandler.c ****                     CyBle_ChangeAdDeviceAddress(&cyBle_deviceAddress, 0u);
1190:.\Generated_Source\PSoC4/BLE_eventHandler.c ****                     CyBle_ChangeAdDeviceAddress(&cyBle_deviceAddress, 1u);
1191:.\Generated_Source\PSoC4/BLE_eventHandler.c ****                 #endif /* CYBLE_GAP_ROLE_PERIPHERAL || CYBLE_GAP_ROLE_BROADCASTER */    
1192:.\Generated_Source\PSoC4/BLE_eventHandler.c ****             }
1193:.\Generated_Source\PSoC4/BLE_eventHandler.c ****             /* Set device IO Capability  */
1194:.\Generated_Source\PSoC4/BLE_eventHandler.c ****             (void) CyBle_GapSetIoCap(CYBLE_IO_CAPABILITY);    
 728              		.loc 1 1194 0
 729 00a2 0320     		mov	r0, #3
 730 00a4 FFF7FEFF 		bl	CyBle_GapSetIoCap
1195:.\Generated_Source\PSoC4/BLE_eventHandler.c ****         #endif /* CYBLE_GATT_ROLE_SERVER || CYBLE_GATT_ROLE_CLIENT */
1196:.\Generated_Source\PSoC4/BLE_eventHandler.c ****             CyBle_SetState(CYBLE_STATE_DISCONNECTED);
 731              		.loc 1 1196 0
ARM GAS  C:\Users\Zachary\AppData\Local\Temp\ccmvMQUz.s 			page 35


 732 00a8 864B     		ldr	r3, .L69+28
 733 00aa 0522     		mov	r2, #5
 734 00ac 1A70     		strb	r2, [r3]
1197:.\Generated_Source\PSoC4/BLE_eventHandler.c ****             break;
 735              		.loc 1 1197 0
 736 00ae E1E0     		b	.L57
 737              	.L35:
1198:.\Generated_Source\PSoC4/BLE_eventHandler.c ****         case CYBLE_EVT_TIMEOUT:
1199:.\Generated_Source\PSoC4/BLE_eventHandler.c ****             CyBle_TimeOutEventHandler((CYBLE_TO_REASON_CODE_T *)eventParam);
 738              		.loc 1 1199 0
 739 00b0 3B68     		ldr	r3, [r7]
 740 00b2 181C     		mov	r0, r3
 741 00b4 FFF7FEFF 		bl	CyBle_TimeOutEventHandler
1200:.\Generated_Source\PSoC4/BLE_eventHandler.c ****             break;
 742              		.loc 1 1200 0
 743 00b8 DCE0     		b	.L57
 744              	.L36:
1201:.\Generated_Source\PSoC4/BLE_eventHandler.c ****     	case CYBLE_EVT_STACK_BUSY_STATUS:
1202:.\Generated_Source\PSoC4/BLE_eventHandler.c ****             cyBle_busyStatus = *(uint8 *)eventParam;
 745              		.loc 1 1202 0
 746 00ba 3B68     		ldr	r3, [r7]
 747 00bc 1A78     		ldrb	r2, [r3]
 748 00be 824B     		ldr	r3, .L69+32
 749 00c0 1A70     		strb	r2, [r3]
1203:.\Generated_Source\PSoC4/BLE_eventHandler.c ****             break;
 750              		.loc 1 1203 0
 751 00c2 D7E0     		b	.L57
 752              	.L38:
1204:.\Generated_Source\PSoC4/BLE_eventHandler.c **** 
1205:.\Generated_Source\PSoC4/BLE_eventHandler.c ****         /**********************************************************
1206:.\Generated_Source\PSoC4/BLE_eventHandler.c ****         ##GAP events
1207:.\Generated_Source\PSoC4/BLE_eventHandler.c ****         ***********************************************************/
1208:.\Generated_Source\PSoC4/BLE_eventHandler.c ****         case CYBLE_EVT_GAP_AUTH_REQ:
1209:.\Generated_Source\PSoC4/BLE_eventHandler.c ****         #if(CYBLE_MODE_PROFILE)
1210:.\Generated_Source\PSoC4/BLE_eventHandler.c ****             if(0u == (cyBle_eventHandlerFlag & CYBLE_DISABLE_AUTOMATIC_AUTH))
 753              		.loc 1 1210 0
 754 00c4 784B     		ldr	r3, .L69
 755 00c6 1B78     		ldrb	r3, [r3]
 756 00c8 DBB2     		uxtb	r3, r3
 757 00ca 1A1C     		mov	r2, r3
 758 00cc 2023     		mov	r3, #32
 759 00ce 1340     		and	r3, r2
 760 00d0 0ED1     		bne	.L58
1211:.\Generated_Source\PSoC4/BLE_eventHandler.c ****             {
1212:.\Generated_Source\PSoC4/BLE_eventHandler.c ****                 /* If the responding device does not support pairing then the responding 
1213:.\Generated_Source\PSoC4/BLE_eventHandler.c ****                    device shall respond using the Pairing Failed message with the error 
1214:.\Generated_Source\PSoC4/BLE_eventHandler.c ****                    code "Pairing Not Supported" otherwise it responds with a Pairing 
1215:.\Generated_Source\PSoC4/BLE_eventHandler.c ****                    Response message.
1216:.\Generated_Source\PSoC4/BLE_eventHandler.c ****                 */
1217:.\Generated_Source\PSoC4/BLE_eventHandler.c ****                 if(cyBle_authInfo.security == (CYBLE_GAP_SEC_MODE_1 | CYBLE_GAP_SEC_LEVEL_1))
 761              		.loc 1 1217 0
 762 00d2 7E4B     		ldr	r3, .L69+36
 763 00d4 1B78     		ldrb	r3, [r3]
 764 00d6 102B     		cmp	r3, #16
 765 00d8 02D1     		bne	.L59
1218:.\Generated_Source\PSoC4/BLE_eventHandler.c ****                 {
1219:.\Generated_Source\PSoC4/BLE_eventHandler.c ****                     cyBle_authInfo.authErr = CYBLE_GAP_AUTH_ERROR_PAIRING_NOT_SUPPORTED;
ARM GAS  C:\Users\Zachary\AppData\Local\Temp\ccmvMQUz.s 			page 36


 766              		.loc 1 1219 0
 767 00da 7C4B     		ldr	r3, .L69+36
 768 00dc 0522     		mov	r2, #5
 769 00de DA70     		strb	r2, [r3, #3]
 770              	.L59:
1220:.\Generated_Source\PSoC4/BLE_eventHandler.c ****                 }    
1221:.\Generated_Source\PSoC4/BLE_eventHandler.c ****             #if(CYBLE_GAP_ROLE_PERIPHERAL)
1222:.\Generated_Source\PSoC4/BLE_eventHandler.c ****                 (void)CyBle_GappAuthReqReply(cyBle_connHandle.bdHandle, &cyBle_authInfo);
1223:.\Generated_Source\PSoC4/BLE_eventHandler.c ****             #endif /* CYBLE_GAP_ROLE_PERIPHERAL */
1224:.\Generated_Source\PSoC4/BLE_eventHandler.c ****             #if (CYBLE_GAP_ROLE_CENTRAL)
1225:.\Generated_Source\PSoC4/BLE_eventHandler.c ****                 (void)CyBle_GapAuthReq(cyBle_connHandle.bdHandle, &cyBle_authInfo);
 771              		.loc 1 1225 0
 772 00e0 7B4B     		ldr	r3, .L69+40
 773 00e2 1A78     		ldrb	r2, [r3]
 774 00e4 794B     		ldr	r3, .L69+36
 775 00e6 101C     		mov	r0, r2
 776 00e8 191C     		mov	r1, r3
 777 00ea FFF7FEFF 		bl	CyBle_GapAuthReq
1226:.\Generated_Source\PSoC4/BLE_eventHandler.c ****             #endif /* CYBLE_GAP_ROLE_CENTRAL */
1227:.\Generated_Source\PSoC4/BLE_eventHandler.c ****             }
1228:.\Generated_Source\PSoC4/BLE_eventHandler.c ****         #endif /* CYBLE_MODE_PROFILE */
1229:.\Generated_Source\PSoC4/BLE_eventHandler.c ****             break;
 778              		.loc 1 1229 0
 779 00ee C1E0     		b	.L57
 780              	.L58:
 781 00f0 C0E0     		b	.L57
 782              	.L41:
1230:.\Generated_Source\PSoC4/BLE_eventHandler.c **** 
1231:.\Generated_Source\PSoC4/BLE_eventHandler.c ****         case CYBLE_EVT_GAP_CONNECTION_UPDATE_COMPLETE:
1232:.\Generated_Source\PSoC4/BLE_eventHandler.c ****             CyBle_GapConnUpdateCompleteEventHandler((const CYBLE_GAP_CONN_PARAM_UPDATED_IN_CONTROLL
 783              		.loc 1 1232 0
 784 00f2 3B68     		ldr	r3, [r7]
 785 00f4 181C     		mov	r0, r3
 786 00f6 FFF7FEFF 		bl	CyBle_GapConnUpdateCompleteEventHandler
1233:.\Generated_Source\PSoC4/BLE_eventHandler.c ****             break;
 787              		.loc 1 1233 0
 788 00fa BBE0     		b	.L57
 789              	.L39:
1234:.\Generated_Source\PSoC4/BLE_eventHandler.c ****             
1235:.\Generated_Source\PSoC4/BLE_eventHandler.c ****         case CYBLE_EVT_GAP_DEVICE_CONNECTED:
1236:.\Generated_Source\PSoC4/BLE_eventHandler.c ****             CyBle_GapConnUpdateCompleteEventHandler((const CYBLE_GAP_CONN_PARAM_UPDATED_IN_CONTROLL
 790              		.loc 1 1236 0
 791 00fc 3B68     		ldr	r3, [r7]
 792 00fe 181C     		mov	r0, r3
 793 0100 FFF7FEFF 		bl	CyBle_GapConnUpdateCompleteEventHandler
1237:.\Generated_Source\PSoC4/BLE_eventHandler.c ****             #if(CYBLE_GAP_ROLE_CENTRAL)
1238:.\Generated_Source\PSoC4/BLE_eventHandler.c ****                 if(cyBle_connectingTimeout != 0u)
 794              		.loc 1 1238 0
 795 0104 734B     		ldr	r3, .L69+44
 796 0106 1B88     		ldrh	r3, [r3]
 797 0108 002B     		cmp	r3, #0
 798 010a 01D0     		beq	.L60
1239:.\Generated_Source\PSoC4/BLE_eventHandler.c ****                 {
1240:.\Generated_Source\PSoC4/BLE_eventHandler.c ****                    (void)CyBle_StopTimer();
 799              		.loc 1 1240 0
 800 010c FFF7FEFF 		bl	CyBle_StopTimer
 801              	.L60:
ARM GAS  C:\Users\Zachary\AppData\Local\Temp\ccmvMQUz.s 			page 37


1241:.\Generated_Source\PSoC4/BLE_eventHandler.c ****                 }
1242:.\Generated_Source\PSoC4/BLE_eventHandler.c ****             #endif /* CYBLE_GAP_ROLE_CENTRAL */
1243:.\Generated_Source\PSoC4/BLE_eventHandler.c ****             CyBle_SetState(CYBLE_STATE_CONNECTED);
 802              		.loc 1 1243 0
 803 0110 6C4B     		ldr	r3, .L69+28
 804 0112 0222     		mov	r2, #2
 805 0114 1A70     		strb	r2, [r3]
1244:.\Generated_Source\PSoC4/BLE_eventHandler.c ****             break;
 806              		.loc 1 1244 0
 807 0116 ADE0     		b	.L57
 808              	.L40:
1245:.\Generated_Source\PSoC4/BLE_eventHandler.c **** 
1246:.\Generated_Source\PSoC4/BLE_eventHandler.c ****         case CYBLE_EVT_GAP_DEVICE_DISCONNECTED:
1247:.\Generated_Source\PSoC4/BLE_eventHandler.c ****             CyBle_SetState(CYBLE_STATE_DISCONNECTED);
 809              		.loc 1 1247 0
 810 0118 6A4B     		ldr	r3, .L69+28
 811 011a 0522     		mov	r2, #5
 812 011c 1A70     		strb	r2, [r3]
1248:.\Generated_Source\PSoC4/BLE_eventHandler.c ****             break;
 813              		.loc 1 1248 0
 814 011e A9E0     		b	.L57
 815              	.L42:
1249:.\Generated_Source\PSoC4/BLE_eventHandler.c ****         #if(CYBLE_GAP_ROLE_PERIPHERAL || CYBLE_GAP_ROLE_BROADCASTER)
1250:.\Generated_Source\PSoC4/BLE_eventHandler.c ****             
1251:.\Generated_Source\PSoC4/BLE_eventHandler.c ****         case CYBLE_EVT_GAPP_ADVERTISEMENT_START_STOP:
1252:.\Generated_Source\PSoC4/BLE_eventHandler.c ****             #ifdef CYBLE_CPS_SERVER
1253:.\Generated_Source\PSoC4/BLE_eventHandler.c ****                 #if(CYBLE_GAP_ROLE_BROADCASTER)
1254:.\Generated_Source\PSoC4/BLE_eventHandler.c ****                     CyBle_CpssAdvertisementStartStopEventHandler();
1255:.\Generated_Source\PSoC4/BLE_eventHandler.c ****                 #endif /* CYBLE_GAP_ROLE_BROADCASTER */
1256:.\Generated_Source\PSoC4/BLE_eventHandler.c ****             #endif /* CYBLE_CPS_SERVER */
1257:.\Generated_Source\PSoC4/BLE_eventHandler.c ****             
1258:.\Generated_Source\PSoC4/BLE_eventHandler.c ****             if((CYBLE_STATE_CONNECTED != CyBle_GetState()) && ((cyBle_eventHandlerFlag & CYBLE_CALL
1259:.\Generated_Source\PSoC4/BLE_eventHandler.c ****             {
1260:.\Generated_Source\PSoC4/BLE_eventHandler.c ****                 /* After CyBle_GappStartAdvertisement first event indicates that advertising has be
1261:.\Generated_Source\PSoC4/BLE_eventHandler.c ****                 if(0u != (cyBle_eventHandlerFlag & CYBLE_START_FLAG))
1262:.\Generated_Source\PSoC4/BLE_eventHandler.c ****                 {
1263:.\Generated_Source\PSoC4/BLE_eventHandler.c ****                     CyBle_SetState(CYBLE_STATE_ADVERTISING);
1264:.\Generated_Source\PSoC4/BLE_eventHandler.c ****                     cyBle_eventHandlerFlag &= (uint8)~CYBLE_START_FLAG;
1265:.\Generated_Source\PSoC4/BLE_eventHandler.c ****                 }
1266:.\Generated_Source\PSoC4/BLE_eventHandler.c ****                 /* When application initiated stop advertisement */
1267:.\Generated_Source\PSoC4/BLE_eventHandler.c ****                 else if(0u != (cyBle_eventHandlerFlag & CYBLE_STOP_FLAG))
1268:.\Generated_Source\PSoC4/BLE_eventHandler.c ****                 {
1269:.\Generated_Source\PSoC4/BLE_eventHandler.c ****                     CyBle_SetState(CYBLE_STATE_DISCONNECTED);  
1270:.\Generated_Source\PSoC4/BLE_eventHandler.c ****                     cyBle_eventHandlerFlag &= (uint8)~CYBLE_STOP_FLAG;
1271:.\Generated_Source\PSoC4/BLE_eventHandler.c ****                 }
1272:.\Generated_Source\PSoC4/BLE_eventHandler.c ****                 else /* Following event indicates that advertising has been stopped */
1273:.\Generated_Source\PSoC4/BLE_eventHandler.c ****                 {
1274:.\Generated_Source\PSoC4/BLE_eventHandler.c ****                     if(CYBLE_STATE_ADVERTISING == CyBle_GetState())
1275:.\Generated_Source\PSoC4/BLE_eventHandler.c ****                     {
1276:.\Generated_Source\PSoC4/BLE_eventHandler.c ****                         CyBle_SetState(CYBLE_STATE_DISCONNECTED);
1277:.\Generated_Source\PSoC4/BLE_eventHandler.c ****                     #if (CYBLE_SLOW_ADV_ENABLED != 0u)
1278:.\Generated_Source\PSoC4/BLE_eventHandler.c ****                         if(cyBle_advertisingIntervalType == CYBLE_ADVERTISING_FAST)
1279:.\Generated_Source\PSoC4/BLE_eventHandler.c ****                         {
1280:.\Generated_Source\PSoC4/BLE_eventHandler.c ****                             /* When fast advertising time out occur: Start slow advertising */
1281:.\Generated_Source\PSoC4/BLE_eventHandler.c ****                             if(CYBLE_ERROR_OK == CyBle_GappStartAdvertisement(CYBLE_ADVERTISING_SLO
1282:.\Generated_Source\PSoC4/BLE_eventHandler.c ****                             {
1283:.\Generated_Source\PSoC4/BLE_eventHandler.c ****                                 CyBle_SetState(CYBLE_STATE_ADVERTISING);
ARM GAS  C:\Users\Zachary\AppData\Local\Temp\ccmvMQUz.s 			page 38


1284:.\Generated_Source\PSoC4/BLE_eventHandler.c ****                             }
1285:.\Generated_Source\PSoC4/BLE_eventHandler.c ****                         }
1286:.\Generated_Source\PSoC4/BLE_eventHandler.c ****                     #endif /* CYBLE_SLOW_ADV_ENABLED */
1287:.\Generated_Source\PSoC4/BLE_eventHandler.c ****                     }
1288:.\Generated_Source\PSoC4/BLE_eventHandler.c ****                 }
1289:.\Generated_Source\PSoC4/BLE_eventHandler.c ****             }
1290:.\Generated_Source\PSoC4/BLE_eventHandler.c ****             break;
1291:.\Generated_Source\PSoC4/BLE_eventHandler.c ****         #endif /* CYBLE_GAP_ROLE_PERIPHERAL || CYBLE_GAP_ROLE_BROADCASTER */
1292:.\Generated_Source\PSoC4/BLE_eventHandler.c ****         
1293:.\Generated_Source\PSoC4/BLE_eventHandler.c ****         #if(CYBLE_GAP_ROLE_CENTRAL || CYBLE_GAP_ROLE_OBSERVER)    
1294:.\Generated_Source\PSoC4/BLE_eventHandler.c ****         case CYBLE_EVT_GAPC_SCAN_START_STOP:
1295:.\Generated_Source\PSoC4/BLE_eventHandler.c ****             #ifdef CYBLE_CPS_CLIENT
1296:.\Generated_Source\PSoC4/BLE_eventHandler.c ****                 CyBle_CpscScanStartStopEventHandler();
1297:.\Generated_Source\PSoC4/BLE_eventHandler.c ****             #endif /* CYBLE_CPS_CLIENT */
1298:.\Generated_Source\PSoC4/BLE_eventHandler.c ****             
1299:.\Generated_Source\PSoC4/BLE_eventHandler.c ****             if((CYBLE_STATE_CONNECTED != CyBle_GetState()) && ((cyBle_eventHandlerFlag & CYBLE_CALL
 816              		.loc 1 1299 0
 817 0120 684B     		ldr	r3, .L69+28
 818 0122 1B78     		ldrb	r3, [r3]
 819 0124 022B     		cmp	r3, #2
 820 0126 34D0     		beq	.L61
 821              		.loc 1 1299 0 is_stmt 0 discriminator 1
 822 0128 5F4B     		ldr	r3, .L69
 823 012a 1B78     		ldrb	r3, [r3]
 824 012c DBB2     		uxtb	r3, r3
 825 012e 1A1C     		mov	r2, r3
 826 0130 0123     		mov	r3, #1
 827 0132 1340     		and	r3, r2
 828 0134 2DD0     		beq	.L61
1300:.\Generated_Source\PSoC4/BLE_eventHandler.c ****             {
1301:.\Generated_Source\PSoC4/BLE_eventHandler.c ****                 /* After CyBle_GapcStartScan first event indicates that scanning has been started *
1302:.\Generated_Source\PSoC4/BLE_eventHandler.c ****                 if(0u != (cyBle_eventHandlerFlag & CYBLE_START_FLAG))
 829              		.loc 1 1302 0 is_stmt 1
 830 0136 5C4B     		ldr	r3, .L69
 831 0138 1B78     		ldrb	r3, [r3]
 832 013a DBB2     		uxtb	r3, r3
 833 013c 1A1C     		mov	r2, r3
 834 013e 0423     		mov	r3, #4
 835 0140 1340     		and	r3, r2
 836 0142 0BD0     		beq	.L62
1303:.\Generated_Source\PSoC4/BLE_eventHandler.c ****                 {
1304:.\Generated_Source\PSoC4/BLE_eventHandler.c ****                     CyBle_SetState(CYBLE_STATE_SCANNING);
 837              		.loc 1 1304 0
 838 0144 5F4B     		ldr	r3, .L69+28
 839 0146 0322     		mov	r2, #3
 840 0148 1A70     		strb	r2, [r3]
1305:.\Generated_Source\PSoC4/BLE_eventHandler.c ****                     cyBle_eventHandlerFlag &= (uint8)~CYBLE_START_FLAG;
 841              		.loc 1 1305 0
 842 014a 574B     		ldr	r3, .L69
 843 014c 1B78     		ldrb	r3, [r3]
 844 014e DBB2     		uxtb	r3, r3
 845 0150 0422     		mov	r2, #4
 846 0152 9343     		bic	r3, r2
 847 0154 DAB2     		uxtb	r2, r3
 848 0156 544B     		ldr	r3, .L69
 849 0158 1A70     		strb	r2, [r3]
 850 015a 1AE0     		b	.L61
ARM GAS  C:\Users\Zachary\AppData\Local\Temp\ccmvMQUz.s 			page 39


 851              	.L62:
1306:.\Generated_Source\PSoC4/BLE_eventHandler.c ****                 }
1307:.\Generated_Source\PSoC4/BLE_eventHandler.c ****                 /* When application initiated stop scanning */
1308:.\Generated_Source\PSoC4/BLE_eventHandler.c ****                 else if(0u != (cyBle_eventHandlerFlag & CYBLE_STOP_FLAG))
 852              		.loc 1 1308 0
 853 015c 524B     		ldr	r3, .L69
 854 015e 1B78     		ldrb	r3, [r3]
 855 0160 DBB2     		uxtb	r3, r3
 856 0162 1A1C     		mov	r2, r3
 857 0164 0823     		mov	r3, #8
 858 0166 1340     		and	r3, r2
 859 0168 0BD0     		beq	.L63
1309:.\Generated_Source\PSoC4/BLE_eventHandler.c ****                 {
1310:.\Generated_Source\PSoC4/BLE_eventHandler.c ****                     CyBle_SetState(CYBLE_STATE_DISCONNECTED);  
 860              		.loc 1 1310 0
 861 016a 564B     		ldr	r3, .L69+28
 862 016c 0522     		mov	r2, #5
 863 016e 1A70     		strb	r2, [r3]
1311:.\Generated_Source\PSoC4/BLE_eventHandler.c ****                     cyBle_eventHandlerFlag &= (uint8)~CYBLE_STOP_FLAG;
 864              		.loc 1 1311 0
 865 0170 4D4B     		ldr	r3, .L69
 866 0172 1B78     		ldrb	r3, [r3]
 867 0174 DBB2     		uxtb	r3, r3
 868 0176 0822     		mov	r2, #8
 869 0178 9343     		bic	r3, r2
 870 017a DAB2     		uxtb	r2, r3
 871 017c 4A4B     		ldr	r3, .L69
 872 017e 1A70     		strb	r2, [r3]
 873 0180 07E0     		b	.L61
 874              	.L63:
1312:.\Generated_Source\PSoC4/BLE_eventHandler.c ****                 }
1313:.\Generated_Source\PSoC4/BLE_eventHandler.c ****                 else /* Following event indicates that scanning has been stopped by stack */
1314:.\Generated_Source\PSoC4/BLE_eventHandler.c ****                 {
1315:.\Generated_Source\PSoC4/BLE_eventHandler.c ****                     if(CYBLE_STATE_SCANNING == CyBle_GetState())
 875              		.loc 1 1315 0
 876 0182 504B     		ldr	r3, .L69+28
 877 0184 1B78     		ldrb	r3, [r3]
 878 0186 032B     		cmp	r3, #3
 879 0188 03D1     		bne	.L61
1316:.\Generated_Source\PSoC4/BLE_eventHandler.c ****                     {
1317:.\Generated_Source\PSoC4/BLE_eventHandler.c ****                         CyBle_SetState(CYBLE_STATE_DISCONNECTED);  
 880              		.loc 1 1317 0
 881 018a 4E4B     		ldr	r3, .L69+28
 882 018c 0522     		mov	r2, #5
 883 018e 1A70     		strb	r2, [r3]
1318:.\Generated_Source\PSoC4/BLE_eventHandler.c ****                     #if (CYBLE_SLOW_SCAN_ENABLED != 0u)
1319:.\Generated_Source\PSoC4/BLE_eventHandler.c ****                         if(cyBle_scanningIntervalType == CYBLE_SCANNING_FAST)
1320:.\Generated_Source\PSoC4/BLE_eventHandler.c ****                         {
1321:.\Generated_Source\PSoC4/BLE_eventHandler.c ****                             /* When fast scanning time out occur: Start slow scanning */
1322:.\Generated_Source\PSoC4/BLE_eventHandler.c ****                             if(CYBLE_ERROR_OK == CyBle_GapcStartScan(CYBLE_SCANNING_SLOW))
1323:.\Generated_Source\PSoC4/BLE_eventHandler.c ****                             {
1324:.\Generated_Source\PSoC4/BLE_eventHandler.c ****                                 CyBle_SetState(CYBLE_STATE_SCANNING);
1325:.\Generated_Source\PSoC4/BLE_eventHandler.c ****                             }
1326:.\Generated_Source\PSoC4/BLE_eventHandler.c ****                         }
1327:.\Generated_Source\PSoC4/BLE_eventHandler.c ****                     #endif /* CYBLE_SLOW_ADV_ENABLED */
1328:.\Generated_Source\PSoC4/BLE_eventHandler.c ****                     }
1329:.\Generated_Source\PSoC4/BLE_eventHandler.c ****                 }
ARM GAS  C:\Users\Zachary\AppData\Local\Temp\ccmvMQUz.s 			page 40


1330:.\Generated_Source\PSoC4/BLE_eventHandler.c ****             }
1331:.\Generated_Source\PSoC4/BLE_eventHandler.c ****             break;
 884              		.loc 1 1331 0
 885 0190 70E0     		b	.L57
 886              	.L61:
 887 0192 6FE0     		b	.L57
 888              	.L54:
1332:.\Generated_Source\PSoC4/BLE_eventHandler.c ****         #endif /* CYBLE_GAP_ROLE_CENTRAL || CYBLE_GAP_ROLE_OBSERVER */
1333:.\Generated_Source\PSoC4/BLE_eventHandler.c **** 
1334:.\Generated_Source\PSoC4/BLE_eventHandler.c ****         /**********************************************************
1335:.\Generated_Source\PSoC4/BLE_eventHandler.c ****         ##L2AP events 
1336:.\Generated_Source\PSoC4/BLE_eventHandler.c ****         ***********************************************************/
1337:.\Generated_Source\PSoC4/BLE_eventHandler.c ****         case CYBLE_EVT_L2CAP_CONN_PARAM_UPDATE_RSP:
1338:.\Generated_Source\PSoC4/BLE_eventHandler.c ****             CyBle_L2Cap_ConnParamUpdateRspEventHandler(*(uint16 *)eventParam);
 889              		.loc 1 1338 0
 890 0194 3B68     		ldr	r3, [r7]
 891 0196 1B88     		ldrh	r3, [r3]
 892 0198 181C     		mov	r0, r3
 893 019a FFF7FEFF 		bl	CyBle_L2Cap_ConnParamUpdateRspEventHandler
1339:.\Generated_Source\PSoC4/BLE_eventHandler.c ****             break;
 894              		.loc 1 1339 0
 895 019e 69E0     		b	.L57
 896              	.L44:
1340:.\Generated_Source\PSoC4/BLE_eventHandler.c ****         
1341:.\Generated_Source\PSoC4/BLE_eventHandler.c ****         /**********************************************************
1342:.\Generated_Source\PSoC4/BLE_eventHandler.c ****         ##GATT events
1343:.\Generated_Source\PSoC4/BLE_eventHandler.c ****         ***********************************************************/        
1344:.\Generated_Source\PSoC4/BLE_eventHandler.c ****         case CYBLE_EVT_GATT_CONNECT_IND:
1345:.\Generated_Source\PSoC4/BLE_eventHandler.c ****             cyBle_connHandle = *(CYBLE_CONN_HANDLE_T *)eventParam;
 897              		.loc 1 1345 0
 898 01a0 4B4A     		ldr	r2, .L69+40
 899 01a2 3B68     		ldr	r3, [r7]
 900 01a4 111C     		mov	r1, r2
 901 01a6 1A1C     		mov	r2, r3
 902 01a8 0223     		mov	r3, #2
 903 01aa 081C     		mov	r0, r1
 904 01ac 111C     		mov	r1, r2
 905 01ae 1A1C     		mov	r2, r3
 906 01b0 FFF7FEFF 		bl	memcpy
1346:.\Generated_Source\PSoC4/BLE_eventHandler.c ****             
1347:.\Generated_Source\PSoC4/BLE_eventHandler.c ****         #if((CYBLE_GATT_ROLE_SERVER) && (CYBLE_GATT_DB_CCCD_COUNT != 0u))
1348:.\Generated_Source\PSoC4/BLE_eventHandler.c ****             /* Init CCCD values in RAM */
1349:.\Generated_Source\PSoC4/BLE_eventHandler.c ****         	(void) memcpy (cyBle_attValuesCCCD, cyBle_attValuesCCCDFlashMemory[cyBle_connHandle.bdHand
1350:.\Generated_Source\PSoC4/BLE_eventHandler.c ****                             CYBLE_GATT_DB_CCCD_COUNT);
1351:.\Generated_Source\PSoC4/BLE_eventHandler.c ****         #endif /* CYBLE_GATT_ROLE_SERVER */
1352:.\Generated_Source\PSoC4/BLE_eventHandler.c ****         
1353:.\Generated_Source\PSoC4/BLE_eventHandler.c ****         #if (CYBLE_GATT_ROLE_CLIENT)
1354:.\Generated_Source\PSoC4/BLE_eventHandler.c ****             CyBle_SetClientState(CYBLE_CLIENT_STATE_CONNECTED);
 907              		.loc 1 1354 0
 908 01b4 484B     		ldr	r3, .L69+48
 909 01b6 0022     		mov	r2, #0
 910 01b8 1A70     		strb	r2, [r3]
1355:.\Generated_Source\PSoC4/BLE_eventHandler.c ****         #endif /* CYBLE_GATT_ROLE_CLIENT */
1356:.\Generated_Source\PSoC4/BLE_eventHandler.c ****         
1357:.\Generated_Source\PSoC4/BLE_eventHandler.c ****             CyBle_GattConnectReqHandler();
 911              		.loc 1 1357 0
 912 01ba FFF7FEFF 		bl	CyBle_GattConnectReqHandler
ARM GAS  C:\Users\Zachary\AppData\Local\Temp\ccmvMQUz.s 			page 41


1358:.\Generated_Source\PSoC4/BLE_eventHandler.c ****             break;
 913              		.loc 1 1358 0
 914 01be 59E0     		b	.L57
 915              	.L45:
1359:.\Generated_Source\PSoC4/BLE_eventHandler.c **** 
1360:.\Generated_Source\PSoC4/BLE_eventHandler.c ****         case CYBLE_EVT_GATT_DISCONNECT_IND:
1361:.\Generated_Source\PSoC4/BLE_eventHandler.c ****             CyBle_GattDisconnectEventHandler();
 916              		.loc 1 1361 0
 917 01c0 FFF7FEFF 		bl	CyBle_GattDisconnectEventHandler
1362:.\Generated_Source\PSoC4/BLE_eventHandler.c ****             break;
 918              		.loc 1 1362 0
 919 01c4 56E0     		b	.L57
 920              	.L46:
 921              	.LBB3:
1363:.\Generated_Source\PSoC4/BLE_eventHandler.c **** 
1364:.\Generated_Source\PSoC4/BLE_eventHandler.c ****     #if((CYBLE_GATT_ROLE_SERVER) || (CYBLE_GATT_ROLE_CLIENT))
1365:.\Generated_Source\PSoC4/BLE_eventHandler.c ****         case CYBLE_EVT_GATTS_XCNHG_MTU_REQ:
1366:.\Generated_Source\PSoC4/BLE_eventHandler.c ****             {
1367:.\Generated_Source\PSoC4/BLE_eventHandler.c ****                 uint16 cyBle_mtuSize;
1368:.\Generated_Source\PSoC4/BLE_eventHandler.c ****                 if(CYBLE_GATT_MTU > ((CYBLE_GATT_XCHG_MTU_PARAM_T *)eventParam)->mtu)
 922              		.loc 1 1368 0
 923 01c6 3B68     		ldr	r3, [r7]
 924 01c8 5B88     		ldrh	r3, [r3, #2]
 925 01ca 162B     		cmp	r3, #22
 926 01cc 05D8     		bhi	.L64
1369:.\Generated_Source\PSoC4/BLE_eventHandler.c ****                 {
1370:.\Generated_Source\PSoC4/BLE_eventHandler.c ****                     cyBle_mtuSize = ((CYBLE_GATT_XCHG_MTU_PARAM_T *)eventParam)->mtu;
 927              		.loc 1 1370 0
 928 01ce 3B1C     		mov	r3, r7
 929 01d0 0E33     		add	r3, r3, #14
 930 01d2 3A68     		ldr	r2, [r7]
 931 01d4 5288     		ldrh	r2, [r2, #2]
 932 01d6 1A80     		strh	r2, [r3]
 933 01d8 03E0     		b	.L65
 934              	.L64:
1371:.\Generated_Source\PSoC4/BLE_eventHandler.c ****                 }
1372:.\Generated_Source\PSoC4/BLE_eventHandler.c ****                 else
1373:.\Generated_Source\PSoC4/BLE_eventHandler.c ****                 {
1374:.\Generated_Source\PSoC4/BLE_eventHandler.c ****                     cyBle_mtuSize = CYBLE_GATT_MTU;
 935              		.loc 1 1374 0
 936 01da 3B1C     		mov	r3, r7
 937 01dc 0E33     		add	r3, r3, #14
 938 01de 1722     		mov	r2, #23
 939 01e0 1A80     		strh	r2, [r3]
 940              	.L65:
1375:.\Generated_Source\PSoC4/BLE_eventHandler.c ****                 }
1376:.\Generated_Source\PSoC4/BLE_eventHandler.c ****                 (void)CyBle_GattsExchangeMtuRsp(((CYBLE_GATT_XCHG_MTU_PARAM_T *)eventParam)->connHa
 941              		.loc 1 1376 0
 942 01e2 3B68     		ldr	r3, [r7]
 943 01e4 3A1C     		mov	r2, r7
 944 01e6 0E32     		add	r2, r2, #14
 945 01e8 1288     		ldrh	r2, [r2]
 946 01ea 1988     		ldrh	r1, [r3]
 947 01ec 0023     		mov	r3, #0
 948 01ee 0904     		lsl	r1, r1, #16
 949 01f0 090C     		lsr	r1, r1, #16
 950 01f2 1B0C     		lsr	r3, r3, #16
ARM GAS  C:\Users\Zachary\AppData\Local\Temp\ccmvMQUz.s 			page 42


 951 01f4 1B04     		lsl	r3, r3, #16
 952 01f6 0B43     		orr	r3, r1
 953 01f8 181C     		mov	r0, r3
 954 01fa 111C     		mov	r1, r2
 955 01fc FFF7FEFF 		bl	CyBle_GattsExchangeMtuRsp
 956              	.LBE3:
1377:.\Generated_Source\PSoC4/BLE_eventHandler.c ****             }
1378:.\Generated_Source\PSoC4/BLE_eventHandler.c ****             break;
 957              		.loc 1 1378 0
 958 0200 38E0     		b	.L57
 959              	.L47:
1379:.\Generated_Source\PSoC4/BLE_eventHandler.c ****     #endif /* CYBLE_GATT_ROLE_SERVER || CYBLE_GATT_ROLE_CLIENT */
1380:.\Generated_Source\PSoC4/BLE_eventHandler.c ****     
1381:.\Generated_Source\PSoC4/BLE_eventHandler.c ****     #if (CYBLE_GATT_ROLE_CLIENT)
1382:.\Generated_Source\PSoC4/BLE_eventHandler.c ****         case CYBLE_EVT_GAPC_SCAN_PROGRESS_RESULT:
1383:.\Generated_Source\PSoC4/BLE_eventHandler.c ****         #ifdef CYBLE_CPS_CLIENT
1384:.\Generated_Source\PSoC4/BLE_eventHandler.c ****                 CyBle_CpscScanProcessEventHandler((CYBLE_GAPC_ADV_REPORT_T *)eventParam);
1385:.\Generated_Source\PSoC4/BLE_eventHandler.c ****         #endif /* CYBLE_CPS_CLIENT */
1386:.\Generated_Source\PSoC4/BLE_eventHandler.c ****             break;
1387:.\Generated_Source\PSoC4/BLE_eventHandler.c ****     #endif /* CYBLE_GATT_ROLE_CLIENT */
1388:.\Generated_Source\PSoC4/BLE_eventHandler.c **** 
1389:.\Generated_Source\PSoC4/BLE_eventHandler.c ****     #if(CYBLE_GATT_ROLE_SERVER)
1390:.\Generated_Source\PSoC4/BLE_eventHandler.c ****         case CYBLE_EVT_GATTS_WRITE_REQ:
1391:.\Generated_Source\PSoC4/BLE_eventHandler.c ****             CyBle_WriteReqHandler((CYBLE_GATTS_WRITE_REQ_PARAM_T *)eventParam);
1392:.\Generated_Source\PSoC4/BLE_eventHandler.c ****             break;
1393:.\Generated_Source\PSoC4/BLE_eventHandler.c **** 
1394:.\Generated_Source\PSoC4/BLE_eventHandler.c ****         case CYBLE_EVT_GATTS_WRITE_CMD_REQ:
1395:.\Generated_Source\PSoC4/BLE_eventHandler.c ****         #ifdef CYBLE_IAS_SERVER
1396:.\Generated_Source\PSoC4/BLE_eventHandler.c ****             if((cyBle_eventHandlerFlag & CYBLE_CALLBACK) != 0u)
1397:.\Generated_Source\PSoC4/BLE_eventHandler.c ****             {
1398:.\Generated_Source\PSoC4/BLE_eventHandler.c ****                 (void)CyBle_IassWriteCmdEventHandler((CYBLE_GATTS_WRITE_REQ_PARAM_T *)eventParam);
1399:.\Generated_Source\PSoC4/BLE_eventHandler.c ****             }
1400:.\Generated_Source\PSoC4/BLE_eventHandler.c ****         #endif /* CYBLE_IAS_SERVER */
1401:.\Generated_Source\PSoC4/BLE_eventHandler.c ****         #ifdef CYBLE_HIDS_SERVER
1402:.\Generated_Source\PSoC4/BLE_eventHandler.c ****             if((cyBle_eventHandlerFlag & CYBLE_CALLBACK) != 0u)
1403:.\Generated_Source\PSoC4/BLE_eventHandler.c ****             {
1404:.\Generated_Source\PSoC4/BLE_eventHandler.c ****                 (void)CyBle_HidssWriteEventHandler((CYBLE_GATTS_WRITE_REQ_PARAM_T *)eventParam);
1405:.\Generated_Source\PSoC4/BLE_eventHandler.c ****             }
1406:.\Generated_Source\PSoC4/BLE_eventHandler.c ****         #endif /* CYBLE_HIDS_SERVER */
1407:.\Generated_Source\PSoC4/BLE_eventHandler.c ****         #ifdef CYBLE_PASS_SERVER
1408:.\Generated_Source\PSoC4/BLE_eventHandler.c ****             if((cyBle_eventHandlerFlag & CYBLE_CALLBACK) != 0u)
1409:.\Generated_Source\PSoC4/BLE_eventHandler.c ****             {
1410:.\Generated_Source\PSoC4/BLE_eventHandler.c ****                 (void)CyBle_PasssWriteCmdEventHandler((CYBLE_GATTS_WRITE_REQ_PARAM_T *)eventParam);
1411:.\Generated_Source\PSoC4/BLE_eventHandler.c ****             }
1412:.\Generated_Source\PSoC4/BLE_eventHandler.c ****         #endif /* CYBLE_PASS_SERVER */
1413:.\Generated_Source\PSoC4/BLE_eventHandler.c ****         #ifdef CYBLE_RTUS_SERVER
1414:.\Generated_Source\PSoC4/BLE_eventHandler.c ****             if((cyBle_eventHandlerFlag & CYBLE_CALLBACK) != 0u)
1415:.\Generated_Source\PSoC4/BLE_eventHandler.c ****             {
1416:.\Generated_Source\PSoC4/BLE_eventHandler.c ****                 (void)CyBle_RtussWriteCmdEventHandler((CYBLE_GATTS_WRITE_REQ_PARAM_T *)eventParam);
1417:.\Generated_Source\PSoC4/BLE_eventHandler.c ****             }
1418:.\Generated_Source\PSoC4/BLE_eventHandler.c ****         #endif /* CYBLE_RTUS_SERVER */
1419:.\Generated_Source\PSoC4/BLE_eventHandler.c ****         #ifdef CYBLE_SCPS_SERVER
1420:.\Generated_Source\PSoC4/BLE_eventHandler.c ****             if((cyBle_eventHandlerFlag & CYBLE_CALLBACK) != 0u)
1421:.\Generated_Source\PSoC4/BLE_eventHandler.c ****             {
1422:.\Generated_Source\PSoC4/BLE_eventHandler.c ****                 (void)CyBle_ScpssWriteEventHandler((CYBLE_GATTS_WRITE_REQ_PARAM_T *)eventParam);
1423:.\Generated_Source\PSoC4/BLE_eventHandler.c ****             }
1424:.\Generated_Source\PSoC4/BLE_eventHandler.c ****         #endif /* CYBLE_SCPS_SERVER */
ARM GAS  C:\Users\Zachary\AppData\Local\Temp\ccmvMQUz.s 			page 43


1425:.\Generated_Source\PSoC4/BLE_eventHandler.c ****             break;
1426:.\Generated_Source\PSoC4/BLE_eventHandler.c ****             
1427:.\Generated_Source\PSoC4/BLE_eventHandler.c ****         case CYBLE_EVT_GATTS_HANDLE_VALUE_CNF:
1428:.\Generated_Source\PSoC4/BLE_eventHandler.c ****             CyBle_ValueConfirmation((CYBLE_CONN_HANDLE_T *)eventParam);
1429:.\Generated_Source\PSoC4/BLE_eventHandler.c ****             break;
1430:.\Generated_Source\PSoC4/BLE_eventHandler.c ****             
1431:.\Generated_Source\PSoC4/BLE_eventHandler.c ****     #endif /* CYBLE_GATT_ROLE_SERVER */
1432:.\Generated_Source\PSoC4/BLE_eventHandler.c **** 
1433:.\Generated_Source\PSoC4/BLE_eventHandler.c ****     #if (CYBLE_GATT_ROLE_CLIENT)
1434:.\Generated_Source\PSoC4/BLE_eventHandler.c ****         
1435:.\Generated_Source\PSoC4/BLE_eventHandler.c ****         case CYBLE_EVT_GATTC_READ_BY_GROUP_TYPE_RSP:
1436:.\Generated_Source\PSoC4/BLE_eventHandler.c ****             CyBle_ReadByGroupEventHandler((CYBLE_GATTC_READ_BY_GRP_RSP_PARAM_T *)eventParam);
 960              		.loc 1 1436 0
 961 0202 3B68     		ldr	r3, [r7]
 962 0204 181C     		mov	r0, r3
 963 0206 FFF7FEFF 		bl	CyBle_ReadByGroupEventHandler
1437:.\Generated_Source\PSoC4/BLE_eventHandler.c ****             break;
 964              		.loc 1 1437 0
 965 020a 33E0     		b	.L57
 966              	.L48:
1438:.\Generated_Source\PSoC4/BLE_eventHandler.c **** 
1439:.\Generated_Source\PSoC4/BLE_eventHandler.c ****         case CYBLE_EVT_GATTC_READ_BY_TYPE_RSP:
1440:.\Generated_Source\PSoC4/BLE_eventHandler.c ****             CyBle_ReadByTypeEventHandler((CYBLE_GATTC_READ_BY_TYPE_RSP_PARAM_T *)eventParam);
 967              		.loc 1 1440 0
 968 020c 3B68     		ldr	r3, [r7]
 969 020e 181C     		mov	r0, r3
 970 0210 FFF7FEFF 		bl	CyBle_ReadByTypeEventHandler
1441:.\Generated_Source\PSoC4/BLE_eventHandler.c ****             break;
 971              		.loc 1 1441 0
 972 0214 2EE0     		b	.L57
 973              	.L49:
1442:.\Generated_Source\PSoC4/BLE_eventHandler.c **** 
1443:.\Generated_Source\PSoC4/BLE_eventHandler.c ****         case CYBLE_EVT_GATTC_FIND_INFO_RSP:
1444:.\Generated_Source\PSoC4/BLE_eventHandler.c ****             CyBle_FindInfoEventHandler((CYBLE_GATTC_FIND_INFO_RSP_PARAM_T *)eventParam);
 974              		.loc 1 1444 0
 975 0216 3B68     		ldr	r3, [r7]
 976 0218 181C     		mov	r0, r3
 977 021a FFF7FEFF 		bl	CyBle_FindInfoEventHandler
1445:.\Generated_Source\PSoC4/BLE_eventHandler.c ****             break;
 978              		.loc 1 1445 0
 979 021e 29E0     		b	.L57
 980              	.L43:
1446:.\Generated_Source\PSoC4/BLE_eventHandler.c **** 
1447:.\Generated_Source\PSoC4/BLE_eventHandler.c ****         case CYBLE_EVT_GATTC_ERROR_RSP:
1448:.\Generated_Source\PSoC4/BLE_eventHandler.c ****             CyBle_ErrorResponseEventHandler((CYBLE_GATTC_ERR_RSP_PARAM_T *)eventParam);
 981              		.loc 1 1448 0
 982 0220 3B68     		ldr	r3, [r7]
 983 0222 181C     		mov	r0, r3
 984 0224 FFF7FEFF 		bl	CyBle_ErrorResponseEventHandler
1449:.\Generated_Source\PSoC4/BLE_eventHandler.c ****             break;
 985              		.loc 1 1449 0
 986 0228 24E0     		b	.L57
 987              	.L52:
1450:.\Generated_Source\PSoC4/BLE_eventHandler.c **** 
1451:.\Generated_Source\PSoC4/BLE_eventHandler.c ****         case CYBLE_EVT_GATTC_HANDLE_VALUE_NTF:
1452:.\Generated_Source\PSoC4/BLE_eventHandler.c ****             CyBle_NotificationEventHandler((CYBLE_GATTC_HANDLE_VALUE_NTF_PARAM_T *)eventParam);
 988              		.loc 1 1452 0
ARM GAS  C:\Users\Zachary\AppData\Local\Temp\ccmvMQUz.s 			page 44


 989 022a 3B68     		ldr	r3, [r7]
 990 022c 181C     		mov	r0, r3
 991 022e FFF7FEFF 		bl	CyBle_NotificationEventHandler
1453:.\Generated_Source\PSoC4/BLE_eventHandler.c ****             break;
 992              		.loc 1 1453 0
 993 0232 1FE0     		b	.L57
 994              	.L53:
1454:.\Generated_Source\PSoC4/BLE_eventHandler.c **** 
1455:.\Generated_Source\PSoC4/BLE_eventHandler.c ****         case CYBLE_EVT_GATTC_HANDLE_VALUE_IND:
1456:.\Generated_Source\PSoC4/BLE_eventHandler.c ****             CyBle_GattcIndicationEventHandler((CYBLE_GATTC_HANDLE_VALUE_IND_PARAM_T *)eventParam);
 995              		.loc 1 1456 0
 996 0234 3B68     		ldr	r3, [r7]
 997 0236 181C     		mov	r0, r3
 998 0238 FFF7FEFF 		bl	CyBle_GattcIndicationEventHandler
1457:.\Generated_Source\PSoC4/BLE_eventHandler.c ****             CyBle_IndicationEventHandler((CYBLE_GATTC_HANDLE_VALUE_IND_PARAM_T *)eventParam);
 999              		.loc 1 1457 0
 1000 023c 3B68     		ldr	r3, [r7]
 1001 023e 181C     		mov	r0, r3
 1002 0240 FFF7FEFF 		bl	CyBle_IndicationEventHandler
1458:.\Generated_Source\PSoC4/BLE_eventHandler.c ****         
1459:.\Generated_Source\PSoC4/BLE_eventHandler.c ****             /* Respond with a Handle Value Confirmation when request handled */
1460:.\Generated_Source\PSoC4/BLE_eventHandler.c ****             if((cyBle_eventHandlerFlag & CYBLE_CALLBACK) == 0u)
 1003              		.loc 1 1460 0
 1004 0244 184B     		ldr	r3, .L69
 1005 0246 1B78     		ldrb	r3, [r3]
 1006 0248 DBB2     		uxtb	r3, r3
 1007 024a 1A1C     		mov	r2, r3
 1008 024c 0123     		mov	r3, #1
 1009 024e 1340     		and	r3, r2
 1010 0250 04D1     		bne	.L66
1461:.\Generated_Source\PSoC4/BLE_eventHandler.c ****             {
1462:.\Generated_Source\PSoC4/BLE_eventHandler.c ****                 (void)CyBle_GattcConfirmation(((CYBLE_GATTC_HANDLE_VALUE_IND_PARAM_T *)eventParam)-
 1011              		.loc 1 1462 0
 1012 0252 3B68     		ldr	r3, [r7]
 1013 0254 1868     		ldr	r0, [r3]
 1014 0256 FFF7FEFF 		bl	CyBle_GattcConfirmation
1463:.\Generated_Source\PSoC4/BLE_eventHandler.c ****             }
1464:.\Generated_Source\PSoC4/BLE_eventHandler.c ****             break;
 1015              		.loc 1 1464 0
 1016 025a 0BE0     		b	.L57
 1017              	.L66:
 1018 025c 0AE0     		b	.L57
 1019              	.L50:
1465:.\Generated_Source\PSoC4/BLE_eventHandler.c ****         
1466:.\Generated_Source\PSoC4/BLE_eventHandler.c ****         case CYBLE_EVT_GATTC_READ_RSP:
1467:.\Generated_Source\PSoC4/BLE_eventHandler.c ****             CyBle_ReadResponseEventHandler((CYBLE_GATTC_READ_RSP_PARAM_T *)eventParam);
 1020              		.loc 1 1467 0
 1021 025e 3B68     		ldr	r3, [r7]
 1022 0260 181C     		mov	r0, r3
 1023 0262 FFF7FEFF 		bl	CyBle_ReadResponseEventHandler
1468:.\Generated_Source\PSoC4/BLE_eventHandler.c ****             break;
 1024              		.loc 1 1468 0
 1025 0266 05E0     		b	.L57
 1026              	.L51:
1469:.\Generated_Source\PSoC4/BLE_eventHandler.c **** 
1470:.\Generated_Source\PSoC4/BLE_eventHandler.c ****         case CYBLE_EVT_GATTC_WRITE_RSP:
1471:.\Generated_Source\PSoC4/BLE_eventHandler.c ****             CyBle_GattcWriteResponseEventHandler((CYBLE_CONN_HANDLE_T *)eventParam);
ARM GAS  C:\Users\Zachary\AppData\Local\Temp\ccmvMQUz.s 			page 45


 1027              		.loc 1 1471 0
 1028 0268 3B68     		ldr	r3, [r7]
 1029 026a 181C     		mov	r0, r3
 1030 026c FFF7FEFF 		bl	CyBle_GattcWriteResponseEventHandler
1472:.\Generated_Source\PSoC4/BLE_eventHandler.c ****             break;
 1031              		.loc 1 1472 0
 1032 0270 00E0     		b	.L57
 1033              	.L68:
1473:.\Generated_Source\PSoC4/BLE_eventHandler.c ****             
1474:.\Generated_Source\PSoC4/BLE_eventHandler.c ****     #endif /* CYBLE_GATT_ROLE_CLIENT */
1475:.\Generated_Source\PSoC4/BLE_eventHandler.c **** 
1476:.\Generated_Source\PSoC4/BLE_eventHandler.c ****     #if((CYBLE_GAP_ROLE_PERIPHERAL || CYBLE_GAP_ROLE_CENTRAL) && (CYBLE_BONDING_REQUIREMENT == CYBL
1477:.\Generated_Source\PSoC4/BLE_eventHandler.c **** 
1478:.\Generated_Source\PSoC4/BLE_eventHandler.c ****         case CYBLE_EVT_PENDING_FLASH_WRITE:
1479:.\Generated_Source\PSoC4/BLE_eventHandler.c ****             cyBle_pendingFlashWrite |= CYBLE_PENDING_STACK_FLASH_WRITE_BIT;
1480:.\Generated_Source\PSoC4/BLE_eventHandler.c ****             break;
1481:.\Generated_Source\PSoC4/BLE_eventHandler.c ****         
1482:.\Generated_Source\PSoC4/BLE_eventHandler.c ****     #endif  /* (CYBLE_BONDING_REQUIREMENT == CYBLE_BONDING_YES) */
1483:.\Generated_Source\PSoC4/BLE_eventHandler.c ****     
1484:.\Generated_Source\PSoC4/BLE_eventHandler.c ****         default:
1485:.\Generated_Source\PSoC4/BLE_eventHandler.c ****             break;
 1034              		.loc 1 1485 0
 1035 0272 C046     		mov	r8, r8
 1036              	.L57:
1486:.\Generated_Source\PSoC4/BLE_eventHandler.c ****     }
1487:.\Generated_Source\PSoC4/BLE_eventHandler.c **** 
1488:.\Generated_Source\PSoC4/BLE_eventHandler.c ****     if(0u != (cyBle_eventHandlerFlag & (CYBLE_CALLBACK | CYBLE_ENABLE_ALL_EVENTS))) 
 1037              		.loc 1 1488 0
 1038 0274 0C4B     		ldr	r3, .L69
 1039 0276 1B78     		ldrb	r3, [r3]
 1040 0278 DBB2     		uxtb	r3, r3
 1041 027a 1A1C     		mov	r2, r3
 1042 027c 1123     		mov	r3, #17
 1043 027e 1340     		and	r3, r2
 1044 0280 0FD0     		beq	.L31
1489:.\Generated_Source\PSoC4/BLE_eventHandler.c ****     {
1490:.\Generated_Source\PSoC4/BLE_eventHandler.c ****         cyBle_eventHandlerFlag &= (uint8)~CYBLE_CALLBACK;
 1045              		.loc 1 1490 0
 1046 0282 094B     		ldr	r3, .L69
 1047 0284 1B78     		ldrb	r3, [r3]
 1048 0286 DBB2     		uxtb	r3, r3
 1049 0288 0122     		mov	r2, #1
 1050 028a 9343     		bic	r3, r2
 1051 028c DAB2     		uxtb	r2, r3
 1052 028e 064B     		ldr	r3, .L69
 1053 0290 1A70     		strb	r2, [r3]
1491:.\Generated_Source\PSoC4/BLE_eventHandler.c ****         CyBle_ApplCallback((uint32)eventCode, eventParam);
 1054              		.loc 1 1491 0
 1055 0292 124B     		ldr	r3, .L69+52
 1056 0294 1B68     		ldr	r3, [r3]
 1057 0296 FA1D     		add	r2, r7, #7
 1058 0298 1178     		ldrb	r1, [r2]
 1059 029a 3A68     		ldr	r2, [r7]
 1060 029c 081C     		mov	r0, r1
 1061 029e 111C     		mov	r1, r2
 1062 02a0 9847     		blx	r3
 1063              	.L31:
ARM GAS  C:\Users\Zachary\AppData\Local\Temp\ccmvMQUz.s 			page 46


1492:.\Generated_Source\PSoC4/BLE_eventHandler.c ****     }
1493:.\Generated_Source\PSoC4/BLE_eventHandler.c **** 
1494:.\Generated_Source\PSoC4/BLE_eventHandler.c **** }
 1064              		.loc 1 1494 0
 1065 02a2 BD46     		mov	sp, r7
 1066 02a4 04B0     		add	sp, sp, #16
 1067              		@ sp needed
 1068 02a6 80BD     		pop	{r7, pc}
 1069              	.L70:
 1070              		.align	2
 1071              	.L69:
 1072 02a8 00000000 		.word	cyBle_eventHandlerFlag
 1073 02ac 00000000 		.word	.L34
 1074 02b0 00000000 		.word	cyBle_sflashDeviceAddress
 1075 02b4 7CF1FF0F 		.word	268431740
 1076 02b8 00000000 		.word	cyBle_deviceAddress
 1077 02bc 7DF1FF0F 		.word	268431741
 1078 02c0 7BF1FF0F 		.word	268431739
 1079 02c4 00000000 		.word	cyBle_state
 1080 02c8 00000000 		.word	cyBle_busyStatus
 1081 02cc 00000000 		.word	cyBle_authInfo
 1082 02d0 00000000 		.word	cyBle_connHandle
 1083 02d4 00000000 		.word	cyBle_connectingTimeout
 1084 02d8 00000000 		.word	cyBle_clientState
 1085 02dc 00000000 		.word	CyBle_ApplCallback
 1086              		.cfi_endproc
 1087              	.LFE12:
 1088              		.size	CyBle_EventHandler, .-CyBle_EventHandler
 1089              		.section	.text.CyBle_ReadByGroupEventHandler,"ax",%progbits
 1090              		.align	2
 1091              		.global	CyBle_ReadByGroupEventHandler
 1092              		.code	16
 1093              		.thumb_func
 1094              		.type	CyBle_ReadByGroupEventHandler, %function
 1095              	CyBle_ReadByGroupEventHandler:
 1096              	.LFB13:
1495:.\Generated_Source\PSoC4/BLE_eventHandler.c **** 
1496:.\Generated_Source\PSoC4/BLE_eventHandler.c **** 
1497:.\Generated_Source\PSoC4/BLE_eventHandler.c **** #if (CYBLE_GATT_ROLE_CLIENT)
1498:.\Generated_Source\PSoC4/BLE_eventHandler.c **** 
1499:.\Generated_Source\PSoC4/BLE_eventHandler.c **** 
1500:.\Generated_Source\PSoC4/BLE_eventHandler.c **** /****************************************************************************** 
1501:.\Generated_Source\PSoC4/BLE_eventHandler.c **** ##Function Name: CyBle_ReadByGroupEventHandler
1502:.\Generated_Source\PSoC4/BLE_eventHandler.c **** *******************************************************************************
1503:.\Generated_Source\PSoC4/BLE_eventHandler.c **** 
1504:.\Generated_Source\PSoC4/BLE_eventHandler.c **** Summary:
1505:.\Generated_Source\PSoC4/BLE_eventHandler.c ****  Handles the Read By Group Response Event during an automatic server discovery
1506:.\Generated_Source\PSoC4/BLE_eventHandler.c ****  process.
1507:.\Generated_Source\PSoC4/BLE_eventHandler.c **** 
1508:.\Generated_Source\PSoC4/BLE_eventHandler.c **** Parameters:
1509:.\Generated_Source\PSoC4/BLE_eventHandler.c ****  CYBLE_GATT_READ_BY_GRP_RSP_PARAM_T *eventParam:  the event parameters for a Read By Group Response
1510:.\Generated_Source\PSoC4/BLE_eventHandler.c **** 
1511:.\Generated_Source\PSoC4/BLE_eventHandler.c **** Return:
1512:.\Generated_Source\PSoC4/BLE_eventHandler.c ****  None
1513:.\Generated_Source\PSoC4/BLE_eventHandler.c **** 
1514:.\Generated_Source\PSoC4/BLE_eventHandler.c **** ******************************************************************************/
1515:.\Generated_Source\PSoC4/BLE_eventHandler.c **** void CyBle_ReadByGroupEventHandler(CYBLE_GATTC_READ_BY_GRP_RSP_PARAM_T *eventParam)
ARM GAS  C:\Users\Zachary\AppData\Local\Temp\ccmvMQUz.s 			page 47


1516:.\Generated_Source\PSoC4/BLE_eventHandler.c **** {
 1097              		.loc 1 1516 0
 1098              		.cfi_startproc
 1099 0000 80B5     		push	{r7, lr}
 1100              		.cfi_def_cfa_offset 8
 1101              		.cfi_offset 7, -8
 1102              		.cfi_offset 14, -4
 1103 0002 86B0     		sub	sp, sp, #24
 1104              		.cfi_def_cfa_offset 32
 1105 0004 00AF     		add	r7, sp, #0
 1106              		.cfi_def_cfa_register 7
 1107 0006 7860     		str	r0, [r7, #4]
1517:.\Generated_Source\PSoC4/BLE_eventHandler.c ****     uint8 j;
1518:.\Generated_Source\PSoC4/BLE_eventHandler.c ****     uint16 dataLength;
1519:.\Generated_Source\PSoC4/BLE_eventHandler.c ****     uint16 attrLength;
1520:.\Generated_Source\PSoC4/BLE_eventHandler.c ****     uint16 i;
1521:.\Generated_Source\PSoC4/BLE_eventHandler.c ****     CYBLE_DISC_SRVC_INFO_T* discSrvcInfo = NULL;
 1108              		.loc 1 1521 0
 1109 0008 0023     		mov	r3, #0
 1110 000a 3B61     		str	r3, [r7, #16]
1522:.\Generated_Source\PSoC4/BLE_eventHandler.c ****     uint8 flag;
1523:.\Generated_Source\PSoC4/BLE_eventHandler.c ****     if((CYBLE_CLIENT_STATE_SRVC_DISCOVERING == CyBle_GetClientState()) &&
 1111              		.loc 1 1523 0
 1112 000c 754B     		ldr	r3, .L84
 1113 000e 1B78     		ldrb	r3, [r3]
 1114 0010 012B     		cmp	r3, #1
 1115 0012 00D0     		beq	.LCB883
 1116 0014 E2E0     		b	.L71	@long jump
 1117              	.LCB883:
1524:.\Generated_Source\PSoC4/BLE_eventHandler.c ****         (0u != (cyBle_eventHandlerFlag & CYBLE_AUTO_DISCOVERY)))
 1118              		.loc 1 1524 0 discriminator 1
 1119 0016 744B     		ldr	r3, .L84+4
 1120 0018 1B78     		ldrb	r3, [r3]
 1121 001a DBB2     		uxtb	r3, r3
 1122 001c 1A1C     		mov	r2, r3
 1123 001e 0223     		mov	r3, #2
 1124 0020 1340     		and	r3, r2
1523:.\Generated_Source\PSoC4/BLE_eventHandler.c ****     if((CYBLE_CLIENT_STATE_SRVC_DISCOVERING == CyBle_GetClientState()) &&
 1125              		.loc 1 1523 0 discriminator 1
 1126 0022 00D1     		bne	.LCB891
 1127 0024 DAE0     		b	.L71	@long jump
 1128              	.LCB891:
1525:.\Generated_Source\PSoC4/BLE_eventHandler.c ****     {
1526:.\Generated_Source\PSoC4/BLE_eventHandler.c ****         dataLength = eventParam->attrData.length;
 1129              		.loc 1 1526 0
 1130 0026 3B1C     		mov	r3, r7
 1131 0028 0C33     		add	r3, r3, #12
 1132 002a 7A68     		ldr	r2, [r7, #4]
 1133 002c 1289     		ldrh	r2, [r2, #8]
 1134 002e 1A80     		strh	r2, [r3]
1527:.\Generated_Source\PSoC4/BLE_eventHandler.c **** 
1528:.\Generated_Source\PSoC4/BLE_eventHandler.c ****         if((dataLength == CYBLE_DISC_SRVC_INFO_LEN) || (dataLength == CYBLE_DISC_SRVC_INFO_128_LEN)
 1135              		.loc 1 1528 0
 1136 0030 3B1C     		mov	r3, r7
 1137 0032 0C33     		add	r3, r3, #12
 1138 0034 1B88     		ldrh	r3, [r3]
 1139 0036 062B     		cmp	r3, #6
ARM GAS  C:\Users\Zachary\AppData\Local\Temp\ccmvMQUz.s 			page 48


 1140 0038 05D0     		beq	.L73
 1141              		.loc 1 1528 0 is_stmt 0 discriminator 1
 1142 003a 3B1C     		mov	r3, r7
 1143 003c 0C33     		add	r3, r3, #12
 1144 003e 1B88     		ldrh	r3, [r3]
 1145 0040 142B     		cmp	r3, #20
 1146 0042 00D0     		beq	.LCB906
 1147 0044 C3E0     		b	.L74	@long jump
 1148              	.LCB906:
 1149              	.L73:
1529:.\Generated_Source\PSoC4/BLE_eventHandler.c ****         {
1530:.\Generated_Source\PSoC4/BLE_eventHandler.c ****             attrLength = eventParam->attrData.attrLen;
 1150              		.loc 1 1530 0 is_stmt 1
 1151 0046 3B1C     		mov	r3, r7
 1152 0048 0A33     		add	r3, r3, #10
 1153 004a 7A68     		ldr	r2, [r7, #4]
 1154 004c 5289     		ldrh	r2, [r2, #10]
 1155 004e 1A80     		strh	r2, [r3]
1531:.\Generated_Source\PSoC4/BLE_eventHandler.c **** 
1532:.\Generated_Source\PSoC4/BLE_eventHandler.c ****             for(i = 0u; i < attrLength; i += dataLength)
 1156              		.loc 1 1532 0
 1157 0050 3B1C     		mov	r3, r7
 1158 0052 1433     		add	r3, r3, #20
 1159 0054 0022     		mov	r2, #0
 1160 0056 1A80     		strh	r2, [r3]
 1161 0058 85E0     		b	.L75
 1162              	.L82:
1533:.\Generated_Source\PSoC4/BLE_eventHandler.c ****             {
1534:.\Generated_Source\PSoC4/BLE_eventHandler.c ****                 discSrvcInfo = (CYBLE_DISC_SRVC_INFO_T*)(eventParam->attrData.attrValue + i);
 1163              		.loc 1 1534 0
 1164 005a 7B68     		ldr	r3, [r7, #4]
 1165 005c 5A68     		ldr	r2, [r3, #4]
 1166 005e 3B1C     		mov	r3, r7
 1167 0060 1433     		add	r3, r3, #20
 1168 0062 1B88     		ldrh	r3, [r3]
 1169 0064 D318     		add	r3, r2, r3
 1170 0066 3B61     		str	r3, [r7, #16]
1535:.\Generated_Source\PSoC4/BLE_eventHandler.c **** 
1536:.\Generated_Source\PSoC4/BLE_eventHandler.c ****                 if(dataLength == CYBLE_DISC_SRVC_INFO_LEN)
 1171              		.loc 1 1536 0
 1172 0068 3B1C     		mov	r3, r7
 1173 006a 0C33     		add	r3, r3, #12
 1174 006c 1B88     		ldrh	r3, [r3]
 1175 006e 062B     		cmp	r3, #6
 1176 0070 00D0     		beq	.LCB932
 1177 0072 6EE0     		b	.L76	@long jump
 1178              	.LCB932:
1537:.\Generated_Source\PSoC4/BLE_eventHandler.c ****                 {
1538:.\Generated_Source\PSoC4/BLE_eventHandler.c ****                     flag = 0u;
 1179              		.loc 1 1538 0
 1180 0074 3B1C     		mov	r3, r7
 1181 0076 0F33     		add	r3, r3, #15
 1182 0078 0022     		mov	r2, #0
 1183 007a 1A70     		strb	r2, [r3]
1539:.\Generated_Source\PSoC4/BLE_eventHandler.c **** 					for(j = 0u; (j < (uint8) CYBLE_SRVI_COUNT) && (flag == 0u); j++)
 1184              		.loc 1 1539 0
 1185 007c 3B1C     		mov	r3, r7
ARM GAS  C:\Users\Zachary\AppData\Local\Temp\ccmvMQUz.s 			page 49


 1186 007e 1733     		add	r3, r3, #23
 1187 0080 0022     		mov	r2, #0
 1188 0082 1A70     		strb	r2, [r3]
 1189 0084 5BE0     		b	.L77
 1190              	.L81:
1540:.\Generated_Source\PSoC4/BLE_eventHandler.c ****                     {
1541:.\Generated_Source\PSoC4/BLE_eventHandler.c ****                         if(cyBle_serverInfo[j].uuid == discSrvcInfo->uuid)
 1191              		.loc 1 1541 0
 1192 0086 3B1C     		mov	r3, r7
 1193 0088 1733     		add	r3, r3, #23
 1194 008a 1A78     		ldrb	r2, [r3]
 1195 008c 5749     		ldr	r1, .L84+8
 1196 008e 131C     		mov	r3, r2
 1197 0090 5B00     		lsl	r3, r3, #1
 1198 0092 9B18     		add	r3, r3, r2
 1199 0094 5B00     		lsl	r3, r3, #1
 1200 0096 CB18     		add	r3, r1, r3
 1201 0098 9A88     		ldrh	r2, [r3, #4]
 1202 009a 3B69     		ldr	r3, [r7, #16]
 1203 009c 9B88     		ldrh	r3, [r3, #4]
 1204 009e 9A42     		cmp	r2, r3
 1205 00a0 46D1     		bne	.L78
1542:.\Generated_Source\PSoC4/BLE_eventHandler.c ****                         {
1543:.\Generated_Source\PSoC4/BLE_eventHandler.c ****                             if(cyBle_serverInfo[j].range.startHandle == CYBLE_GATT_INVALID_ATTR_HAN
 1206              		.loc 1 1543 0
 1207 00a2 3B1C     		mov	r3, r7
 1208 00a4 1733     		add	r3, r3, #23
 1209 00a6 1A78     		ldrb	r2, [r3]
 1210 00a8 5049     		ldr	r1, .L84+8
 1211 00aa 131C     		mov	r3, r2
 1212 00ac 5B00     		lsl	r3, r3, #1
 1213 00ae 9B18     		add	r3, r3, r2
 1214 00b0 5B00     		lsl	r3, r3, #1
 1215 00b2 5B5A     		ldrh	r3, [r3, r1]
 1216 00b4 002B     		cmp	r3, #0
 1217 00b6 1AD1     		bne	.L79
1544:.\Generated_Source\PSoC4/BLE_eventHandler.c ****                             {
1545:.\Generated_Source\PSoC4/BLE_eventHandler.c ****                                 cyBle_serverInfo[j].range = discSrvcInfo->range;
 1218              		.loc 1 1545 0
 1219 00b8 3B1C     		mov	r3, r7
 1220 00ba 1733     		add	r3, r3, #23
 1221 00bc 1A78     		ldrb	r2, [r3]
 1222 00be 4B49     		ldr	r1, .L84+8
 1223 00c0 131C     		mov	r3, r2
 1224 00c2 5B00     		lsl	r3, r3, #1
 1225 00c4 9B18     		add	r3, r3, r2
 1226 00c6 5B00     		lsl	r3, r3, #1
 1227 00c8 3A69     		ldr	r2, [r7, #16]
 1228 00ca C918     		add	r1, r1, r3
 1229 00cc 0423     		mov	r3, #4
 1230 00ce 081C     		mov	r0, r1
 1231 00d0 111C     		mov	r1, r2
 1232 00d2 1A1C     		mov	r2, r3
 1233 00d4 FFF7FEFF 		bl	memcpy
1546:.\Generated_Source\PSoC4/BLE_eventHandler.c ****                                 cyBle_disCount++;
 1234              		.loc 1 1546 0
 1235 00d8 454B     		ldr	r3, .L84+12
ARM GAS  C:\Users\Zachary\AppData\Local\Temp\ccmvMQUz.s 			page 50


 1236 00da 1B78     		ldrb	r3, [r3]
 1237 00dc 0133     		add	r3, r3, #1
 1238 00de DAB2     		uxtb	r2, r3
 1239 00e0 434B     		ldr	r3, .L84+12
 1240 00e2 1A70     		strb	r2, [r3]
1547:.\Generated_Source\PSoC4/BLE_eventHandler.c ****                                 flag = 1u;
 1241              		.loc 1 1547 0
 1242 00e4 3B1C     		mov	r3, r7
 1243 00e6 0F33     		add	r3, r3, #15
 1244 00e8 0122     		mov	r2, #1
 1245 00ea 1A70     		strb	r2, [r3]
 1246 00ec 20E0     		b	.L78
 1247              	.L79:
1548:.\Generated_Source\PSoC4/BLE_eventHandler.c ****                             }
1549:.\Generated_Source\PSoC4/BLE_eventHandler.c ****                             else    /* Duplication of service */
1550:.\Generated_Source\PSoC4/BLE_eventHandler.c ****                             {
1551:.\Generated_Source\PSoC4/BLE_eventHandler.c ****                                 /* For multiple service support next service has the same uuid */
1552:.\Generated_Source\PSoC4/BLE_eventHandler.c ****                                 if((j >= (CYBLE_SRVI_COUNT - 1u)) || 
 1248              		.loc 1 1552 0
 1249 00ee 3B1C     		mov	r3, r7
 1250 00f0 1733     		add	r3, r3, #23
 1251 00f2 1B78     		ldrb	r3, [r3]
 1252 00f4 012B     		cmp	r3, #1
 1253 00f6 0ED8     		bhi	.L80
1553:.\Generated_Source\PSoC4/BLE_eventHandler.c ****                                    (cyBle_serverInfo[j + 1u].uuid != discSrvcInfo->uuid))
 1254              		.loc 1 1553 0 discriminator 1
 1255 00f8 3B1C     		mov	r3, r7
 1256 00fa 1733     		add	r3, r3, #23
 1257 00fc 1B78     		ldrb	r3, [r3]
 1258 00fe 5A1C     		add	r2, r3, #1
 1259 0100 3A49     		ldr	r1, .L84+8
 1260 0102 131C     		mov	r3, r2
 1261 0104 5B00     		lsl	r3, r3, #1
 1262 0106 9B18     		add	r3, r3, r2
 1263 0108 5B00     		lsl	r3, r3, #1
 1264 010a CB18     		add	r3, r1, r3
 1265 010c 9A88     		ldrh	r2, [r3, #4]
 1266 010e 3B69     		ldr	r3, [r7, #16]
 1267 0110 9B88     		ldrh	r3, [r3, #4]
1552:.\Generated_Source\PSoC4/BLE_eventHandler.c ****                                 if((j >= (CYBLE_SRVI_COUNT - 1u)) || 
 1268              		.loc 1 1552 0 discriminator 1
 1269 0112 9A42     		cmp	r2, r3
 1270 0114 0CD0     		beq	.L78
 1271              	.L80:
1554:.\Generated_Source\PSoC4/BLE_eventHandler.c ****                                 {
1555:.\Generated_Source\PSoC4/BLE_eventHandler.c ****                                     CyBle_ApplCallback(CYBLE_EVT_GATTC_SRVC_DUPLICATION, &discSrvcI
 1272              		.loc 1 1555 0
 1273 0116 374B     		ldr	r3, .L84+16
 1274 0118 1B68     		ldr	r3, [r3]
 1275 011a 3A69     		ldr	r2, [r7, #16]
 1276 011c 0432     		add	r2, r2, #4
 1277 011e 0C21     		mov	r1, #12
 1278 0120 FF31     		add	r1, r1, #255
 1279 0122 081C     		mov	r0, r1
 1280 0124 111C     		mov	r1, r2
 1281 0126 9847     		blx	r3
1556:.\Generated_Source\PSoC4/BLE_eventHandler.c ****                                     flag = 1u;
ARM GAS  C:\Users\Zachary\AppData\Local\Temp\ccmvMQUz.s 			page 51


 1282              		.loc 1 1556 0
 1283 0128 3B1C     		mov	r3, r7
 1284 012a 0F33     		add	r3, r3, #15
 1285 012c 0122     		mov	r2, #1
 1286 012e 1A70     		strb	r2, [r3]
 1287              	.L78:
1539:.\Generated_Source\PSoC4/BLE_eventHandler.c **** 					for(j = 0u; (j < (uint8) CYBLE_SRVI_COUNT) && (flag == 0u); j++)
 1288              		.loc 1 1539 0
 1289 0130 3B1C     		mov	r3, r7
 1290 0132 1733     		add	r3, r3, #23
 1291 0134 1A78     		ldrb	r2, [r3]
 1292 0136 3B1C     		mov	r3, r7
 1293 0138 1733     		add	r3, r3, #23
 1294 013a 0132     		add	r2, r2, #1
 1295 013c 1A70     		strb	r2, [r3]
 1296              	.L77:
1539:.\Generated_Source\PSoC4/BLE_eventHandler.c **** 					for(j = 0u; (j < (uint8) CYBLE_SRVI_COUNT) && (flag == 0u); j++)
 1297              		.loc 1 1539 0 is_stmt 0 discriminator 1
 1298 013e 3B1C     		mov	r3, r7
 1299 0140 1733     		add	r3, r3, #23
 1300 0142 1B78     		ldrb	r3, [r3]
 1301 0144 022B     		cmp	r3, #2
 1302 0146 04D8     		bhi	.L76
1539:.\Generated_Source\PSoC4/BLE_eventHandler.c **** 					for(j = 0u; (j < (uint8) CYBLE_SRVI_COUNT) && (flag == 0u); j++)
 1303              		.loc 1 1539 0 discriminator 2
 1304 0148 3B1C     		mov	r3, r7
 1305 014a 0F33     		add	r3, r3, #15
 1306 014c 1B78     		ldrb	r3, [r3]
 1307 014e 002B     		cmp	r3, #0
 1308 0150 99D0     		beq	.L81
 1309              	.L76:
1532:.\Generated_Source\PSoC4/BLE_eventHandler.c ****             for(i = 0u; i < attrLength; i += dataLength)
 1310              		.loc 1 1532 0 is_stmt 1
 1311 0152 3B1C     		mov	r3, r7
 1312 0154 1433     		add	r3, r3, #20
 1313 0156 391C     		mov	r1, r7
 1314 0158 1431     		add	r1, r1, #20
 1315 015a 3A1C     		mov	r2, r7
 1316 015c 0C32     		add	r2, r2, #12
 1317 015e 0988     		ldrh	r1, [r1]
 1318 0160 1288     		ldrh	r2, [r2]
 1319 0162 8A18     		add	r2, r1, r2
 1320 0164 1A80     		strh	r2, [r3]
 1321              	.L75:
1532:.\Generated_Source\PSoC4/BLE_eventHandler.c ****             for(i = 0u; i < attrLength; i += dataLength)
 1322              		.loc 1 1532 0 is_stmt 0 discriminator 1
 1323 0166 3A1C     		mov	r2, r7
 1324 0168 1432     		add	r2, r2, #20
 1325 016a 3B1C     		mov	r3, r7
 1326 016c 0A33     		add	r3, r3, #10
 1327 016e 1288     		ldrh	r2, [r2]
 1328 0170 1B88     		ldrh	r3, [r3]
 1329 0172 9A42     		cmp	r2, r3
 1330 0174 00D2     		bcs	.LCB1074
 1331 0176 70E7     		b	.L82	@long jump
 1332              	.LCB1074:
1557:.\Generated_Source\PSoC4/BLE_eventHandler.c ****                                 }
ARM GAS  C:\Users\Zachary\AppData\Local\Temp\ccmvMQUz.s 			page 52


1558:.\Generated_Source\PSoC4/BLE_eventHandler.c ****                             }
1559:.\Generated_Source\PSoC4/BLE_eventHandler.c ****                         }
1560:.\Generated_Source\PSoC4/BLE_eventHandler.c ****                     }
1561:.\Generated_Source\PSoC4/BLE_eventHandler.c ****                 }
1562:.\Generated_Source\PSoC4/BLE_eventHandler.c ****             }
1563:.\Generated_Source\PSoC4/BLE_eventHandler.c **** 
1564:.\Generated_Source\PSoC4/BLE_eventHandler.c ****             if((discSrvcInfo != NULL) && (discSrvcInfo->range.endHandle == CYBLE_GATT_ATTR_HANDLE_E
 1333              		.loc 1 1564 0 is_stmt 1
 1334 0178 3B69     		ldr	r3, [r7, #16]
 1335 017a 002B     		cmp	r3, #0
 1336 017c 1ED0     		beq	.L83
 1337              		.loc 1 1564 0 is_stmt 0 discriminator 1
 1338 017e 3B69     		ldr	r3, [r7, #16]
 1339 0180 5A88     		ldrh	r2, [r3, #2]
 1340 0182 1D4B     		ldr	r3, .L84+20
 1341 0184 9A42     		cmp	r2, r3
 1342 0186 19D1     		bne	.L83
1565:.\Generated_Source\PSoC4/BLE_eventHandler.c ****             {
1566:.\Generated_Source\PSoC4/BLE_eventHandler.c ****             #if(CYBLE_STACK_MODE_DEBUG)
1567:.\Generated_Source\PSoC4/BLE_eventHandler.c ****                 CyBle_ApplCallback(CYBLE_EVT_GATTC_SRVC_DISCOVERY_COMPLETE, NULL);
1568:.\Generated_Source\PSoC4/BLE_eventHandler.c ****             #endif /* CYBLE_STACK_MODE_DEBUG */   
1569:.\Generated_Source\PSoC4/BLE_eventHandler.c ****                 CyBle_SetClientState(CYBLE_CLIENT_STATE_INCL_DISCOVERING);
 1343              		.loc 1 1569 0 is_stmt 1
 1344 0188 164B     		ldr	r3, .L84
 1345 018a 0222     		mov	r2, #2
 1346 018c 1A70     		strb	r2, [r3]
1570:.\Generated_Source\PSoC4/BLE_eventHandler.c ****                 cyBle_disCount = 0u;
 1347              		.loc 1 1570 0
 1348 018e 184B     		ldr	r3, .L84+12
 1349 0190 0022     		mov	r2, #0
 1350 0192 1A70     		strb	r2, [r3]
1571:.\Generated_Source\PSoC4/BLE_eventHandler.c ****                 if(CYBLE_ERROR_OK != CyBle_NextInclDiscovery())
 1351              		.loc 1 1571 0
 1352 0194 FFF7FEFF 		bl	CyBle_NextInclDiscovery
 1353 0198 031C     		mov	r3, r0
 1354 019a 002B     		cmp	r3, #0
 1355 019c 0ED0     		beq	.L83
1572:.\Generated_Source\PSoC4/BLE_eventHandler.c ****                 {
1573:.\Generated_Source\PSoC4/BLE_eventHandler.c ****                     CyBle_ApplCallback(CYBLE_EVT_GATTC_INCL_DISCOVERY_FAILED, NULL);
 1356              		.loc 1 1573 0
 1357 019e 154B     		ldr	r3, .L84+16
 1358 01a0 1B68     		ldr	r3, [r3]
 1359 01a2 8422     		mov	r2, #132
 1360 01a4 5200     		lsl	r2, r2, #1
 1361 01a6 101C     		mov	r0, r2
 1362 01a8 0021     		mov	r1, #0
 1363 01aa 9847     		blx	r3
1574:.\Generated_Source\PSoC4/BLE_eventHandler.c ****                     cyBle_eventHandlerFlag &= (uint8)~CYBLE_AUTO_DISCOVERY;
 1364              		.loc 1 1574 0
 1365 01ac 0E4B     		ldr	r3, .L84+4
 1366 01ae 1B78     		ldrb	r3, [r3]
 1367 01b0 DBB2     		uxtb	r3, r3
 1368 01b2 0222     		mov	r2, #2
 1369 01b4 9343     		bic	r3, r2
 1370 01b6 DAB2     		uxtb	r2, r3
 1371 01b8 0B4B     		ldr	r3, .L84+4
 1372 01ba 1A70     		strb	r2, [r3]
ARM GAS  C:\Users\Zachary\AppData\Local\Temp\ccmvMQUz.s 			page 53


 1373              	.L83:
1575:.\Generated_Source\PSoC4/BLE_eventHandler.c ****                 }
1576:.\Generated_Source\PSoC4/BLE_eventHandler.c ****             }
1577:.\Generated_Source\PSoC4/BLE_eventHandler.c ****             cyBle_eventHandlerFlag &= (uint8)~CYBLE_CALLBACK;
 1374              		.loc 1 1577 0
 1375 01bc 0A4B     		ldr	r3, .L84+4
 1376 01be 1B78     		ldrb	r3, [r3]
 1377 01c0 DBB2     		uxtb	r3, r3
 1378 01c2 0122     		mov	r2, #1
 1379 01c4 9343     		bic	r3, r2
 1380 01c6 DAB2     		uxtb	r2, r3
 1381 01c8 074B     		ldr	r3, .L84+4
 1382 01ca 1A70     		strb	r2, [r3]
 1383 01cc 06E0     		b	.L71
 1384              	.L74:
1578:.\Generated_Source\PSoC4/BLE_eventHandler.c ****         }
1579:.\Generated_Source\PSoC4/BLE_eventHandler.c ****         else
1580:.\Generated_Source\PSoC4/BLE_eventHandler.c ****         {
1581:.\Generated_Source\PSoC4/BLE_eventHandler.c ****             CyBle_ApplCallback(CYBLE_EVT_GATTC_SRVC_DISCOVERY_FAILED, NULL);
 1385              		.loc 1 1581 0
 1386 01ce 094B     		ldr	r3, .L84+16
 1387 01d0 1B68     		ldr	r3, [r3]
 1388 01d2 0822     		mov	r2, #8
 1389 01d4 FF32     		add	r2, r2, #255
 1390 01d6 101C     		mov	r0, r2
 1391 01d8 0021     		mov	r1, #0
 1392 01da 9847     		blx	r3
 1393              	.L71:
1582:.\Generated_Source\PSoC4/BLE_eventHandler.c ****         }
1583:.\Generated_Source\PSoC4/BLE_eventHandler.c ****     }
1584:.\Generated_Source\PSoC4/BLE_eventHandler.c **** }
 1394              		.loc 1 1584 0
 1395 01dc BD46     		mov	sp, r7
 1396 01de 06B0     		add	sp, sp, #24
 1397              		@ sp needed
 1398 01e0 80BD     		pop	{r7, pc}
 1399              	.L85:
 1400 01e2 C046     		.align	2
 1401              	.L84:
 1402 01e4 00000000 		.word	cyBle_clientState
 1403 01e8 00000000 		.word	cyBle_eventHandlerFlag
 1404 01ec 00000000 		.word	cyBle_serverInfo
 1405 01f0 00000000 		.word	cyBle_disCount
 1406 01f4 00000000 		.word	CyBle_ApplCallback
 1407 01f8 FFFF0000 		.word	65535
 1408              		.cfi_endproc
 1409              	.LFE13:
 1410              		.size	CyBle_ReadByGroupEventHandler, .-CyBle_ReadByGroupEventHandler
 1411              		.section	.text.CyBle_NextInclDiscovery,"ax",%progbits
 1412              		.align	2
 1413              		.global	CyBle_NextInclDiscovery
 1414              		.code	16
 1415              		.thumb_func
 1416              		.type	CyBle_NextInclDiscovery, %function
 1417              	CyBle_NextInclDiscovery:
 1418              	.LFB14:
1585:.\Generated_Source\PSoC4/BLE_eventHandler.c **** 
ARM GAS  C:\Users\Zachary\AppData\Local\Temp\ccmvMQUz.s 			page 54


1586:.\Generated_Source\PSoC4/BLE_eventHandler.c **** 
1587:.\Generated_Source\PSoC4/BLE_eventHandler.c **** /****************************************************************************** 
1588:.\Generated_Source\PSoC4/BLE_eventHandler.c **** ##Function Name: CyBle_NextInclDiscovery
1589:.\Generated_Source\PSoC4/BLE_eventHandler.c **** *******************************************************************************
1590:.\Generated_Source\PSoC4/BLE_eventHandler.c **** 
1591:.\Generated_Source\PSoC4/BLE_eventHandler.c **** Summary:
1592:.\Generated_Source\PSoC4/BLE_eventHandler.c ****  Looks for the included services in the current service (pointed by
1593:.\Generated_Source\PSoC4/BLE_eventHandler.c ****   cyBle_disCount). If the current service handle range is invalid (any of start
1594:.\Generated_Source\PSoC4/BLE_eventHandler.c ****   or end handle is invalid), then increment the cyBle_disCount and check
1595:.\Generated_Source\PSoC4/BLE_eventHandler.c ****   the next service range and does so until a valid range is caught or the end of
1596:.\Generated_Source\PSoC4/BLE_eventHandler.c ****   the service set is reached.
1597:.\Generated_Source\PSoC4/BLE_eventHandler.c **** 
1598:.\Generated_Source\PSoC4/BLE_eventHandler.c **** Parameters:
1599:.\Generated_Source\PSoC4/BLE_eventHandler.c ****  None
1600:.\Generated_Source\PSoC4/BLE_eventHandler.c **** 
1601:.\Generated_Source\PSoC4/BLE_eventHandler.c **** Return:
1602:.\Generated_Source\PSoC4/BLE_eventHandler.c ****  uint16 apiResult - may be either:
1603:.\Generated_Source\PSoC4/BLE_eventHandler.c ****          - CYBLE_DESCR_DISC_DONE when there are no more descriptors.
1604:.\Generated_Source\PSoC4/BLE_eventHandler.c ****          - result of the CyBle_GattcDiscoverAllCharacteristicDescriptors().
1605:.\Generated_Source\PSoC4/BLE_eventHandler.c **** 
1606:.\Generated_Source\PSoC4/BLE_eventHandler.c **** ******************************************************************************/
1607:.\Generated_Source\PSoC4/BLE_eventHandler.c **** CYBLE_API_RESULT_T CyBle_NextInclDiscovery(void)
1608:.\Generated_Source\PSoC4/BLE_eventHandler.c **** {
 1419              		.loc 1 1608 0
 1420              		.cfi_startproc
 1421 0000 90B5     		push	{r4, r7, lr}
 1422              		.cfi_def_cfa_offset 12
 1423              		.cfi_offset 4, -12
 1424              		.cfi_offset 7, -8
 1425              		.cfi_offset 14, -4
 1426 0002 83B0     		sub	sp, sp, #12
 1427              		.cfi_def_cfa_offset 24
 1428 0004 00AF     		add	r7, sp, #0
 1429              		.cfi_def_cfa_register 7
1609:.\Generated_Source\PSoC4/BLE_eventHandler.c ****     CYBLE_API_RESULT_T apiResult;
1610:.\Generated_Source\PSoC4/BLE_eventHandler.c **** 
1611:.\Generated_Source\PSoC4/BLE_eventHandler.c ****     /* Skip not existing services */
1612:.\Generated_Source\PSoC4/BLE_eventHandler.c ****     while((cyBle_disCount < (uint8) CYBLE_SRVI_COUNT) &&
 1430              		.loc 1 1612 0
 1431 0006 05E0     		b	.L87
 1432              	.L89:
1613:.\Generated_Source\PSoC4/BLE_eventHandler.c ****           (cyBle_serverInfo[cyBle_disCount].range.startHandle == CYBLE_GATT_INVALID_ATTR_HANDLE_VAL
1614:.\Generated_Source\PSoC4/BLE_eventHandler.c ****     {
1615:.\Generated_Source\PSoC4/BLE_eventHandler.c ****         cyBle_disCount++;
 1433              		.loc 1 1615 0
 1434 0008 1A4B     		ldr	r3, .L93
 1435 000a 1B78     		ldrb	r3, [r3]
 1436 000c 0133     		add	r3, r3, #1
 1437 000e DAB2     		uxtb	r2, r3
 1438 0010 184B     		ldr	r3, .L93
 1439 0012 1A70     		strb	r2, [r3]
 1440              	.L87:
1612:.\Generated_Source\PSoC4/BLE_eventHandler.c ****     while((cyBle_disCount < (uint8) CYBLE_SRVI_COUNT) &&
 1441              		.loc 1 1612 0 discriminator 1
 1442 0014 174B     		ldr	r3, .L93
 1443 0016 1B78     		ldrb	r3, [r3]
 1444 0018 022B     		cmp	r3, #2
ARM GAS  C:\Users\Zachary\AppData\Local\Temp\ccmvMQUz.s 			page 55


 1445 001a 0AD8     		bhi	.L88
1613:.\Generated_Source\PSoC4/BLE_eventHandler.c ****           (cyBle_serverInfo[cyBle_disCount].range.startHandle == CYBLE_GATT_INVALID_ATTR_HANDLE_VAL
 1446              		.loc 1 1613 0 discriminator 2
 1447 001c 154B     		ldr	r3, .L93
 1448 001e 1B78     		ldrb	r3, [r3]
 1449 0020 1A1C     		mov	r2, r3
 1450 0022 1549     		ldr	r1, .L93+4
 1451 0024 131C     		mov	r3, r2
 1452 0026 5B00     		lsl	r3, r3, #1
 1453 0028 9B18     		add	r3, r3, r2
 1454 002a 5B00     		lsl	r3, r3, #1
 1455 002c 5B5A     		ldrh	r3, [r3, r1]
1612:.\Generated_Source\PSoC4/BLE_eventHandler.c ****     while((cyBle_disCount < (uint8) CYBLE_SRVI_COUNT) &&
 1456              		.loc 1 1612 0 discriminator 2
 1457 002e 002B     		cmp	r3, #0
 1458 0030 EAD0     		beq	.L89
 1459              	.L88:
1616:.\Generated_Source\PSoC4/BLE_eventHandler.c ****     }
1617:.\Generated_Source\PSoC4/BLE_eventHandler.c **** 
1618:.\Generated_Source\PSoC4/BLE_eventHandler.c ****     if(cyBle_disCount < (uint8) CYBLE_SRVI_COUNT)
 1460              		.loc 1 1618 0
 1461 0032 104B     		ldr	r3, .L93
 1462 0034 1B78     		ldrb	r3, [r3]
 1463 0036 022B     		cmp	r3, #2
 1464 0038 11D8     		bhi	.L90
1619:.\Generated_Source\PSoC4/BLE_eventHandler.c ****     {
1620:.\Generated_Source\PSoC4/BLE_eventHandler.c ****         apiResult = CyBle_GattcFindIncludedServices(cyBle_connHandle, &cyBle_serverInfo[cyBle_disCo
 1465              		.loc 1 1620 0
 1466 003a 0E4B     		ldr	r3, .L93
 1467 003c 1B78     		ldrb	r3, [r3]
 1468 003e 1A1C     		mov	r2, r3
 1469 0040 131C     		mov	r3, r2
 1470 0042 5B00     		lsl	r3, r3, #1
 1471 0044 9B18     		add	r3, r3, r2
 1472 0046 5B00     		lsl	r3, r3, #1
 1473 0048 0B4A     		ldr	r2, .L93+4
 1474 004a 9A18     		add	r2, r3, r2
 1475 004c BC1D     		add	r4, r7, #6
 1476 004e 0B4B     		ldr	r3, .L93+8
 1477 0050 1868     		ldr	r0, [r3]
 1478 0052 111C     		mov	r1, r2
 1479 0054 FFF7FEFF 		bl	CyBle_GattcFindIncludedServices
 1480 0058 031C     		mov	r3, r0
 1481 005a 2380     		strh	r3, [r4]
 1482 005c 03E0     		b	.L91
 1483              	.L90:
1621:.\Generated_Source\PSoC4/BLE_eventHandler.c ****     }
1622:.\Generated_Source\PSoC4/BLE_eventHandler.c ****     else
1623:.\Generated_Source\PSoC4/BLE_eventHandler.c ****     {
1624:.\Generated_Source\PSoC4/BLE_eventHandler.c ****         apiResult = CYBLE_INCL_DISC_DONE;
 1484              		.loc 1 1624 0
 1485 005e BB1D     		add	r3, r7, #6
 1486 0060 8022     		mov	r2, #128
 1487 0062 5200     		lsl	r2, r2, #1
 1488 0064 1A80     		strh	r2, [r3]
 1489              	.L91:
1625:.\Generated_Source\PSoC4/BLE_eventHandler.c ****     }
ARM GAS  C:\Users\Zachary\AppData\Local\Temp\ccmvMQUz.s 			page 56


1626:.\Generated_Source\PSoC4/BLE_eventHandler.c **** 
1627:.\Generated_Source\PSoC4/BLE_eventHandler.c ****     return (apiResult);
 1490              		.loc 1 1627 0
 1491 0066 BB1D     		add	r3, r7, #6
 1492 0068 1B88     		ldrh	r3, [r3]
1628:.\Generated_Source\PSoC4/BLE_eventHandler.c **** }
 1493              		.loc 1 1628 0
 1494 006a 181C     		mov	r0, r3
 1495 006c BD46     		mov	sp, r7
 1496 006e 03B0     		add	sp, sp, #12
 1497              		@ sp needed
 1498 0070 90BD     		pop	{r4, r7, pc}
 1499              	.L94:
 1500 0072 C046     		.align	2
 1501              	.L93:
 1502 0074 00000000 		.word	cyBle_disCount
 1503 0078 00000000 		.word	cyBle_serverInfo
 1504 007c 00000000 		.word	cyBle_connHandle
 1505              		.cfi_endproc
 1506              	.LFE14:
 1507              		.size	CyBle_NextInclDiscovery, .-CyBle_NextInclDiscovery
 1508              		.section	.text.CyBle_GapcDiscoverCharacteristicsEventHandler,"ax",%progbits
 1509              		.align	2
 1510              		.code	16
 1511              		.thumb_func
 1512              		.type	CyBle_GapcDiscoverCharacteristicsEventHandler, %function
 1513              	CyBle_GapcDiscoverCharacteristicsEventHandler:
 1514              	.LFB15:
1629:.\Generated_Source\PSoC4/BLE_eventHandler.c **** 
1630:.\Generated_Source\PSoC4/BLE_eventHandler.c **** 
1631:.\Generated_Source\PSoC4/BLE_eventHandler.c **** /****************************************************************************** 
1632:.\Generated_Source\PSoC4/BLE_eventHandler.c **** ##Function Name: CyBle_GapcDiscoverCharacteristicsEventHandler
1633:.\Generated_Source\PSoC4/BLE_eventHandler.c **** *******************************************************************************
1634:.\Generated_Source\PSoC4/BLE_eventHandler.c **** 
1635:.\Generated_Source\PSoC4/BLE_eventHandler.c **** Summary:
1636:.\Generated_Source\PSoC4/BLE_eventHandler.c ****  This function is called on receiving a "CYBLE_EVT_GATTC_READ_BY_TYPE_RSP"
1637:.\Generated_Source\PSoC4/BLE_eventHandler.c ****  event. Based on the service UUID, an appropriate data structure is populated
1638:.\Generated_Source\PSoC4/BLE_eventHandler.c ****  using the data received as part of the callback.
1639:.\Generated_Source\PSoC4/BLE_eventHandler.c **** 
1640:.\Generated_Source\PSoC4/BLE_eventHandler.c **** Parameters:
1641:.\Generated_Source\PSoC4/BLE_eventHandler.c ****  *discCharInfo:  the pointer to a characteristic information structure.
1642:.\Generated_Source\PSoC4/BLE_eventHandler.c **** 
1643:.\Generated_Source\PSoC4/BLE_eventHandler.c **** Return:
1644:.\Generated_Source\PSoC4/BLE_eventHandler.c ****  None
1645:.\Generated_Source\PSoC4/BLE_eventHandler.c **** 
1646:.\Generated_Source\PSoC4/BLE_eventHandler.c **** ******************************************************************************/
1647:.\Generated_Source\PSoC4/BLE_eventHandler.c **** static void CyBle_GapcDiscoverCharacteristicsEventHandler(CYBLE_DISC_CHAR_INFO_T *discCharInfo)
1648:.\Generated_Source\PSoC4/BLE_eventHandler.c **** {
 1515              		.loc 1 1648 0
 1516              		.cfi_startproc
 1517 0000 80B5     		push	{r7, lr}
 1518              		.cfi_def_cfa_offset 8
 1519              		.cfi_offset 7, -8
 1520              		.cfi_offset 14, -4
 1521 0002 82B0     		sub	sp, sp, #8
 1522              		.cfi_def_cfa_offset 16
 1523 0004 00AF     		add	r7, sp, #0
ARM GAS  C:\Users\Zachary\AppData\Local\Temp\ccmvMQUz.s 			page 57


 1524              		.cfi_def_cfa_register 7
 1525 0006 7860     		str	r0, [r7, #4]
1649:.\Generated_Source\PSoC4/BLE_eventHandler.c ****     switch(discCharInfo->uuid.uuid16)
 1526              		.loc 1 1649 0
 1527 0008 7B68     		ldr	r3, [r7, #4]
 1528 000a DB88     		ldrh	r3, [r3, #6]
 1529 000c 364A     		ldr	r2, .L115
 1530 000e 9B18     		add	r3, r3, r2
 1531 0010 042B     		cmp	r3, #4
 1532 0012 00D9     		bls	.LCB1262
 1533 0014 63E0     		b	.L114	@long jump
 1534              	.LCB1262:
 1535 0016 9A00     		lsl	r2, r3, #2
 1536 0018 344B     		ldr	r3, .L115+4
 1537 001a D318     		add	r3, r2, r3
 1538 001c 1B68     		ldr	r3, [r3]
 1539 001e 9F46     		mov	pc, r3
 1540              		.section	.rodata
 1541              		.align	2
 1542              	.L98:
 1543 01c8 20000000 		.word	.L97
 1544 01cc 46000000 		.word	.L99
 1545 01d0 6C000000 		.word	.L100
 1546 01d4 92000000 		.word	.L101
 1547 01d8 B8000000 		.word	.L102
 1548              		.section	.text.CyBle_GapcDiscoverCharacteristicsEventHandler
 1549              	.L97:
1650:.\Generated_Source\PSoC4/BLE_eventHandler.c ****     {
1651:.\Generated_Source\PSoC4/BLE_eventHandler.c ****     case CYBLE_UUID_CHAR_DEVICE_NAME:
1652:.\Generated_Source\PSoC4/BLE_eventHandler.c ****         CYBLE_GapcCheckCharHandle(cyBle_gapc.deviceNameCharHandle, discCharInfo);
 1550              		.loc 1 1652 0
 1551 0020 334B     		ldr	r3, .L115+8
 1552 0022 1B88     		ldrh	r3, [r3]
 1553 0024 002B     		cmp	r3, #0
 1554 0026 04D1     		bne	.L103
 1555              		.loc 1 1652 0 is_stmt 0 discriminator 1
 1556 0028 7B68     		ldr	r3, [r7, #4]
 1557 002a 9A88     		ldrh	r2, [r3, #4]
 1558 002c 304B     		ldr	r3, .L115+8
 1559 002e 1A80     		strh	r2, [r3]
1653:.\Generated_Source\PSoC4/BLE_eventHandler.c ****         break;
 1560              		.loc 1 1653 0 is_stmt 1 discriminator 1
 1561 0030 56E0     		b	.L95
 1562              	.L103:
1652:.\Generated_Source\PSoC4/BLE_eventHandler.c ****         CYBLE_GapcCheckCharHandle(cyBle_gapc.deviceNameCharHandle, discCharInfo);
 1563              		.loc 1 1652 0 discriminator 2
 1564 0032 304B     		ldr	r3, .L115+12
 1565 0034 1B68     		ldr	r3, [r3]
 1566 0036 7A68     		ldr	r2, [r7, #4]
 1567 0038 0632     		add	r2, r2, #6
 1568 003a 8621     		mov	r1, #134
 1569 003c 4900     		lsl	r1, r1, #1
 1570 003e 081C     		mov	r0, r1
 1571 0040 111C     		mov	r1, r2
 1572 0042 9847     		blx	r3
 1573              		.loc 1 1653 0 discriminator 2
 1574 0044 4CE0     		b	.L95
ARM GAS  C:\Users\Zachary\AppData\Local\Temp\ccmvMQUz.s 			page 58


 1575              	.L99:
1654:.\Generated_Source\PSoC4/BLE_eventHandler.c **** 
1655:.\Generated_Source\PSoC4/BLE_eventHandler.c ****     case CYBLE_UUID_CHAR_APPEARANCE:
1656:.\Generated_Source\PSoC4/BLE_eventHandler.c ****         CYBLE_GapcCheckCharHandle(cyBle_gapc.appearanceCharHandle, discCharInfo);
 1576              		.loc 1 1656 0
 1577 0046 2A4B     		ldr	r3, .L115+8
 1578 0048 5B88     		ldrh	r3, [r3, #2]
 1579 004a 002B     		cmp	r3, #0
 1580 004c 04D1     		bne	.L106
 1581              		.loc 1 1656 0 is_stmt 0 discriminator 1
 1582 004e 7B68     		ldr	r3, [r7, #4]
 1583 0050 9A88     		ldrh	r2, [r3, #4]
 1584 0052 274B     		ldr	r3, .L115+8
 1585 0054 5A80     		strh	r2, [r3, #2]
1657:.\Generated_Source\PSoC4/BLE_eventHandler.c ****         break;
 1586              		.loc 1 1657 0 is_stmt 1 discriminator 1
 1587 0056 43E0     		b	.L95
 1588              	.L106:
1656:.\Generated_Source\PSoC4/BLE_eventHandler.c ****         CYBLE_GapcCheckCharHandle(cyBle_gapc.appearanceCharHandle, discCharInfo);
 1589              		.loc 1 1656 0 discriminator 2
 1590 0058 264B     		ldr	r3, .L115+12
 1591 005a 1B68     		ldr	r3, [r3]
 1592 005c 7A68     		ldr	r2, [r7, #4]
 1593 005e 0632     		add	r2, r2, #6
 1594 0060 8621     		mov	r1, #134
 1595 0062 4900     		lsl	r1, r1, #1
 1596 0064 081C     		mov	r0, r1
 1597 0066 111C     		mov	r1, r2
 1598 0068 9847     		blx	r3
 1599              		.loc 1 1657 0 discriminator 2
 1600 006a 39E0     		b	.L95
 1601              	.L100:
1658:.\Generated_Source\PSoC4/BLE_eventHandler.c **** 
1659:.\Generated_Source\PSoC4/BLE_eventHandler.c ****     case CYBLE_UUID_CHAR_PERIPH_PRIVCY_FLAG:
1660:.\Generated_Source\PSoC4/BLE_eventHandler.c ****         CYBLE_GapcCheckCharHandle(cyBle_gapc.periphPrivacyCharHandle, discCharInfo);
 1602              		.loc 1 1660 0
 1603 006c 204B     		ldr	r3, .L115+8
 1604 006e 9B88     		ldrh	r3, [r3, #4]
 1605 0070 002B     		cmp	r3, #0
 1606 0072 04D1     		bne	.L108
 1607              		.loc 1 1660 0 is_stmt 0 discriminator 1
 1608 0074 7B68     		ldr	r3, [r7, #4]
 1609 0076 9A88     		ldrh	r2, [r3, #4]
 1610 0078 1D4B     		ldr	r3, .L115+8
 1611 007a 9A80     		strh	r2, [r3, #4]
1661:.\Generated_Source\PSoC4/BLE_eventHandler.c ****         break;
 1612              		.loc 1 1661 0 is_stmt 1 discriminator 1
 1613 007c 30E0     		b	.L95
 1614              	.L108:
1660:.\Generated_Source\PSoC4/BLE_eventHandler.c ****         CYBLE_GapcCheckCharHandle(cyBle_gapc.periphPrivacyCharHandle, discCharInfo);
 1615              		.loc 1 1660 0 discriminator 2
 1616 007e 1D4B     		ldr	r3, .L115+12
 1617 0080 1B68     		ldr	r3, [r3]
 1618 0082 7A68     		ldr	r2, [r7, #4]
 1619 0084 0632     		add	r2, r2, #6
 1620 0086 8621     		mov	r1, #134
 1621 0088 4900     		lsl	r1, r1, #1
ARM GAS  C:\Users\Zachary\AppData\Local\Temp\ccmvMQUz.s 			page 59


 1622 008a 081C     		mov	r0, r1
 1623 008c 111C     		mov	r1, r2
 1624 008e 9847     		blx	r3
 1625              		.loc 1 1661 0 discriminator 2
 1626 0090 26E0     		b	.L95
 1627              	.L101:
1662:.\Generated_Source\PSoC4/BLE_eventHandler.c **** 
1663:.\Generated_Source\PSoC4/BLE_eventHandler.c ****     case CYBLE_UUID_CHAR_RECONNECTION_ADDR:
1664:.\Generated_Source\PSoC4/BLE_eventHandler.c ****         CYBLE_GapcCheckCharHandle(cyBle_gapc.reconnAddrCharHandle, discCharInfo);
 1628              		.loc 1 1664 0
 1629 0092 174B     		ldr	r3, .L115+8
 1630 0094 DB88     		ldrh	r3, [r3, #6]
 1631 0096 002B     		cmp	r3, #0
 1632 0098 04D1     		bne	.L110
 1633              		.loc 1 1664 0 is_stmt 0 discriminator 1
 1634 009a 7B68     		ldr	r3, [r7, #4]
 1635 009c 9A88     		ldrh	r2, [r3, #4]
 1636 009e 144B     		ldr	r3, .L115+8
 1637 00a0 DA80     		strh	r2, [r3, #6]
1665:.\Generated_Source\PSoC4/BLE_eventHandler.c ****         break;
 1638              		.loc 1 1665 0 is_stmt 1 discriminator 1
 1639 00a2 1DE0     		b	.L95
 1640              	.L110:
1664:.\Generated_Source\PSoC4/BLE_eventHandler.c ****         CYBLE_GapcCheckCharHandle(cyBle_gapc.reconnAddrCharHandle, discCharInfo);
 1641              		.loc 1 1664 0 discriminator 2
 1642 00a4 134B     		ldr	r3, .L115+12
 1643 00a6 1B68     		ldr	r3, [r3]
 1644 00a8 7A68     		ldr	r2, [r7, #4]
 1645 00aa 0632     		add	r2, r2, #6
 1646 00ac 8621     		mov	r1, #134
 1647 00ae 4900     		lsl	r1, r1, #1
 1648 00b0 081C     		mov	r0, r1
 1649 00b2 111C     		mov	r1, r2
 1650 00b4 9847     		blx	r3
 1651              		.loc 1 1665 0 discriminator 2
 1652 00b6 13E0     		b	.L95
 1653              	.L102:
1666:.\Generated_Source\PSoC4/BLE_eventHandler.c **** 
1667:.\Generated_Source\PSoC4/BLE_eventHandler.c ****     case CYBLE_UUID_CHAR_PRFRRD_CNXN_PARAM:
1668:.\Generated_Source\PSoC4/BLE_eventHandler.c ****         CYBLE_GapcCheckCharHandle(cyBle_gapc.prefConnParamCharHandle, discCharInfo);
 1654              		.loc 1 1668 0
 1655 00b8 0D4B     		ldr	r3, .L115+8
 1656 00ba 1B89     		ldrh	r3, [r3, #8]
 1657 00bc 002B     		cmp	r3, #0
 1658 00be 04D1     		bne	.L112
 1659              		.loc 1 1668 0 is_stmt 0 discriminator 1
 1660 00c0 7B68     		ldr	r3, [r7, #4]
 1661 00c2 9A88     		ldrh	r2, [r3, #4]
 1662 00c4 0A4B     		ldr	r3, .L115+8
 1663 00c6 1A81     		strh	r2, [r3, #8]
1669:.\Generated_Source\PSoC4/BLE_eventHandler.c ****         break;
 1664              		.loc 1 1669 0 is_stmt 1 discriminator 1
 1665 00c8 0AE0     		b	.L95
 1666              	.L112:
1668:.\Generated_Source\PSoC4/BLE_eventHandler.c ****         CYBLE_GapcCheckCharHandle(cyBle_gapc.prefConnParamCharHandle, discCharInfo);
 1667              		.loc 1 1668 0 discriminator 2
 1668 00ca 0A4B     		ldr	r3, .L115+12
ARM GAS  C:\Users\Zachary\AppData\Local\Temp\ccmvMQUz.s 			page 60


 1669 00cc 1B68     		ldr	r3, [r3]
 1670 00ce 7A68     		ldr	r2, [r7, #4]
 1671 00d0 0632     		add	r2, r2, #6
 1672 00d2 8621     		mov	r1, #134
 1673 00d4 4900     		lsl	r1, r1, #1
 1674 00d6 081C     		mov	r0, r1
 1675 00d8 111C     		mov	r1, r2
 1676 00da 9847     		blx	r3
 1677              		.loc 1 1669 0 discriminator 2
 1678 00dc 00E0     		b	.L95
 1679              	.L114:
1670:.\Generated_Source\PSoC4/BLE_eventHandler.c **** 
1671:.\Generated_Source\PSoC4/BLE_eventHandler.c ****     default:
1672:.\Generated_Source\PSoC4/BLE_eventHandler.c ****         break;
 1680              		.loc 1 1672 0
 1681 00de C046     		mov	r8, r8
 1682              	.L95:
1673:.\Generated_Source\PSoC4/BLE_eventHandler.c ****     }
1674:.\Generated_Source\PSoC4/BLE_eventHandler.c **** }
 1683              		.loc 1 1674 0
 1684 00e0 BD46     		mov	sp, r7
 1685 00e2 02B0     		add	sp, sp, #8
 1686              		@ sp needed
 1687 00e4 80BD     		pop	{r7, pc}
 1688              	.L116:
 1689 00e6 C046     		.align	2
 1690              	.L115:
 1691 00e8 00D6FFFF 		.word	-10752
 1692 00ec C8010000 		.word	.L98
 1693 00f0 00000000 		.word	cyBle_gapc
 1694 00f4 00000000 		.word	CyBle_ApplCallback
 1695              		.cfi_endproc
 1696              	.LFE15:
 1697              		.size	CyBle_GapcDiscoverCharacteristicsEventHandler, .-CyBle_GapcDiscoverCharacteristicsEventHandl
 1698              		.section	.text.CyBle_ReadByTypeEventHandler,"ax",%progbits
 1699              		.align	2
 1700              		.global	CyBle_ReadByTypeEventHandler
 1701              		.code	16
 1702              		.thumb_func
 1703              		.type	CyBle_ReadByTypeEventHandler, %function
 1704              	CyBle_ReadByTypeEventHandler:
 1705              	.LFB16:
1675:.\Generated_Source\PSoC4/BLE_eventHandler.c **** 
1676:.\Generated_Source\PSoC4/BLE_eventHandler.c **** 
1677:.\Generated_Source\PSoC4/BLE_eventHandler.c **** /****************************************************************************** 
1678:.\Generated_Source\PSoC4/BLE_eventHandler.c **** ##Function Name: CyBle_ReadByTypeEventHandler
1679:.\Generated_Source\PSoC4/BLE_eventHandler.c **** *******************************************************************************
1680:.\Generated_Source\PSoC4/BLE_eventHandler.c **** Summary:
1681:.\Generated_Source\PSoC4/BLE_eventHandler.c ****  Handles the Read By Type Response Event during an automatic server discovery
1682:.\Generated_Source\PSoC4/BLE_eventHandler.c ****  process.
1683:.\Generated_Source\PSoC4/BLE_eventHandler.c **** 
1684:.\Generated_Source\PSoC4/BLE_eventHandler.c **** Parameters:
1685:.\Generated_Source\PSoC4/BLE_eventHandler.c ****  CYBLE_GATT_READ_BY_TYPE_RSP_PARAM_T *eventParam: The event parameters for a
1686:.\Generated_Source\PSoC4/BLE_eventHandler.c ****                                                   Read By Type Response.
1687:.\Generated_Source\PSoC4/BLE_eventHandler.c **** 
1688:.\Generated_Source\PSoC4/BLE_eventHandler.c **** Return:
1689:.\Generated_Source\PSoC4/BLE_eventHandler.c ****  None.
ARM GAS  C:\Users\Zachary\AppData\Local\Temp\ccmvMQUz.s 			page 61


1690:.\Generated_Source\PSoC4/BLE_eventHandler.c **** 
1691:.\Generated_Source\PSoC4/BLE_eventHandler.c **** ******************************************************************************/
1692:.\Generated_Source\PSoC4/BLE_eventHandler.c **** void CyBle_ReadByTypeEventHandler(CYBLE_GATTC_READ_BY_TYPE_RSP_PARAM_T *eventParam)
1693:.\Generated_Source\PSoC4/BLE_eventHandler.c **** {
 1706              		.loc 1 1693 0
 1707              		.cfi_startproc
 1708 0000 80B5     		push	{r7, lr}
 1709              		.cfi_def_cfa_offset 8
 1710              		.cfi_offset 7, -8
 1711              		.cfi_offset 14, -4
 1712 0002 92B0     		sub	sp, sp, #72
 1713              		.cfi_def_cfa_offset 80
 1714 0004 00AF     		add	r7, sp, #0
 1715              		.cfi_def_cfa_register 7
 1716 0006 7860     		str	r0, [r7, #4]
1694:.\Generated_Source\PSoC4/BLE_eventHandler.c ****     uint16 dataLength;
1695:.\Generated_Source\PSoC4/BLE_eventHandler.c ****     uint16 attrLength;
1696:.\Generated_Source\PSoC4/BLE_eventHandler.c ****     uint16 i, j;
1697:.\Generated_Source\PSoC4/BLE_eventHandler.c ****     uint8 *attrVal;
1698:.\Generated_Source\PSoC4/BLE_eventHandler.c **** 
1699:.\Generated_Source\PSoC4/BLE_eventHandler.c ****     if(0u != (cyBle_eventHandlerFlag & CYBLE_AUTO_DISCOVERY))
 1717              		.loc 1 1699 0
 1718 0008 CE4B     		ldr	r3, .L165
 1719 000a 1B78     		ldrb	r3, [r3]
 1720 000c DBB2     		uxtb	r3, r3
 1721 000e 1A1C     		mov	r2, r3
 1722 0010 0223     		mov	r3, #2
 1723 0012 1340     		and	r3, r2
 1724 0014 00D1     		bne	.LCB1440
 1725 0016 24E2     		b	.L117	@long jump
 1726              	.LCB1440:
1700:.\Generated_Source\PSoC4/BLE_eventHandler.c ****     {
1701:.\Generated_Source\PSoC4/BLE_eventHandler.c ****         /* Count of service information pieces in this mtu */
1702:.\Generated_Source\PSoC4/BLE_eventHandler.c ****         dataLength = eventParam->attrData.length;
 1727              		.loc 1 1702 0
 1728 0018 3B1C     		mov	r3, r7
 1729 001a 3E33     		add	r3, r3, #62
 1730 001c 7A68     		ldr	r2, [r7, #4]
 1731 001e 1289     		ldrh	r2, [r2, #8]
 1732 0020 1A80     		strh	r2, [r3]
1703:.\Generated_Source\PSoC4/BLE_eventHandler.c ****         attrLength = eventParam->attrData.attrLen;
 1733              		.loc 1 1703 0
 1734 0022 3B1C     		mov	r3, r7
 1735 0024 3C33     		add	r3, r3, #60
 1736 0026 7A68     		ldr	r2, [r7, #4]
 1737 0028 5289     		ldrh	r2, [r2, #10]
 1738 002a 1A80     		strh	r2, [r3]
1704:.\Generated_Source\PSoC4/BLE_eventHandler.c ****         attrVal = eventParam->attrData.attrValue;
 1739              		.loc 1 1704 0
 1740 002c 7B68     		ldr	r3, [r7, #4]
 1741 002e 5B68     		ldr	r3, [r3, #4]
 1742 0030 3B64     		str	r3, [r7, #64]
1705:.\Generated_Source\PSoC4/BLE_eventHandler.c ****         
1706:.\Generated_Source\PSoC4/BLE_eventHandler.c ****         if(CYBLE_CLIENT_STATE_CHAR_DISCOVERING == CyBle_GetClientState())
 1743              		.loc 1 1706 0
 1744 0032 C54B     		ldr	r3, .L165+4
 1745 0034 1B78     		ldrb	r3, [r3]
ARM GAS  C:\Users\Zachary\AppData\Local\Temp\ccmvMQUz.s 			page 62


 1746 0036 032B     		cmp	r3, #3
 1747 0038 00D0     		beq	.LCB1457
 1748 003a E7E0     		b	.L119	@long jump
 1749              	.LCB1457:
 1750              	.LBB4:
1707:.\Generated_Source\PSoC4/BLE_eventHandler.c ****         {
1708:.\Generated_Source\PSoC4/BLE_eventHandler.c ****             CYBLE_DISC_CHAR_INFO_T discCharInfo;
1709:.\Generated_Source\PSoC4/BLE_eventHandler.c ****             
1710:.\Generated_Source\PSoC4/BLE_eventHandler.c ****             for(i = 0u; i < attrLength; i += dataLength)
 1751              		.loc 1 1710 0
 1752 003c 3B1C     		mov	r3, r7
 1753 003e 4633     		add	r3, r3, #70
 1754 0040 0022     		mov	r2, #0
 1755 0042 1A80     		strh	r2, [r3]
 1756 0044 D8E0     		b	.L120
 1757              	.L136:
1711:.\Generated_Source\PSoC4/BLE_eventHandler.c ****             {
1712:.\Generated_Source\PSoC4/BLE_eventHandler.c ****                 discCharInfo.charDeclHandle = CyBle_Get16ByPtr(attrVal);
 1758              		.loc 1 1712 0
 1759 0046 3B6C     		ldr	r3, [r7, #64]
 1760 0048 181C     		mov	r0, r3
 1761 004a FFF7FEFF 		bl	CyBle_Get16ByPtr
 1762 004e 031C     		mov	r3, r0
 1763 0050 1A1C     		mov	r2, r3
 1764 0052 3B1C     		mov	r3, r7
 1765 0054 2433     		add	r3, r3, #36
 1766 0056 1A80     		strh	r2, [r3]
1713:.\Generated_Source\PSoC4/BLE_eventHandler.c ****                 attrVal += sizeof(discCharInfo.charDeclHandle);
 1767              		.loc 1 1713 0
 1768 0058 3B6C     		ldr	r3, [r7, #64]
 1769 005a 0233     		add	r3, r3, #2
 1770 005c 3B64     		str	r3, [r7, #64]
1714:.\Generated_Source\PSoC4/BLE_eventHandler.c ****                 discCharInfo.properties = *attrVal;
 1771              		.loc 1 1714 0
 1772 005e 3B6C     		ldr	r3, [r7, #64]
 1773 0060 1A78     		ldrb	r2, [r3]
 1774 0062 3B1C     		mov	r3, r7
 1775 0064 2433     		add	r3, r3, #36
 1776 0066 9A70     		strb	r2, [r3, #2]
1715:.\Generated_Source\PSoC4/BLE_eventHandler.c ****                 attrVal += sizeof(discCharInfo.properties);
 1777              		.loc 1 1715 0
 1778 0068 3B6C     		ldr	r3, [r7, #64]
 1779 006a 0133     		add	r3, r3, #1
 1780 006c 3B64     		str	r3, [r7, #64]
1716:.\Generated_Source\PSoC4/BLE_eventHandler.c ****                 discCharInfo.valueHandle = CyBle_Get16ByPtr(attrVal);
 1781              		.loc 1 1716 0
 1782 006e 3B6C     		ldr	r3, [r7, #64]
 1783 0070 181C     		mov	r0, r3
 1784 0072 FFF7FEFF 		bl	CyBle_Get16ByPtr
 1785 0076 031C     		mov	r3, r0
 1786 0078 1A1C     		mov	r2, r3
 1787 007a 3B1C     		mov	r3, r7
 1788 007c 2433     		add	r3, r3, #36
 1789 007e 9A80     		strh	r2, [r3, #4]
1717:.\Generated_Source\PSoC4/BLE_eventHandler.c ****                 attrVal += sizeof(discCharInfo.valueHandle);
 1790              		.loc 1 1717 0
 1791 0080 3B6C     		ldr	r3, [r7, #64]
ARM GAS  C:\Users\Zachary\AppData\Local\Temp\ccmvMQUz.s 			page 63


 1792 0082 0233     		add	r3, r3, #2
 1793 0084 3B64     		str	r3, [r7, #64]
1718:.\Generated_Source\PSoC4/BLE_eventHandler.c ****                 if(dataLength == CYBLE_DISC_CHAR_INFO_128_LEN)
 1794              		.loc 1 1718 0
 1795 0086 3B1C     		mov	r3, r7
 1796 0088 3E33     		add	r3, r3, #62
 1797 008a 1B88     		ldrh	r3, [r3]
 1798 008c 152B     		cmp	r3, #21
 1799 008e 12D1     		bne	.L121
1719:.\Generated_Source\PSoC4/BLE_eventHandler.c ****                 {
1720:.\Generated_Source\PSoC4/BLE_eventHandler.c ****                     discCharInfo.uuidFormat = CYBLE_GATT_128_BIT_UUID_FORMAT;
 1800              		.loc 1 1720 0
 1801 0090 3B1C     		mov	r3, r7
 1802 0092 2433     		add	r3, r3, #36
 1803 0094 0222     		mov	r2, #2
 1804 0096 9A75     		strb	r2, [r3, #22]
1721:.\Generated_Source\PSoC4/BLE_eventHandler.c ****                     (void)memcpy(&discCharInfo.uuid.uuid128, attrVal, CYBLE_GATT_128_BIT_UUID_SIZE)
 1805              		.loc 1 1721 0
 1806 0098 3A1C     		mov	r2, r7
 1807 009a 2A32     		add	r2, r2, #42
 1808 009c 3B6C     		ldr	r3, [r7, #64]
 1809 009e 111C     		mov	r1, r2
 1810 00a0 1A1C     		mov	r2, r3
 1811 00a2 1023     		mov	r3, #16
 1812 00a4 081C     		mov	r0, r1
 1813 00a6 111C     		mov	r1, r2
 1814 00a8 1A1C     		mov	r2, r3
 1815 00aa FFF7FEFF 		bl	memcpy
1722:.\Generated_Source\PSoC4/BLE_eventHandler.c ****                     attrVal += CYBLE_GATT_128_BIT_UUID_SIZE;
 1816              		.loc 1 1722 0
 1817 00ae 3B6C     		ldr	r3, [r7, #64]
 1818 00b0 1033     		add	r3, r3, #16
 1819 00b2 3B64     		str	r3, [r7, #64]
 1820 00b4 3BE0     		b	.L122
 1821              	.L121:
1723:.\Generated_Source\PSoC4/BLE_eventHandler.c ****                     /* Add custom profile support */
1724:.\Generated_Source\PSoC4/BLE_eventHandler.c ****                 }
1725:.\Generated_Source\PSoC4/BLE_eventHandler.c ****                 else if(dataLength == CYBLE_DISC_CHAR_INFO_LEN)
 1822              		.loc 1 1725 0
 1823 00b6 3B1C     		mov	r3, r7
 1824 00b8 3E33     		add	r3, r3, #62
 1825 00ba 1B88     		ldrh	r3, [r3]
 1826 00bc 072B     		cmp	r3, #7
 1827 00be 36D1     		bne	.L122
1726:.\Generated_Source\PSoC4/BLE_eventHandler.c ****                 {
1727:.\Generated_Source\PSoC4/BLE_eventHandler.c ****                     discCharInfo.uuidFormat = CYBLE_GATT_16_BIT_UUID_FORMAT;
 1828              		.loc 1 1727 0
 1829 00c0 3B1C     		mov	r3, r7
 1830 00c2 2433     		add	r3, r3, #36
 1831 00c4 0122     		mov	r2, #1
 1832 00c6 9A75     		strb	r2, [r3, #22]
1728:.\Generated_Source\PSoC4/BLE_eventHandler.c ****                     discCharInfo.uuid.uuid16 = CyBle_Get16ByPtr(attrVal);
 1833              		.loc 1 1728 0
 1834 00c8 3B6C     		ldr	r3, [r7, #64]
 1835 00ca 181C     		mov	r0, r3
 1836 00cc FFF7FEFF 		bl	CyBle_Get16ByPtr
 1837 00d0 031C     		mov	r3, r0
ARM GAS  C:\Users\Zachary\AppData\Local\Temp\ccmvMQUz.s 			page 64


 1838 00d2 1A1C     		mov	r2, r3
 1839 00d4 3B1C     		mov	r3, r7
 1840 00d6 2433     		add	r3, r3, #36
 1841 00d8 DA80     		strh	r2, [r3, #6]
1729:.\Generated_Source\PSoC4/BLE_eventHandler.c ****                     attrVal += CYBLE_GATT_16_BIT_UUID_SIZE;
 1842              		.loc 1 1729 0
 1843 00da 3B6C     		ldr	r3, [r7, #64]
 1844 00dc 0233     		add	r3, r3, #2
 1845 00de 3B64     		str	r3, [r7, #64]
1730:.\Generated_Source\PSoC4/BLE_eventHandler.c **** 
1731:.\Generated_Source\PSoC4/BLE_eventHandler.c ****                     /* Switch by service uuid */
1732:.\Generated_Source\PSoC4/BLE_eventHandler.c ****                     switch (cyBle_serverInfo[cyBle_disCount].uuid)
 1846              		.loc 1 1732 0
 1847 00e0 9A4B     		ldr	r3, .L165+8
 1848 00e2 1B78     		ldrb	r3, [r3]
 1849 00e4 1A1C     		mov	r2, r3
 1850 00e6 9A49     		ldr	r1, .L165+12
 1851 00e8 131C     		mov	r3, r2
 1852 00ea 5B00     		lsl	r3, r3, #1
 1853 00ec 9B18     		add	r3, r3, r2
 1854 00ee 5B00     		lsl	r3, r3, #1
 1855 00f0 CB18     		add	r3, r1, r3
 1856 00f2 9B88     		ldrh	r3, [r3, #4]
 1857 00f4 974A     		ldr	r2, .L165+16
 1858 00f6 9342     		cmp	r3, r2
 1859 00f8 0DD0     		beq	.L124
 1860 00fa 974A     		ldr	r2, .L165+20
 1861 00fc 9342     		cmp	r3, r2
 1862 00fe 10D0     		beq	.L125
 1863 0100 C022     		mov	r2, #192
 1864 0102 5201     		lsl	r2, r2, #5
 1865 0104 9342     		cmp	r3, r2
 1866 0106 00D0     		beq	.L126
1733:.\Generated_Source\PSoC4/BLE_eventHandler.c ****                     {
1734:.\Generated_Source\PSoC4/BLE_eventHandler.c ****                     case CYBLE_UUID_GAP_SERVICE:
1735:.\Generated_Source\PSoC4/BLE_eventHandler.c ****                         CyBle_GapcDiscoverCharacteristicsEventHandler(&discCharInfo);
1736:.\Generated_Source\PSoC4/BLE_eventHandler.c ****                         break;
1737:.\Generated_Source\PSoC4/BLE_eventHandler.c **** 
1738:.\Generated_Source\PSoC4/BLE_eventHandler.c ****                     case CYBLE_UUID_GATT_SERVICE:
1739:.\Generated_Source\PSoC4/BLE_eventHandler.c ****                         CyBle_GattcDiscoverCharacteristicsEventHandler(&discCharInfo);
1740:.\Generated_Source\PSoC4/BLE_eventHandler.c ****                         break;
1741:.\Generated_Source\PSoC4/BLE_eventHandler.c ****                 
1742:.\Generated_Source\PSoC4/BLE_eventHandler.c ****                 #ifdef CYBLE_ANS_CLIENT
1743:.\Generated_Source\PSoC4/BLE_eventHandler.c ****                     case CYBLE_UUID_ALERT_NOTIFICATION_SERVICE:
1744:.\Generated_Source\PSoC4/BLE_eventHandler.c ****                         CyBle_AnscDiscoverCharacteristicsEventHandler(&discCharInfo);
1745:.\Generated_Source\PSoC4/BLE_eventHandler.c ****                         break;
1746:.\Generated_Source\PSoC4/BLE_eventHandler.c ****                 #endif /* CYBLE_ANS_CLIENT */
1747:.\Generated_Source\PSoC4/BLE_eventHandler.c ****                         
1748:.\Generated_Source\PSoC4/BLE_eventHandler.c ****                 #ifdef CYBLE_BAS_CLIENT
1749:.\Generated_Source\PSoC4/BLE_eventHandler.c ****                     case CYBLE_UUID_BAS_SERVICE:
1750:.\Generated_Source\PSoC4/BLE_eventHandler.c ****                         CyBle_BascDiscoverCharacteristicsEventHandler(cyBle_disCount - CYBLE_SRVI_B
1751:.\Generated_Source\PSoC4/BLE_eventHandler.c ****                         break;
1752:.\Generated_Source\PSoC4/BLE_eventHandler.c ****                 #endif /* CYBLE_BAS_CLIENT */
1753:.\Generated_Source\PSoC4/BLE_eventHandler.c **** 
1754:.\Generated_Source\PSoC4/BLE_eventHandler.c ****                 #ifdef CYBLE_BLS_CLIENT
1755:.\Generated_Source\PSoC4/BLE_eventHandler.c ****                     case CYBLE_UUID_BLOOD_PRESSURE_SERVICE:
1756:.\Generated_Source\PSoC4/BLE_eventHandler.c ****                         CyBle_BlscDiscoverCharacteristicsEventHandler(&discCharInfo);
ARM GAS  C:\Users\Zachary\AppData\Local\Temp\ccmvMQUz.s 			page 65


1757:.\Generated_Source\PSoC4/BLE_eventHandler.c ****                         break;
1758:.\Generated_Source\PSoC4/BLE_eventHandler.c ****                 #endif /* CYBLE_BLS_CLIENT */
1759:.\Generated_Source\PSoC4/BLE_eventHandler.c ****                 
1760:.\Generated_Source\PSoC4/BLE_eventHandler.c ****                 #ifdef CYBLE_CGMS_CLIENT
1761:.\Generated_Source\PSoC4/BLE_eventHandler.c ****                     case CYBLE_UUID_CGM_SERVICE:
1762:.\Generated_Source\PSoC4/BLE_eventHandler.c ****                         CyBle_CgmscDiscoverCharacteristicsEventHandler(&discCharInfo);
1763:.\Generated_Source\PSoC4/BLE_eventHandler.c ****                         break;
1764:.\Generated_Source\PSoC4/BLE_eventHandler.c ****                 #endif /* CYBLE_CGMS_CLIENT */
1765:.\Generated_Source\PSoC4/BLE_eventHandler.c **** 
1766:.\Generated_Source\PSoC4/BLE_eventHandler.c ****                 #ifdef CYBLE_CPS_CLIENT
1767:.\Generated_Source\PSoC4/BLE_eventHandler.c ****                     case CYBLE_UUID_CPS_SERVICE:
1768:.\Generated_Source\PSoC4/BLE_eventHandler.c ****                         CyBle_CpscDiscoverCharacteristicsEventHandler(&discCharInfo);
1769:.\Generated_Source\PSoC4/BLE_eventHandler.c ****                         break;
1770:.\Generated_Source\PSoC4/BLE_eventHandler.c ****                 #endif /* CYBLE_CPS_CLIENT */
1771:.\Generated_Source\PSoC4/BLE_eventHandler.c **** 
1772:.\Generated_Source\PSoC4/BLE_eventHandler.c ****                 #ifdef CYBLE_CSCS_CLIENT
1773:.\Generated_Source\PSoC4/BLE_eventHandler.c ****                     case CYBLE_UUID_CYCLING_SPEED_AND_CADENCE_SERVICE:
1774:.\Generated_Source\PSoC4/BLE_eventHandler.c ****                         CyBle_CscscDiscoverCharacteristicsEventHandler(&discCharInfo);
1775:.\Generated_Source\PSoC4/BLE_eventHandler.c ****                         break;
1776:.\Generated_Source\PSoC4/BLE_eventHandler.c ****                 #endif /* CYBLE_CSCS_CLIENT */
1777:.\Generated_Source\PSoC4/BLE_eventHandler.c ****                 
1778:.\Generated_Source\PSoC4/BLE_eventHandler.c ****                 #ifdef CYBLE_CTS_CLIENT
1779:.\Generated_Source\PSoC4/BLE_eventHandler.c ****                     case CYBLE_UUID_CURRENT_TIME_SERVICE:
1780:.\Generated_Source\PSoC4/BLE_eventHandler.c ****                         CyBle_CtscDiscoverCharacteristicsEventHandler(&discCharInfo);
1781:.\Generated_Source\PSoC4/BLE_eventHandler.c ****                         break;
1782:.\Generated_Source\PSoC4/BLE_eventHandler.c ****                 #endif /* CYBLE_CTS_CLIENT */
1783:.\Generated_Source\PSoC4/BLE_eventHandler.c ****                 
1784:.\Generated_Source\PSoC4/BLE_eventHandler.c ****                 #ifdef CYBLE_DIS_CLIENT
1785:.\Generated_Source\PSoC4/BLE_eventHandler.c ****                     case CYBLE_UUID_DEVICE_INFO_SERVICE:
1786:.\Generated_Source\PSoC4/BLE_eventHandler.c ****                         CyBle_DiscDiscoverCharacteristicsEventHandler(&discCharInfo);
1787:.\Generated_Source\PSoC4/BLE_eventHandler.c ****                         break;
1788:.\Generated_Source\PSoC4/BLE_eventHandler.c ****                 #endif /* CYBLE_DIS_CLIENT */
1789:.\Generated_Source\PSoC4/BLE_eventHandler.c **** 
1790:.\Generated_Source\PSoC4/BLE_eventHandler.c ****                 #ifdef CYBLE_GLS_CLIENT
1791:.\Generated_Source\PSoC4/BLE_eventHandler.c ****                     case CYBLE_UUID_GLUCOSE_SERVICE:
1792:.\Generated_Source\PSoC4/BLE_eventHandler.c ****                         CyBle_GlscDiscoverCharacteristicsEventHandler(&discCharInfo);
1793:.\Generated_Source\PSoC4/BLE_eventHandler.c ****                         break;
1794:.\Generated_Source\PSoC4/BLE_eventHandler.c ****                 #endif /* CYBLE_GLS_CLIENT */
1795:.\Generated_Source\PSoC4/BLE_eventHandler.c ****                 
1796:.\Generated_Source\PSoC4/BLE_eventHandler.c ****                 #ifdef CYBLE_HIDS_CLIENT
1797:.\Generated_Source\PSoC4/BLE_eventHandler.c ****                     case CYBLE_UUID_HIDS_SERVICE:
1798:.\Generated_Source\PSoC4/BLE_eventHandler.c ****                         CyBle_HidscDiscoverCharacteristicsEventHandler(cyBle_disCount - CYBLE_SRVI_
1799:.\Generated_Source\PSoC4/BLE_eventHandler.c ****                         break;
1800:.\Generated_Source\PSoC4/BLE_eventHandler.c ****                 #endif /* CYBLE_HIDS_CLIENT */
1801:.\Generated_Source\PSoC4/BLE_eventHandler.c **** 
1802:.\Generated_Source\PSoC4/BLE_eventHandler.c ****                 #ifdef CYBLE_HRS_CLIENT
1803:.\Generated_Source\PSoC4/BLE_eventHandler.c ****                     case CYBLE_UUID_HEART_RATE_SERVICE:
1804:.\Generated_Source\PSoC4/BLE_eventHandler.c ****                         CyBle_HrscDiscoverCharacteristicsEventHandler(&discCharInfo);
1805:.\Generated_Source\PSoC4/BLE_eventHandler.c ****                         break;
1806:.\Generated_Source\PSoC4/BLE_eventHandler.c ****                 #endif /* CYBLE_HRS_CLIENT */
1807:.\Generated_Source\PSoC4/BLE_eventHandler.c **** 
1808:.\Generated_Source\PSoC4/BLE_eventHandler.c ****                 #ifdef CYBLE_HTS_CLIENT
1809:.\Generated_Source\PSoC4/BLE_eventHandler.c ****                     case CYBLE_UUID_HEALTH_THERMOMETER_SERVICE:
1810:.\Generated_Source\PSoC4/BLE_eventHandler.c ****                         CyBle_HtscDiscoverCharacteristicsEventHandler(&discCharInfo);
1811:.\Generated_Source\PSoC4/BLE_eventHandler.c ****                         break;
1812:.\Generated_Source\PSoC4/BLE_eventHandler.c ****                 #endif /* CYBLE_HRS_CLIENT */
1813:.\Generated_Source\PSoC4/BLE_eventHandler.c **** 
ARM GAS  C:\Users\Zachary\AppData\Local\Temp\ccmvMQUz.s 			page 66


1814:.\Generated_Source\PSoC4/BLE_eventHandler.c ****                 #ifdef CYBLE_IAS_CLIENT
1815:.\Generated_Source\PSoC4/BLE_eventHandler.c ****                     case CYBLE_UUID_IMMEDIATE_ALERT_SERVICE:
1816:.\Generated_Source\PSoC4/BLE_eventHandler.c ****                         CyBle_IascDiscoverCharacteristicsEventHandler(&discCharInfo);
1817:.\Generated_Source\PSoC4/BLE_eventHandler.c ****                         break;
1818:.\Generated_Source\PSoC4/BLE_eventHandler.c ****                 #endif /* CYBLE_IAS_CLIENT */
1819:.\Generated_Source\PSoC4/BLE_eventHandler.c **** 
1820:.\Generated_Source\PSoC4/BLE_eventHandler.c ****                 #ifdef CYBLE_LLS_CLIENT
1821:.\Generated_Source\PSoC4/BLE_eventHandler.c ****                     case CYBLE_UUID_LINK_LOSS_SERVICE:
1822:.\Generated_Source\PSoC4/BLE_eventHandler.c ****                         CyBle_LlscDiscoverCharacteristicsEventHandler(&discCharInfo);
1823:.\Generated_Source\PSoC4/BLE_eventHandler.c ****                         break;
1824:.\Generated_Source\PSoC4/BLE_eventHandler.c ****                 #endif /* CYBLE_LLS_CLIENT */
1825:.\Generated_Source\PSoC4/BLE_eventHandler.c ****                 
1826:.\Generated_Source\PSoC4/BLE_eventHandler.c ****                 #ifdef CYBLE_LNS_CLIENT
1827:.\Generated_Source\PSoC4/BLE_eventHandler.c ****                     case CYBLE_UUID_LOCATION_AND_NAVIGATION_SERVICE:
1828:.\Generated_Source\PSoC4/BLE_eventHandler.c ****                         CyBle_LnscDiscoverCharacteristicsEventHandler(&discCharInfo);
1829:.\Generated_Source\PSoC4/BLE_eventHandler.c ****                         break;
1830:.\Generated_Source\PSoC4/BLE_eventHandler.c ****                 #endif /* CYBLE_LNS_CLIENT */
1831:.\Generated_Source\PSoC4/BLE_eventHandler.c ****                 
1832:.\Generated_Source\PSoC4/BLE_eventHandler.c ****                 #ifdef CYBLE_PASS_CLIENT
1833:.\Generated_Source\PSoC4/BLE_eventHandler.c ****                     case CYBLE_UUID_PHONE_ALERT_STATUS_SERVICE:
1834:.\Generated_Source\PSoC4/BLE_eventHandler.c ****                         CyBle_PasscDiscoverCharacteristicsEventHandler(&discCharInfo);
1835:.\Generated_Source\PSoC4/BLE_eventHandler.c ****                         break;
1836:.\Generated_Source\PSoC4/BLE_eventHandler.c ****                 #endif /* CYBLE_PASS_CLIENT */
1837:.\Generated_Source\PSoC4/BLE_eventHandler.c **** 
1838:.\Generated_Source\PSoC4/BLE_eventHandler.c ****                 #ifdef CYBLE_NDCS_CLIENT
1839:.\Generated_Source\PSoC4/BLE_eventHandler.c ****                     case CYBLE_UUID_NEXT_DST_CHANGE_SERVICE:
1840:.\Generated_Source\PSoC4/BLE_eventHandler.c ****                         CyBle_NdcscDiscoverCharacteristicsEventHandler(&discCharInfo);
1841:.\Generated_Source\PSoC4/BLE_eventHandler.c ****                         break;
1842:.\Generated_Source\PSoC4/BLE_eventHandler.c ****                 #endif /* CYBLE_NDCS_CLIENT */
1843:.\Generated_Source\PSoC4/BLE_eventHandler.c ****                 
1844:.\Generated_Source\PSoC4/BLE_eventHandler.c ****                 #ifdef CYBLE_RSCS_CLIENT
1845:.\Generated_Source\PSoC4/BLE_eventHandler.c ****                     case CYBLE_UUID_RUNNING_SPEED_AND_CADENCE_SERVICE:
1846:.\Generated_Source\PSoC4/BLE_eventHandler.c ****                         CyBle_RscscDiscoverCharacteristicsEventHandler(&discCharInfo);
1847:.\Generated_Source\PSoC4/BLE_eventHandler.c ****                         break;
1848:.\Generated_Source\PSoC4/BLE_eventHandler.c ****                 #endif /* CYBLE_RSCS_CLIENT */
1849:.\Generated_Source\PSoC4/BLE_eventHandler.c **** 
1850:.\Generated_Source\PSoC4/BLE_eventHandler.c ****                 #ifdef CYBLE_RTUS_CLIENT
1851:.\Generated_Source\PSoC4/BLE_eventHandler.c ****                     case CYBLE_UUID_REF_TIME_UPDATE_SERVICE:
1852:.\Generated_Source\PSoC4/BLE_eventHandler.c ****                         CyBle_RtuscDiscoverCharacteristicsEventHandler(&discCharInfo);
1853:.\Generated_Source\PSoC4/BLE_eventHandler.c ****                         break;
1854:.\Generated_Source\PSoC4/BLE_eventHandler.c ****                 #endif /* CYBLE_RTUS_CLIENT */
1855:.\Generated_Source\PSoC4/BLE_eventHandler.c ****                 
1856:.\Generated_Source\PSoC4/BLE_eventHandler.c ****                 #ifdef CYBLE_SCPS_CLIENT
1857:.\Generated_Source\PSoC4/BLE_eventHandler.c ****                     case CYBLE_UUID_SCAN_PARAM_SERVICE:
1858:.\Generated_Source\PSoC4/BLE_eventHandler.c ****                         CyBle_ScpscDiscoverCharacteristicsEventHandler(&discCharInfo);
1859:.\Generated_Source\PSoC4/BLE_eventHandler.c ****                         break;
1860:.\Generated_Source\PSoC4/BLE_eventHandler.c ****                 #endif /* CYBLE_SCPS_CLIENT */
1861:.\Generated_Source\PSoC4/BLE_eventHandler.c ****                 
1862:.\Generated_Source\PSoC4/BLE_eventHandler.c ****                 #ifdef CYBLE_TPS_CLIENT
1863:.\Generated_Source\PSoC4/BLE_eventHandler.c ****                     case CYBLE_UUID_TX_POWER_SERVICE:
1864:.\Generated_Source\PSoC4/BLE_eventHandler.c ****                         CyBle_TpscDiscoverCharacteristicsEventHandler(&discCharInfo);
1865:.\Generated_Source\PSoC4/BLE_eventHandler.c ****                         break;
1866:.\Generated_Source\PSoC4/BLE_eventHandler.c ****                 #endif /* CYBLE_TPS_CLIENT */
1867:.\Generated_Source\PSoC4/BLE_eventHandler.c ****                 
1868:.\Generated_Source\PSoC4/BLE_eventHandler.c ****                 #ifdef CYBLE_UDS_CLIENT
1869:.\Generated_Source\PSoC4/BLE_eventHandler.c ****                     case CYBLE_UUID_USER_DATA_SERVICE:
1870:.\Generated_Source\PSoC4/BLE_eventHandler.c ****                         CyBle_UdscDiscoverCharacteristicsEventHandler(&discCharInfo);
ARM GAS  C:\Users\Zachary\AppData\Local\Temp\ccmvMQUz.s 			page 67


1871:.\Generated_Source\PSoC4/BLE_eventHandler.c ****                         break;
1872:.\Generated_Source\PSoC4/BLE_eventHandler.c ****                 #endif /* CYBLE_UDS_CLIENT */
1873:.\Generated_Source\PSoC4/BLE_eventHandler.c **** 
1874:.\Generated_Source\PSoC4/BLE_eventHandler.c ****                     default:
1875:.\Generated_Source\PSoC4/BLE_eventHandler.c ****                         break;
 1867              		.loc 1 1875 0
 1868 0108 11E0     		b	.L127
 1869              	.L126:
1735:.\Generated_Source\PSoC4/BLE_eventHandler.c ****                         CyBle_GapcDiscoverCharacteristicsEventHandler(&discCharInfo);
 1870              		.loc 1 1735 0
 1871 010a 3B1C     		mov	r3, r7
 1872 010c 2433     		add	r3, r3, #36
 1873 010e 181C     		mov	r0, r3
 1874 0110 FFF7FEFF 		bl	CyBle_GapcDiscoverCharacteristicsEventHandler
1736:.\Generated_Source\PSoC4/BLE_eventHandler.c ****                         break;
 1875              		.loc 1 1736 0
 1876 0114 0BE0     		b	.L127
 1877              	.L124:
1739:.\Generated_Source\PSoC4/BLE_eventHandler.c ****                         CyBle_GattcDiscoverCharacteristicsEventHandler(&discCharInfo);
 1878              		.loc 1 1739 0
 1879 0116 3B1C     		mov	r3, r7
 1880 0118 2433     		add	r3, r3, #36
 1881 011a 181C     		mov	r0, r3
 1882 011c FFF7FEFF 		bl	CyBle_GattcDiscoverCharacteristicsEventHandler
1740:.\Generated_Source\PSoC4/BLE_eventHandler.c ****                         break;
 1883              		.loc 1 1740 0
 1884 0120 05E0     		b	.L127
 1885              	.L125:
1816:.\Generated_Source\PSoC4/BLE_eventHandler.c ****                         CyBle_IascDiscoverCharacteristicsEventHandler(&discCharInfo);
 1886              		.loc 1 1816 0
 1887 0122 3B1C     		mov	r3, r7
 1888 0124 2433     		add	r3, r3, #36
 1889 0126 181C     		mov	r0, r3
 1890 0128 FFF7FEFF 		bl	CyBle_IascDiscoverCharacteristicsEventHandler
1817:.\Generated_Source\PSoC4/BLE_eventHandler.c ****                         break;
 1891              		.loc 1 1817 0
 1892 012c C046     		mov	r8, r8
 1893              	.L127:
 1894              	.L122:
1876:.\Generated_Source\PSoC4/BLE_eventHandler.c ****                     }
1877:.\Generated_Source\PSoC4/BLE_eventHandler.c ****                 }
1878:.\Generated_Source\PSoC4/BLE_eventHandler.c ****                 else
1879:.\Generated_Source\PSoC4/BLE_eventHandler.c ****                 {
1880:.\Generated_Source\PSoC4/BLE_eventHandler.c ****                     /* Unsupported data length value */
1881:.\Generated_Source\PSoC4/BLE_eventHandler.c ****                 }
1882:.\Generated_Source\PSoC4/BLE_eventHandler.c **** 
1883:.\Generated_Source\PSoC4/BLE_eventHandler.c ****                 /* The sub-procedure is complete when an Error Response is received and the
1884:.\Generated_Source\PSoC4/BLE_eventHandler.c ****                    Error Code is set to an Attribute Not Found or the Read By Type Response has an
1885:.\Generated_Source\PSoC4/BLE_eventHandler.c ****                    Attribute Handle that is equal to the Ending Handle of the request. */
1886:.\Generated_Source\PSoC4/BLE_eventHandler.c ****                 if(discCharInfo.valueHandle == cyBle_serverInfo[cyBle_disCount].range.endHandle)
 1895              		.loc 1 1886 0
 1896 012e 3B1C     		mov	r3, r7
 1897 0130 2433     		add	r3, r3, #36
 1898 0132 9988     		ldrh	r1, [r3, #4]
 1899 0134 854B     		ldr	r3, .L165+8
 1900 0136 1B78     		ldrb	r3, [r3]
 1901 0138 1A1C     		mov	r2, r3
ARM GAS  C:\Users\Zachary\AppData\Local\Temp\ccmvMQUz.s 			page 68


 1902 013a 8548     		ldr	r0, .L165+12
 1903 013c 131C     		mov	r3, r2
 1904 013e 5B00     		lsl	r3, r3, #1
 1905 0140 9B18     		add	r3, r3, r2
 1906 0142 5B00     		lsl	r3, r3, #1
 1907 0144 C318     		add	r3, r0, r3
 1908 0146 5B88     		ldrh	r3, [r3, #2]
 1909 0148 9942     		cmp	r1, r3
 1910 014a 43D1     		bne	.L128
1887:.\Generated_Source\PSoC4/BLE_eventHandler.c ****                 {
1888:.\Generated_Source\PSoC4/BLE_eventHandler.c ****                     cyBle_disCount++;
 1911              		.loc 1 1888 0
 1912 014c 7F4B     		ldr	r3, .L165+8
 1913 014e 1B78     		ldrb	r3, [r3]
 1914 0150 0133     		add	r3, r3, #1
 1915 0152 DAB2     		uxtb	r2, r3
 1916 0154 7D4B     		ldr	r3, .L165+8
 1917 0156 1A70     		strb	r2, [r3]
1889:.\Generated_Source\PSoC4/BLE_eventHandler.c **** 
1890:.\Generated_Source\PSoC4/BLE_eventHandler.c ****                     switch(CyBle_NextCharDiscovery())
 1918              		.loc 1 1890 0
 1919 0158 FFF7FEFF 		bl	CyBle_NextCharDiscovery
 1920 015c 031C     		mov	r3, r0
 1921 015e 002B     		cmp	r3, #0
 1922 0160 37D0     		beq	.L160
 1923 0162 0222     		mov	r2, #2
 1924 0164 FF32     		add	r2, r2, #255
 1925 0166 9342     		cmp	r3, r2
 1926 0168 2BD1     		bne	.L156
1891:.\Generated_Source\PSoC4/BLE_eventHandler.c ****                     {
1892:.\Generated_Source\PSoC4/BLE_eventHandler.c ****                         case CYBLE_ERROR_OK:
1893:.\Generated_Source\PSoC4/BLE_eventHandler.c ****                             break;
1894:.\Generated_Source\PSoC4/BLE_eventHandler.c **** 
1895:.\Generated_Source\PSoC4/BLE_eventHandler.c ****                         case CYBLE_CHAR_DISC_DONE:
1896:.\Generated_Source\PSoC4/BLE_eventHandler.c ****                         #if(CYBLE_STACK_MODE_DEBUG)
1897:.\Generated_Source\PSoC4/BLE_eventHandler.c ****                             CyBle_ApplCallback(CYBLE_EVT_GATTC_CHAR_DISCOVERY_COMPLETE, NULL);
1898:.\Generated_Source\PSoC4/BLE_eventHandler.c ****                         #endif /* CYBLE_STACK_MODE_DEBUG */
1899:.\Generated_Source\PSoC4/BLE_eventHandler.c ****                             CyBle_SetClientState(CYBLE_CLIENT_STATE_DESCR_DISCOVERING);
 1927              		.loc 1 1899 0
 1928 016a 774B     		ldr	r3, .L165+4
 1929 016c 0422     		mov	r2, #4
 1930 016e 1A70     		strb	r2, [r3]
1900:.\Generated_Source\PSoC4/BLE_eventHandler.c ****                             cyBle_disCount = 0u;
 1931              		.loc 1 1900 0
 1932 0170 764B     		ldr	r3, .L165+8
 1933 0172 0022     		mov	r2, #0
 1934 0174 1A70     		strb	r2, [r3]
1901:.\Generated_Source\PSoC4/BLE_eventHandler.c ****                             switch(CyBle_NextCharDscrDiscovery())
 1935              		.loc 1 1901 0
 1936 0176 FFF7FEFF 		bl	CyBle_NextCharDscrDiscovery
 1937 017a 031C     		mov	r3, r0
 1938 017c 002B     		cmp	r3, #0
 1939 017e 1ED0     		beq	.L161
 1940 0180 8122     		mov	r2, #129
 1941 0182 5200     		lsl	r2, r2, #1
 1942 0184 9342     		cmp	r3, r2
 1943 0186 12D1     		bne	.L157
ARM GAS  C:\Users\Zachary\AppData\Local\Temp\ccmvMQUz.s 			page 69


1902:.\Generated_Source\PSoC4/BLE_eventHandler.c ****                             {
1903:.\Generated_Source\PSoC4/BLE_eventHandler.c ****                             case CYBLE_ERROR_OK:
