ARM GAS  C:\Users\Zachary\AppData\Local\Temp\ccYsBqzb.s 			page 1


   1              		.cpu cortex-m0
   2              		.fpu softvfp
   3              		.eabi_attribute 20, 1
   4              		.eabi_attribute 21, 1
   5              		.eabi_attribute 23, 3
   6              		.eabi_attribute 24, 1
   7              		.eabi_attribute 25, 1
   8              		.eabi_attribute 26, 1
   9              		.eabi_attribute 30, 6
  10              		.eabi_attribute 34, 0
  11              		.eabi_attribute 18, 4
  12              		.code	16
  13              		.file	"BLE_ias.c"
  14              		.text
  15              	.Ltext0:
  16              		.cfi_sections	.debug_frame
  17              		.comm	cyBle_iasc,4,4
  18              		.section	.text.CyBle_IasInit,"ax",%progbits
  19              		.align	2
  20              		.global	CyBle_IasInit
  21              		.code	16
  22              		.thumb_func
  23              		.type	CyBle_IasInit, %function
  24              	CyBle_IasInit:
  25              	.LFB2:
  26              		.file 1 ".\\Generated_Source\\PSoC4\\BLE_ias.c"
   1:.\Generated_Source\PSoC4/BLE_ias.c **** /*******************************************************************************
   2:.\Generated_Source\PSoC4/BLE_ias.c **** File Name: CYBLE_ias.c
   3:.\Generated_Source\PSoC4/BLE_ias.c **** Version 1.20
   4:.\Generated_Source\PSoC4/BLE_ias.c **** 
   5:.\Generated_Source\PSoC4/BLE_ias.c **** Description:
   6:.\Generated_Source\PSoC4/BLE_ias.c ****  This file contains the source code for the Immediate Alert Service of the BLE
   7:.\Generated_Source\PSoC4/BLE_ias.c ****  Component.
   8:.\Generated_Source\PSoC4/BLE_ias.c **** 
   9:.\Generated_Source\PSoC4/BLE_ias.c **** ********************************************************************************
  10:.\Generated_Source\PSoC4/BLE_ias.c **** Copyright 2014-2015, Cypress Semiconductor Corporation.  All rights reserved.
  11:.\Generated_Source\PSoC4/BLE_ias.c **** You may use this file only in accordance with the license, terms, conditions,
  12:.\Generated_Source\PSoC4/BLE_ias.c **** disclaimers, and limitations in the end user license agreement accompanying
  13:.\Generated_Source\PSoC4/BLE_ias.c **** the software package with which this file was provided.
  14:.\Generated_Source\PSoC4/BLE_ias.c **** *******************************************************************************/
  15:.\Generated_Source\PSoC4/BLE_ias.c **** 
  16:.\Generated_Source\PSoC4/BLE_ias.c **** 
  17:.\Generated_Source\PSoC4/BLE_ias.c **** #include "BLE_eventHandler.h"
  18:.\Generated_Source\PSoC4/BLE_ias.c **** 
  19:.\Generated_Source\PSoC4/BLE_ias.c **** 
  20:.\Generated_Source\PSoC4/BLE_ias.c **** #ifdef CYBLE_IAS_SERVER
  21:.\Generated_Source\PSoC4/BLE_ias.c **** 
  22:.\Generated_Source\PSoC4/BLE_ias.c **** static CYBLE_CALLBACK_T CyBle_IasApplCallback = NULL;
  23:.\Generated_Source\PSoC4/BLE_ias.c **** 
  24:.\Generated_Source\PSoC4/BLE_ias.c **** #endif /* CYBLE_IAS_SERVER */
  25:.\Generated_Source\PSoC4/BLE_ias.c **** 
  26:.\Generated_Source\PSoC4/BLE_ias.c **** #ifdef CYBLE_IAS_SERVER
  27:.\Generated_Source\PSoC4/BLE_ias.c **** 
  28:.\Generated_Source\PSoC4/BLE_ias.c **** 
  29:.\Generated_Source\PSoC4/BLE_ias.c **** 
  30:.\Generated_Source\PSoC4/BLE_ias.c **** #endif /* (CYBLE_IAS_SERVER) */
  31:.\Generated_Source\PSoC4/BLE_ias.c **** 
ARM GAS  C:\Users\Zachary\AppData\Local\Temp\ccYsBqzb.s 			page 2


  32:.\Generated_Source\PSoC4/BLE_ias.c **** #ifdef CYBLE_IAS_CLIENT
  33:.\Generated_Source\PSoC4/BLE_ias.c **** 
  34:.\Generated_Source\PSoC4/BLE_ias.c **** CYBLE_IASC_T cyBle_iasc;
  35:.\Generated_Source\PSoC4/BLE_ias.c **** 
  36:.\Generated_Source\PSoC4/BLE_ias.c **** #endif /* (CYBLE_IAS_CLIENT) */
  37:.\Generated_Source\PSoC4/BLE_ias.c **** 
  38:.\Generated_Source\PSoC4/BLE_ias.c **** 
  39:.\Generated_Source\PSoC4/BLE_ias.c **** /****************************************************************************** 
  40:.\Generated_Source\PSoC4/BLE_ias.c **** ##Function Name: CyBle_IasInit
  41:.\Generated_Source\PSoC4/BLE_ias.c **** *******************************************************************************
  42:.\Generated_Source\PSoC4/BLE_ias.c **** 
  43:.\Generated_Source\PSoC4/BLE_ias.c **** Summary:
  44:.\Generated_Source\PSoC4/BLE_ias.c ****  This function initializes the Immediate Alert Service.
  45:.\Generated_Source\PSoC4/BLE_ias.c **** 
  46:.\Generated_Source\PSoC4/BLE_ias.c **** Parameters:
  47:.\Generated_Source\PSoC4/BLE_ias.c ****  None
  48:.\Generated_Source\PSoC4/BLE_ias.c **** 
  49:.\Generated_Source\PSoC4/BLE_ias.c **** Return:
  50:.\Generated_Source\PSoC4/BLE_ias.c ****  None
  51:.\Generated_Source\PSoC4/BLE_ias.c **** 
  52:.\Generated_Source\PSoC4/BLE_ias.c **** ******************************************************************************/
  53:.\Generated_Source\PSoC4/BLE_ias.c **** void CyBle_IasInit(void)
  54:.\Generated_Source\PSoC4/BLE_ias.c **** {
  27              		.loc 1 54 0
  28              		.cfi_startproc
  29 0000 80B5     		push	{r7, lr}
  30              		.cfi_def_cfa_offset 8
  31              		.cfi_offset 7, -8
  32              		.cfi_offset 14, -4
  33 0002 00AF     		add	r7, sp, #0
  34              		.cfi_def_cfa_register 7
  55:.\Generated_Source\PSoC4/BLE_ias.c **** #ifdef CYBLE_IAS_CLIENT
  56:.\Generated_Source\PSoC4/BLE_ias.c **** 
  57:.\Generated_Source\PSoC4/BLE_ias.c ****     cyBle_iasc.alertLevelChar.valueHandle = CYBLE_GATT_INVALID_ATTR_HANDLE_VALUE;
  35              		.loc 1 57 0
  36 0004 024B     		ldr	r3, .L2
  37 0006 0022     		mov	r2, #0
  38 0008 5A80     		strh	r2, [r3, #2]
  58:.\Generated_Source\PSoC4/BLE_ias.c **** 
  59:.\Generated_Source\PSoC4/BLE_ias.c **** #endif /* (CYBLE_IAS_CLIENT) */
  60:.\Generated_Source\PSoC4/BLE_ias.c **** }
  39              		.loc 1 60 0
  40 000a BD46     		mov	sp, r7
  41              		@ sp needed
  42 000c 80BD     		pop	{r7, pc}
  43              	.L3:
  44 000e C046     		.align	2
  45              	.L2:
  46 0010 00000000 		.word	cyBle_iasc
  47              		.cfi_endproc
  48              	.LFE2:
  49              		.size	CyBle_IasInit, .-CyBle_IasInit
  50              		.section	.text.CyBle_IascDiscoverCharacteristicsEventHandler,"ax",%progbits
  51              		.align	2
  52              		.global	CyBle_IascDiscoverCharacteristicsEventHandler
  53              		.code	16
  54              		.thumb_func
ARM GAS  C:\Users\Zachary\AppData\Local\Temp\ccYsBqzb.s 			page 3


  55              		.type	CyBle_IascDiscoverCharacteristicsEventHandler, %function
  56              	CyBle_IascDiscoverCharacteristicsEventHandler:
  57              	.LFB3:
  61:.\Generated_Source\PSoC4/BLE_ias.c **** 
  62:.\Generated_Source\PSoC4/BLE_ias.c **** 
  63:.\Generated_Source\PSoC4/BLE_ias.c **** #ifdef CYBLE_IAS_SERVER
  64:.\Generated_Source\PSoC4/BLE_ias.c **** 
  65:.\Generated_Source\PSoC4/BLE_ias.c **** /****************************************************************************** 
  66:.\Generated_Source\PSoC4/BLE_ias.c **** ##Function Name: CyBle_IasRegisterAttrCallback
  67:.\Generated_Source\PSoC4/BLE_ias.c **** *******************************************************************************
  68:.\Generated_Source\PSoC4/BLE_ias.c **** 
  69:.\Generated_Source\PSoC4/BLE_ias.c **** Summary:
  70:.\Generated_Source\PSoC4/BLE_ias.c ****  Registers callback function for service specific attribute operations.
  71:.\Generated_Source\PSoC4/BLE_ias.c **** 
  72:.\Generated_Source\PSoC4/BLE_ias.c **** Parameters:
  73:.\Generated_Source\PSoC4/BLE_ias.c ****  callbackFunc: An application layer event callback function to receive 
  74:.\Generated_Source\PSoC4/BLE_ias.c ****                     events from the BLE Component. The definition of 
  75:.\Generated_Source\PSoC4/BLE_ias.c ****                     CYBLE_CALLBACK_T for IAS Service is,
  76:.\Generated_Source\PSoC4/BLE_ias.c ****             
  77:.\Generated_Source\PSoC4/BLE_ias.c ****                     typedef void (* CYBLE_CALLBACK_T) (uint32 eventCode, 
  78:.\Generated_Source\PSoC4/BLE_ias.c ****                                                        void *eventParam)
  79:.\Generated_Source\PSoC4/BLE_ias.c **** 
  80:.\Generated_Source\PSoC4/BLE_ias.c ****                     * eventCode indicates the event that triggered this 
  81:.\Generated_Source\PSoC4/BLE_ias.c ****                       callback (e.g. CYBLE_EVT_IASS_NOTIFICATION_ENABLED).
  82:.\Generated_Source\PSoC4/BLE_ias.c ****                     * eventParam contains the parameters corresponding to the 
  83:.\Generated_Source\PSoC4/BLE_ias.c ****                       current event. (e.g. pointer to CYBLE_IAS_CHAR_VALUE_T
  84:.\Generated_Source\PSoC4/BLE_ias.c ****                       structure that contains details of the characteristic 
  85:.\Generated_Source\PSoC4/BLE_ias.c ****                       for which notification enabled event was triggered).
  86:.\Generated_Source\PSoC4/BLE_ias.c **** Return:
  87:.\Generated_Source\PSoC4/BLE_ias.c ****  None
  88:.\Generated_Source\PSoC4/BLE_ias.c **** 
  89:.\Generated_Source\PSoC4/BLE_ias.c **** Side Effects:
  90:.\Generated_Source\PSoC4/BLE_ias.c ****  The *eventParams in the callback function should not be used by the
  91:.\Generated_Source\PSoC4/BLE_ias.c ****  application once the callback function execution is finished. Otherwise 
  92:.\Generated_Source\PSoC4/BLE_ias.c ****  this data may become corrupted.
  93:.\Generated_Source\PSoC4/BLE_ias.c **** Note:
  94:.\Generated_Source\PSoC4/BLE_ias.c ****  IAS only has events for the GATT server. There are no events for the GATT 
  95:.\Generated_Source\PSoC4/BLE_ias.c ****  client since the client sends data without waiting for response. Therefore 
  96:.\Generated_Source\PSoC4/BLE_ias.c ****  there is no need to register a callback through CyBle_IasRegisterAttrCallback
  97:.\Generated_Source\PSoC4/BLE_ias.c ****  for an IAS GATT client.
  98:.\Generated_Source\PSoC4/BLE_ias.c **** 
  99:.\Generated_Source\PSoC4/BLE_ias.c **** ******************************************************************************/
 100:.\Generated_Source\PSoC4/BLE_ias.c **** void CyBle_IasRegisterAttrCallback(CYBLE_CALLBACK_T callbackFunc)
 101:.\Generated_Source\PSoC4/BLE_ias.c **** {
 102:.\Generated_Source\PSoC4/BLE_ias.c ****     CyBle_IasApplCallback = callbackFunc;
 103:.\Generated_Source\PSoC4/BLE_ias.c **** }
 104:.\Generated_Source\PSoC4/BLE_ias.c **** 
 105:.\Generated_Source\PSoC4/BLE_ias.c **** 
 106:.\Generated_Source\PSoC4/BLE_ias.c **** /****************************************************************************** 
 107:.\Generated_Source\PSoC4/BLE_ias.c **** ##Function Name: CyBle_IassDisconnectEventHandler
 108:.\Generated_Source\PSoC4/BLE_ias.c **** *******************************************************************************
 109:.\Generated_Source\PSoC4/BLE_ias.c **** 
 110:.\Generated_Source\PSoC4/BLE_ias.c **** Summary:
 111:.\Generated_Source\PSoC4/BLE_ias.c ****  Handles the Disconnection Indication Event for the Immediate Alert service.
 112:.\Generated_Source\PSoC4/BLE_ias.c **** 
 113:.\Generated_Source\PSoC4/BLE_ias.c **** Parameters:
 114:.\Generated_Source\PSoC4/BLE_ias.c ****  None
ARM GAS  C:\Users\Zachary\AppData\Local\Temp\ccYsBqzb.s 			page 4


 115:.\Generated_Source\PSoC4/BLE_ias.c **** 
 116:.\Generated_Source\PSoC4/BLE_ias.c **** Return:
 117:.\Generated_Source\PSoC4/BLE_ias.c ****  None
 118:.\Generated_Source\PSoC4/BLE_ias.c **** 
 119:.\Generated_Source\PSoC4/BLE_ias.c **** ******************************************************************************/
 120:.\Generated_Source\PSoC4/BLE_ias.c **** void CyBle_IassDisconnectEventHandler(void)
 121:.\Generated_Source\PSoC4/BLE_ias.c **** {
 122:.\Generated_Source\PSoC4/BLE_ias.c ****     uint8 tmpAlertLevel = CYBLE_NO_ALERT;
 123:.\Generated_Source\PSoC4/BLE_ias.c ****     CYBLE_GATT_HANDLE_VALUE_PAIR_T handleVal;
 124:.\Generated_Source\PSoC4/BLE_ias.c ****     
 125:.\Generated_Source\PSoC4/BLE_ias.c ****     handleVal.attrHandle = cyBle_iass.alertLevelCharHandle;
 126:.\Generated_Source\PSoC4/BLE_ias.c ****     handleVal.value.val = &tmpAlertLevel;
 127:.\Generated_Source\PSoC4/BLE_ias.c ****     handleVal.value.len = CYBLE_IAS_ALERT_LEVEL_SIZE;
 128:.\Generated_Source\PSoC4/BLE_ias.c ****     
 129:.\Generated_Source\PSoC4/BLE_ias.c ****     /* Set alert level to "No Alert" per IAS spec */
 130:.\Generated_Source\PSoC4/BLE_ias.c ****     (void) CyBle_GattsWriteAttributeValue(&handleVal, 0u, NULL, CYBLE_GATT_DB_LOCALLY_INITIATED);
 131:.\Generated_Source\PSoC4/BLE_ias.c **** }
 132:.\Generated_Source\PSoC4/BLE_ias.c **** 
 133:.\Generated_Source\PSoC4/BLE_ias.c **** 
 134:.\Generated_Source\PSoC4/BLE_ias.c **** /****************************************************************************** 
 135:.\Generated_Source\PSoC4/BLE_ias.c **** ##Function Name: CyBle_IassWriteCmdEventHandler
 136:.\Generated_Source\PSoC4/BLE_ias.c **** *******************************************************************************
 137:.\Generated_Source\PSoC4/BLE_ias.c **** 
 138:.\Generated_Source\PSoC4/BLE_ias.c **** Summary:
 139:.\Generated_Source\PSoC4/BLE_ias.c ****  Handles the Write Without Response Request Event for the Immediate Alert 
 140:.\Generated_Source\PSoC4/BLE_ias.c ****  Service.
 141:.\Generated_Source\PSoC4/BLE_ias.c **** 
 142:.\Generated_Source\PSoC4/BLE_ias.c **** Parameters:
 143:.\Generated_Source\PSoC4/BLE_ias.c ****  CYBLE_GATTS_WRITE_CMD_REQ_PARAM_T * eventParam: The pointer to a data structure
 144:.\Generated_Source\PSoC4/BLE_ias.c ****                                                    specified by the event.
 145:.\Generated_Source\PSoC4/BLE_ias.c **** 
 146:.\Generated_Source\PSoC4/BLE_ias.c **** Return:
 147:.\Generated_Source\PSoC4/BLE_ias.c ****  None
 148:.\Generated_Source\PSoC4/BLE_ias.c **** 
 149:.\Generated_Source\PSoC4/BLE_ias.c **** ******************************************************************************/
 150:.\Generated_Source\PSoC4/BLE_ias.c **** void CyBle_IassWriteCmdEventHandler(CYBLE_GATTS_WRITE_CMD_REQ_PARAM_T *eventParam)
 151:.\Generated_Source\PSoC4/BLE_ias.c **** {
 152:.\Generated_Source\PSoC4/BLE_ias.c ****     CYBLE_IAS_CHAR_VALUE_T wrCmdParam;
 153:.\Generated_Source\PSoC4/BLE_ias.c ****     
 154:.\Generated_Source\PSoC4/BLE_ias.c ****     if(NULL != CyBle_IasApplCallback)
 155:.\Generated_Source\PSoC4/BLE_ias.c ****     {
 156:.\Generated_Source\PSoC4/BLE_ias.c ****         /* Check if attribute handle is handle of Alert Level characteristic of
 157:.\Generated_Source\PSoC4/BLE_ias.c ****            Immediate Alert service. */
 158:.\Generated_Source\PSoC4/BLE_ias.c ****         if((cyBle_iass.alertLevelCharHandle == eventParam->handleValPair.attrHandle) &&
 159:.\Generated_Source\PSoC4/BLE_ias.c ****             (CYBLE_IAS_ALERT_LEVEL_SIZE == eventParam->handleValPair.value.len) &&
 160:.\Generated_Source\PSoC4/BLE_ias.c ****                 (CYBLE_HIGH_ALERT >= eventParam->handleValPair.value.val[0u]))
 161:.\Generated_Source\PSoC4/BLE_ias.c ****         {   
 162:.\Generated_Source\PSoC4/BLE_ias.c ****             /* Input parameters validation passed, so save Alert Level */
 163:.\Generated_Source\PSoC4/BLE_ias.c ****             if(CYBLE_GATT_ERR_NONE ==
 164:.\Generated_Source\PSoC4/BLE_ias.c ****                 CyBle_GattsWriteAttributeValue(&eventParam->handleValPair, 
 165:.\Generated_Source\PSoC4/BLE_ias.c ****                                                0u, 
 166:.\Generated_Source\PSoC4/BLE_ias.c ****                                                &eventParam->connHandle,
 167:.\Generated_Source\PSoC4/BLE_ias.c ****                                                CYBLE_GATT_DB_PEER_INITIATED))
 168:.\Generated_Source\PSoC4/BLE_ias.c ****             {
 169:.\Generated_Source\PSoC4/BLE_ias.c ****                 wrCmdParam.connHandle = eventParam->connHandle;
 170:.\Generated_Source\PSoC4/BLE_ias.c ****                 wrCmdParam.charIndex = CYBLE_IAS_ALERT_LEVEL;
 171:.\Generated_Source\PSoC4/BLE_ias.c ****                 wrCmdParam.value = &eventParam->handleValPair.value;
ARM GAS  C:\Users\Zachary\AppData\Local\Temp\ccYsBqzb.s 			page 5


 172:.\Generated_Source\PSoC4/BLE_ias.c ****                 
 173:.\Generated_Source\PSoC4/BLE_ias.c ****                 /* Send callback to user if no error occurred while writing Alert Level */
 174:.\Generated_Source\PSoC4/BLE_ias.c ****                 CyBle_IasApplCallback((uint32) CYBLE_EVT_IASS_WRITE_CHAR_CMD, (void *) &wrCmdParam)
 175:.\Generated_Source\PSoC4/BLE_ias.c ****                 cyBle_eventHandlerFlag &= (uint8) (~CYBLE_CALLBACK);
 176:.\Generated_Source\PSoC4/BLE_ias.c ****             }
 177:.\Generated_Source\PSoC4/BLE_ias.c ****         }
 178:.\Generated_Source\PSoC4/BLE_ias.c ****         /* As this handler handles Write Without Response request the error response
 179:.\Generated_Source\PSoC4/BLE_ias.c ****           can't be sent for the Client. The erroneous value will be with
 180:.\Generated_Source\PSoC4/BLE_ias.c ****           CYBLE_EVT_GATTS_WRITE_CMD_REQ event. User will decide how to handle it. */
 181:.\Generated_Source\PSoC4/BLE_ias.c ****     }
 182:.\Generated_Source\PSoC4/BLE_ias.c **** }
 183:.\Generated_Source\PSoC4/BLE_ias.c **** 
 184:.\Generated_Source\PSoC4/BLE_ias.c **** 
 185:.\Generated_Source\PSoC4/BLE_ias.c **** /****************************************************************************** 
 186:.\Generated_Source\PSoC4/BLE_ias.c **** ##Function Name: CyBle_IassGetCharacteristicValue
 187:.\Generated_Source\PSoC4/BLE_ias.c **** *******************************************************************************
 188:.\Generated_Source\PSoC4/BLE_ias.c **** 
 189:.\Generated_Source\PSoC4/BLE_ias.c **** Summary:
 190:.\Generated_Source\PSoC4/BLE_ias.c ****  Gets the Alert Level characteristic value of the service, which is identified
 191:.\Generated_Source\PSoC4/BLE_ias.c ****  by charIndex.
 192:.\Generated_Source\PSoC4/BLE_ias.c **** 
 193:.\Generated_Source\PSoC4/BLE_ias.c **** Parameters:
 194:.\Generated_Source\PSoC4/BLE_ias.c ****  charIndex: The index of the Alert Level characteristic.
 195:.\Generated_Source\PSoC4/BLE_ias.c ****  attrSize: The size of the Alert Level characteristic value attribute.
 196:.\Generated_Source\PSoC4/BLE_ias.c ****  *attrValue: The pointer to the location where the Alert Level characteristic
 197:.\Generated_Source\PSoC4/BLE_ias.c ****               value data should b stored.
 198:.\Generated_Source\PSoC4/BLE_ias.c **** 
 199:.\Generated_Source\PSoC4/BLE_ias.c **** Return:
 200:.\Generated_Source\PSoC4/BLE_ias.c ****  Return value is of type CYBLE_API_RESULT_T.
 201:.\Generated_Source\PSoC4/BLE_ias.c ****   * CYBLE_ERROR_OK - The characteristic value was read successfully
 202:.\Generated_Source\PSoC4/BLE_ias.c ****   * CYBLE_ERROR_INVALID_PARAMETER - Validation of the input parameters failed
 203:.\Generated_Source\PSoC4/BLE_ias.c **** 
 204:.\Generated_Source\PSoC4/BLE_ias.c **** ******************************************************************************/
 205:.\Generated_Source\PSoC4/BLE_ias.c **** CYBLE_API_RESULT_T CyBle_IassGetCharacteristicValue(CYBLE_IAS_CHAR_INDEX_T charIndex, uint8 attrSiz
 206:.\Generated_Source\PSoC4/BLE_ias.c **** {
 207:.\Generated_Source\PSoC4/BLE_ias.c ****     CYBLE_GATT_HANDLE_VALUE_PAIR_T iasHandleValuePair;
 208:.\Generated_Source\PSoC4/BLE_ias.c ****     CYBLE_API_RESULT_T apiResult = CYBLE_ERROR_INVALID_PARAMETER;
 209:.\Generated_Source\PSoC4/BLE_ias.c **** 
 210:.\Generated_Source\PSoC4/BLE_ias.c ****     if((NULL != attrValue) && (CYBLE_IAS_ALERT_LEVEL == charIndex) && (CYBLE_IAS_ALERT_LEVEL_SIZE =
 211:.\Generated_Source\PSoC4/BLE_ias.c ****     {
 212:.\Generated_Source\PSoC4/BLE_ias.c ****         iasHandleValuePair.attrHandle = cyBle_iass.alertLevelCharHandle;
 213:.\Generated_Source\PSoC4/BLE_ias.c ****         iasHandleValuePair.value.len = attrSize;
 214:.\Generated_Source\PSoC4/BLE_ias.c ****         iasHandleValuePair.value.val = attrValue;
 215:.\Generated_Source\PSoC4/BLE_ias.c ****         
 216:.\Generated_Source\PSoC4/BLE_ias.c ****         /* Get Alert Level characteristic value from GATT database */
 217:.\Generated_Source\PSoC4/BLE_ias.c ****         if(CYBLE_GATT_ERR_NONE == 
 218:.\Generated_Source\PSoC4/BLE_ias.c ****             CyBle_GattsReadAttributeValue(&iasHandleValuePair, NULL, CYBLE_GATT_DB_LOCALLY_INITIATE
 219:.\Generated_Source\PSoC4/BLE_ias.c ****         {
 220:.\Generated_Source\PSoC4/BLE_ias.c ****             /* Indicate success */
 221:.\Generated_Source\PSoC4/BLE_ias.c ****             apiResult = CYBLE_ERROR_OK;
 222:.\Generated_Source\PSoC4/BLE_ias.c ****         }
 223:.\Generated_Source\PSoC4/BLE_ias.c ****     }
 224:.\Generated_Source\PSoC4/BLE_ias.c **** 
 225:.\Generated_Source\PSoC4/BLE_ias.c ****     /* Return status */
 226:.\Generated_Source\PSoC4/BLE_ias.c ****     return(apiResult);
 227:.\Generated_Source\PSoC4/BLE_ias.c **** }
 228:.\Generated_Source\PSoC4/BLE_ias.c **** 
ARM GAS  C:\Users\Zachary\AppData\Local\Temp\ccYsBqzb.s 			page 6


 229:.\Generated_Source\PSoC4/BLE_ias.c **** #endif /* (CYBLE_IAS_SERVER) */
 230:.\Generated_Source\PSoC4/BLE_ias.c **** 
 231:.\Generated_Source\PSoC4/BLE_ias.c **** 
 232:.\Generated_Source\PSoC4/BLE_ias.c **** #ifdef CYBLE_IAS_CLIENT
 233:.\Generated_Source\PSoC4/BLE_ias.c **** 
 234:.\Generated_Source\PSoC4/BLE_ias.c **** /****************************************************************************** 
 235:.\Generated_Source\PSoC4/BLE_ias.c **** ##Function Name: CyBle_IascDiscoverCharacteristicsEventHandler
 236:.\Generated_Source\PSoC4/BLE_ias.c **** *******************************************************************************
 237:.\Generated_Source\PSoC4/BLE_ias.c **** 
 238:.\Generated_Source\PSoC4/BLE_ias.c **** Summary:
 239:.\Generated_Source\PSoC4/BLE_ias.c ****  This function is called on receiving a CYBLE_EVT_GATTC_READ_BY_TYPE_RSP event.
 240:.\Generated_Source\PSoC4/BLE_ias.c ****  Based on the service UUID, an appropriate data structure is populated using 
 241:.\Generated_Source\PSoC4/BLE_ias.c ****  the data received as part of the callback.
 242:.\Generated_Source\PSoC4/BLE_ias.c **** 
 243:.\Generated_Source\PSoC4/BLE_ias.c **** Parameters:
 244:.\Generated_Source\PSoC4/BLE_ias.c ****  CYBLE_DISC_CHAR_INFO_T * discCharInfo: The pointer to a characteristic 
 245:.\Generated_Source\PSoC4/BLE_ias.c ****                                          information structure.
 246:.\Generated_Source\PSoC4/BLE_ias.c **** 
 247:.\Generated_Source\PSoC4/BLE_ias.c **** Return:
 248:.\Generated_Source\PSoC4/BLE_ias.c ****  None
 249:.\Generated_Source\PSoC4/BLE_ias.c **** 
 250:.\Generated_Source\PSoC4/BLE_ias.c **** ******************************************************************************/
 251:.\Generated_Source\PSoC4/BLE_ias.c **** void CyBle_IascDiscoverCharacteristicsEventHandler(CYBLE_DISC_CHAR_INFO_T *discCharInfo)
 252:.\Generated_Source\PSoC4/BLE_ias.c **** {
  58              		.loc 1 252 0
  59              		.cfi_startproc
  60 0000 80B5     		push	{r7, lr}
  61              		.cfi_def_cfa_offset 8
  62              		.cfi_offset 7, -8
  63              		.cfi_offset 14, -4
  64 0002 82B0     		sub	sp, sp, #8
  65              		.cfi_def_cfa_offset 16
  66 0004 00AF     		add	r7, sp, #0
  67              		.cfi_def_cfa_register 7
  68 0006 7860     		str	r0, [r7, #4]
 253:.\Generated_Source\PSoC4/BLE_ias.c ****     if(discCharInfo->uuid.uuid16 == CYBLE_UUID_CHAR_ALERT_LEVEL)
  69              		.loc 1 253 0
  70 0008 7B68     		ldr	r3, [r7, #4]
  71 000a DA88     		ldrh	r2, [r3, #6]
  72 000c 0F4B     		ldr	r3, .L7
  73 000e 9A42     		cmp	r2, r3
  74 0010 19D1     		bne	.L4
 254:.\Generated_Source\PSoC4/BLE_ias.c ****     {
 255:.\Generated_Source\PSoC4/BLE_ias.c ****         /* Check for invalid char handle */
 256:.\Generated_Source\PSoC4/BLE_ias.c ****         if(cyBle_iasc.alertLevelChar.valueHandle == CYBLE_GATT_INVALID_ATTR_HANDLE_VALUE)
  75              		.loc 1 256 0
  76 0012 0F4B     		ldr	r3, .L7+4
  77 0014 5B88     		ldrh	r3, [r3, #2]
  78 0016 002B     		cmp	r3, #0
  79 0018 15D1     		bne	.L4
 257:.\Generated_Source\PSoC4/BLE_ias.c ****         {
 258:.\Generated_Source\PSoC4/BLE_ias.c ****             /* Save Alert Level Characteristic handle */
 259:.\Generated_Source\PSoC4/BLE_ias.c ****             CyBle_CheckStoreCharHandle(cyBle_iasc.alertLevelChar);
  80              		.loc 1 259 0
  81 001a 0D4B     		ldr	r3, .L7+4
  82 001c 5B88     		ldrh	r3, [r3, #2]
  83 001e 002B     		cmp	r3, #0
ARM GAS  C:\Users\Zachary\AppData\Local\Temp\ccYsBqzb.s 			page 7


  84 0020 08D1     		bne	.L6
  85              		.loc 1 259 0 is_stmt 0 discriminator 1
  86 0022 7B68     		ldr	r3, [r7, #4]
  87 0024 9A88     		ldrh	r2, [r3, #4]
  88 0026 0A4B     		ldr	r3, .L7+4
  89 0028 5A80     		strh	r2, [r3, #2]
  90 002a 7B68     		ldr	r3, [r7, #4]
  91 002c 9A78     		ldrb	r2, [r3, #2]
  92 002e 084B     		ldr	r3, .L7+4
  93 0030 1A70     		strb	r2, [r3]
  94 0032 08E0     		b	.L4
  95              	.L6:
  96              		.loc 1 259 0 discriminator 2
  97 0034 074B     		ldr	r3, .L7+8
  98 0036 1B68     		ldr	r3, [r3]
  99 0038 7A68     		ldr	r2, [r7, #4]
 100 003a 0632     		add	r2, r2, #6
 101 003c 8621     		mov	r1, #134
 102 003e 4900     		lsl	r1, r1, #1
 103 0040 081C     		mov	r0, r1
 104 0042 111C     		mov	r1, r2
 105 0044 9847     		blx	r3
 106              	.L4:
 260:.\Generated_Source\PSoC4/BLE_ias.c ****         }
 261:.\Generated_Source\PSoC4/BLE_ias.c ****     }
 262:.\Generated_Source\PSoC4/BLE_ias.c **** }
 107              		.loc 1 262 0 is_stmt 1
 108 0046 BD46     		mov	sp, r7
 109 0048 02B0     		add	sp, sp, #8
 110              		@ sp needed
 111 004a 80BD     		pop	{r7, pc}
 112              	.L8:
 113              		.align	2
 114              	.L7:
 115 004c 062A0000 		.word	10758
 116 0050 00000000 		.word	cyBle_iasc
 117 0054 00000000 		.word	CyBle_ApplCallback
 118              		.cfi_endproc
 119              	.LFE3:
 120              		.size	CyBle_IascDiscoverCharacteristicsEventHandler, .-CyBle_IascDiscoverCharacteristicsEventHandl
 121              		.section	.text.CyBle_IascSetCharacteristicValue,"ax",%progbits
 122              		.align	2
 123              		.global	CyBle_IascSetCharacteristicValue
 124              		.code	16
 125              		.thumb_func
 126              		.type	CyBle_IascSetCharacteristicValue, %function
 127              	CyBle_IascSetCharacteristicValue:
 128              	.LFB4:
 263:.\Generated_Source\PSoC4/BLE_ias.c **** 
 264:.\Generated_Source\PSoC4/BLE_ias.c **** 
 265:.\Generated_Source\PSoC4/BLE_ias.c **** /****************************************************************************** 
 266:.\Generated_Source\PSoC4/BLE_ias.c **** ##Function Name: CyBle_IascSetCharacteristicValue
 267:.\Generated_Source\PSoC4/BLE_ias.c **** *******************************************************************************
 268:.\Generated_Source\PSoC4/BLE_ias.c **** 
 269:.\Generated_Source\PSoC4/BLE_ias.c **** Summary:
 270:.\Generated_Source\PSoC4/BLE_ias.c ****  Sets a Alert Level characteristic value of the service, which is identified
 271:.\Generated_Source\PSoC4/BLE_ias.c ****  by charIndex.
ARM GAS  C:\Users\Zachary\AppData\Local\Temp\ccYsBqzb.s 			page 8


 272:.\Generated_Source\PSoC4/BLE_ias.c **** 
 273:.\Generated_Source\PSoC4/BLE_ias.c **** Parameters:
 274:.\Generated_Source\PSoC4/BLE_ias.c ****  connHandle: The connection handle.
 275:.\Generated_Source\PSoC4/BLE_ias.c ****  charIndex: The index of the Alert Level service characteristic.
 276:.\Generated_Source\PSoC4/BLE_ias.c ****  attrSize: The size of the Alert Level characteristic value attribute.
 277:.\Generated_Source\PSoC4/BLE_ias.c ****  *attrValue: The pointer to the Alert Level characteristic value data that
 278:.\Generated_Source\PSoC4/BLE_ias.c ****               should be sent to the server device.
 279:.\Generated_Source\PSoC4/BLE_ias.c **** 
 280:.\Generated_Source\PSoC4/BLE_ias.c **** Return:
 281:.\Generated_Source\PSoC4/BLE_ias.c ****  Return value is of type CYBLE_API_RESULT_T.
 282:.\Generated_Source\PSoC4/BLE_ias.c ****   * CYBLE_ERROR_OK - The request was sent successfully
 283:.\Generated_Source\PSoC4/BLE_ias.c ****   * CYBLE_ERROR_INVALID_PARAMETER - Validation of the input parameters failed
 284:.\Generated_Source\PSoC4/BLE_ias.c ****   * CYBLE_ERROR_MEMORY_ALLOCATION_FAILED - Memory allocation failed
 285:.\Generated_Source\PSoC4/BLE_ias.c ****   * CYBLE_ERROR_INVALID_STATE - Connection with the server is not established
 286:.\Generated_Source\PSoC4/BLE_ias.c ****   * CYBLE_ERROR_INVALID_OPERATION - Operation is invalid for this
 287:.\Generated_Source\PSoC4/BLE_ias.c ****                                     characteristic
 288:.\Generated_Source\PSoC4/BLE_ias.c **** 
 289:.\Generated_Source\PSoC4/BLE_ias.c **** ******************************************************************************/
 290:.\Generated_Source\PSoC4/BLE_ias.c **** CYBLE_API_RESULT_T CyBle_IascSetCharacteristicValue(CYBLE_CONN_HANDLE_T connHandle,
 291:.\Generated_Source\PSoC4/BLE_ias.c ****                                                     CYBLE_IAS_CHAR_INDEX_T charIndex,
 292:.\Generated_Source\PSoC4/BLE_ias.c ****                                                     uint8 attrSize,
 293:.\Generated_Source\PSoC4/BLE_ias.c ****                                                     uint8 *attrValue)
 294:.\Generated_Source\PSoC4/BLE_ias.c **** {
 129              		.loc 1 294 0
 130              		.cfi_startproc
 131 0000 90B5     		push	{r4, r7, lr}
 132              		.cfi_def_cfa_offset 12
 133              		.cfi_offset 4, -12
 134              		.cfi_offset 7, -8
 135              		.cfi_offset 14, -4
 136 0002 89B0     		sub	sp, sp, #36
 137              		.cfi_def_cfa_offset 48
 138 0004 00AF     		add	r7, sp, #0
 139              		.cfi_def_cfa_register 7
 140 0006 3C1C     		mov	r4, r7
 141 0008 0C34     		add	r4, r4, #12
 142 000a 2080     		strh	r0, [r4]
 143 000c 7B60     		str	r3, [r7, #4]
 144 000e 3B1C     		mov	r3, r7
 145 0010 0B33     		add	r3, r3, #11
 146 0012 1970     		strb	r1, [r3]
 147 0014 3B1C     		mov	r3, r7
 148 0016 0A33     		add	r3, r3, #10
 149 0018 1A70     		strb	r2, [r3]
 295:.\Generated_Source\PSoC4/BLE_ias.c ****     CYBLE_GATTC_WRITE_CMD_REQ_T wrCmdReq;
 296:.\Generated_Source\PSoC4/BLE_ias.c ****     CYBLE_API_RESULT_T apiResult = CYBLE_ERROR_INVALID_PARAMETER;
 150              		.loc 1 296 0
 151 001a 3B1C     		mov	r3, r7
 152 001c 1E33     		add	r3, r3, #30
 153 001e 0122     		mov	r2, #1
 154 0020 1A80     		strh	r2, [r3]
 297:.\Generated_Source\PSoC4/BLE_ias.c **** 
 298:.\Generated_Source\PSoC4/BLE_ias.c ****     if(CYBLE_CLIENT_STATE_DISCOVERED != CyBle_GetClientState())
 155              		.loc 1 298 0
 156 0022 214B     		ldr	r3, .L13
 157 0024 1B78     		ldrb	r3, [r3]
 158 0026 052B     		cmp	r3, #5
ARM GAS  C:\Users\Zachary\AppData\Local\Temp\ccYsBqzb.s 			page 9


 159 0028 05D0     		beq	.L10
 299:.\Generated_Source\PSoC4/BLE_ias.c ****     {
 300:.\Generated_Source\PSoC4/BLE_ias.c ****         apiResult = CYBLE_ERROR_INVALID_STATE;
 160              		.loc 1 300 0
 161 002a 3B1C     		mov	r3, r7
 162 002c 1E33     		add	r3, r3, #30
 163 002e 8322     		mov	r2, #131
 164 0030 5200     		lsl	r2, r2, #1
 165 0032 1A80     		strh	r2, [r3]
 166 0034 30E0     		b	.L11
 167              	.L10:
 301:.\Generated_Source\PSoC4/BLE_ias.c ****     }
 302:.\Generated_Source\PSoC4/BLE_ias.c ****     else if((NULL != attrValue) && (CYBLE_IAS_ALERT_LEVEL == charIndex) && (CYBLE_IAS_ALERT_LEVEL_S
 168              		.loc 1 302 0
 169 0036 7B68     		ldr	r3, [r7, #4]
 170 0038 002B     		cmp	r3, #0
 171 003a 2DD0     		beq	.L11
 172              		.loc 1 302 0 is_stmt 0 discriminator 1
 173 003c 3B1C     		mov	r3, r7
 174 003e 0B33     		add	r3, r3, #11
 175 0040 1B78     		ldrb	r3, [r3]
 176 0042 002B     		cmp	r3, #0
 177 0044 28D1     		bne	.L11
 178 0046 3B1C     		mov	r3, r7
 179 0048 0A33     		add	r3, r3, #10
 180 004a 1B78     		ldrb	r3, [r3]
 181 004c 012B     		cmp	r3, #1
 182 004e 23D1     		bne	.L11
 303:.\Generated_Source\PSoC4/BLE_ias.c ****             (*attrValue <= CYBLE_HIGH_ALERT) &&
 183              		.loc 1 303 0 is_stmt 1 discriminator 1
 184 0050 7B68     		ldr	r3, [r7, #4]
 185 0052 1B78     		ldrb	r3, [r3]
 302:.\Generated_Source\PSoC4/BLE_ias.c ****     else if((NULL != attrValue) && (CYBLE_IAS_ALERT_LEVEL == charIndex) && (CYBLE_IAS_ALERT_LEVEL_S
 186              		.loc 1 302 0 discriminator 1
 187 0054 022B     		cmp	r3, #2
 188 0056 1FD8     		bhi	.L11
 304:.\Generated_Source\PSoC4/BLE_ias.c ****             (CYBLE_GATT_INVALID_ATTR_HANDLE_VALUE != cyBle_iasc.alertLevelChar.valueHandle))
 189              		.loc 1 304 0
 190 0058 144B     		ldr	r3, .L13+4
 191 005a 5B88     		ldrh	r3, [r3, #2]
 303:.\Generated_Source\PSoC4/BLE_ias.c ****             (*attrValue <= CYBLE_HIGH_ALERT) &&
 192              		.loc 1 303 0
 193 005c 002B     		cmp	r3, #0
 194 005e 1BD0     		beq	.L11
 305:.\Generated_Source\PSoC4/BLE_ias.c ****     {
 306:.\Generated_Source\PSoC4/BLE_ias.c ****         /* Fill all fields of write command request structure ... */
 307:.\Generated_Source\PSoC4/BLE_ias.c ****         wrCmdReq.value.val = attrValue;
 195              		.loc 1 307 0
 196 0060 3B1C     		mov	r3, r7
 197 0062 1033     		add	r3, r3, #16
 198 0064 7A68     		ldr	r2, [r7, #4]
 199 0066 1A60     		str	r2, [r3]
 308:.\Generated_Source\PSoC4/BLE_ias.c ****         wrCmdReq.value.len = attrSize;
 200              		.loc 1 308 0
 201 0068 3B1C     		mov	r3, r7
 202 006a 0A33     		add	r3, r3, #10
 203 006c 1B78     		ldrb	r3, [r3]
ARM GAS  C:\Users\Zachary\AppData\Local\Temp\ccYsBqzb.s 			page 10


 204 006e 9AB2     		uxth	r2, r3
 205 0070 3B1C     		mov	r3, r7
 206 0072 1033     		add	r3, r3, #16
 207 0074 9A80     		strh	r2, [r3, #4]
 309:.\Generated_Source\PSoC4/BLE_ias.c ****         wrCmdReq.attrHandle = cyBle_iasc.alertLevelChar.valueHandle;
 208              		.loc 1 309 0
 209 0076 0D4B     		ldr	r3, .L13+4
 210 0078 5A88     		ldrh	r2, [r3, #2]
 211 007a 3B1C     		mov	r3, r7
 212 007c 1033     		add	r3, r3, #16
 213 007e 1A81     		strh	r2, [r3, #8]
 310:.\Generated_Source\PSoC4/BLE_ias.c **** 
 311:.\Generated_Source\PSoC4/BLE_ias.c ****         /* Send request to write Alert Level characteristic value */
 312:.\Generated_Source\PSoC4/BLE_ias.c ****         apiResult = CyBle_GattcWriteWithoutResponse(connHandle, &wrCmdReq);
 214              		.loc 1 312 0
 215 0080 3C1C     		mov	r4, r7
 216 0082 1E34     		add	r4, r4, #30
 217 0084 3B1C     		mov	r3, r7
 218 0086 0C33     		add	r3, r3, #12
 219 0088 3A1C     		mov	r2, r7
 220 008a 1032     		add	r2, r2, #16
 221 008c 1868     		ldr	r0, [r3]
 222 008e 111C     		mov	r1, r2
 223 0090 FFF7FEFF 		bl	CyBle_GattcWriteWithoutResponse
 224 0094 031C     		mov	r3, r0
 225 0096 2380     		strh	r3, [r4]
 226              	.L11:
 313:.\Generated_Source\PSoC4/BLE_ias.c ****     }
 314:.\Generated_Source\PSoC4/BLE_ias.c ****     else
 315:.\Generated_Source\PSoC4/BLE_ias.c ****     {
 316:.\Generated_Source\PSoC4/BLE_ias.c ****         /* apiResult equals CYBLE_ERROR_INVALID_PARAMETER */
 317:.\Generated_Source\PSoC4/BLE_ias.c ****     }
 318:.\Generated_Source\PSoC4/BLE_ias.c **** 
 319:.\Generated_Source\PSoC4/BLE_ias.c ****     /* Return status */
 320:.\Generated_Source\PSoC4/BLE_ias.c ****     return(apiResult);
 227              		.loc 1 320 0
 228 0098 3B1C     		mov	r3, r7
 229 009a 1E33     		add	r3, r3, #30
 230 009c 1B88     		ldrh	r3, [r3]
 321:.\Generated_Source\PSoC4/BLE_ias.c **** }
 231              		.loc 1 321 0
 232 009e 181C     		mov	r0, r3
 233 00a0 BD46     		mov	sp, r7
 234 00a2 09B0     		add	sp, sp, #36
 235              		@ sp needed
 236 00a4 90BD     		pop	{r4, r7, pc}
 237              	.L14:
 238 00a6 C046     		.align	2
 239              	.L13:
 240 00a8 00000000 		.word	cyBle_clientState
 241 00ac 00000000 		.word	cyBle_iasc
 242              		.cfi_endproc
 243              	.LFE4:
 244              		.size	CyBle_IascSetCharacteristicValue, .-CyBle_IascSetCharacteristicValue
 245              		.text
 246              	.Letext0:
 247              		.file 2 ".\\Generated_Source\\PSoC4\\cytypes.h"
ARM GAS  C:\Users\Zachary\AppData\Local\Temp\ccYsBqzb.s 			page 11


 248              		.file 3 ".\\Generated_Source\\PSoC4\\BLE_Stack.h"
 249              		.file 4 ".\\Generated_Source\\PSoC4\\BLE_StackGatt.h"
 250              		.file 5 ".\\Generated_Source\\PSoC4\\BLE_StackGattClient.h"
 251              		.file 6 ".\\Generated_Source\\PSoC4\\BLE.h"
 252              		.file 7 ".\\Generated_Source\\PSoC4\\BLE_gatt.h"
 253              		.file 8 ".\\Generated_Source\\PSoC4\\BLE_ias.h"
 254              		.file 9 ".\\Generated_Source\\PSoC4\\BLE_eventHandler.h"