ARM GAS  C:\Users\Zachary\AppData\Local\Temp\ccOeLwol.s 			page 1


   1              		.cpu cortex-m0
   2              		.fpu softvfp
   3              		.eabi_attribute 20, 1
   4              		.eabi_attribute 21, 1
   5              		.eabi_attribute 23, 3
   6              		.eabi_attribute 24, 1
   7              		.eabi_attribute 25, 1
   8              		.eabi_attribute 26, 1
   9              		.eabi_attribute 30, 6
  10              		.eabi_attribute 34, 0
  11              		.eabi_attribute 18, 4
  12              		.code	16
  13              		.file	"BLEApplications.c"
  14              		.text
  15              	.Ltext0:
  16              		.cfi_sections	.debug_frame
  17              		.global	iasLevel
  18              		.bss
  19              		.type	iasLevel, %object
  20              		.size	iasLevel, 1
  21              	iasLevel:
  22 0000 00       		.space	1
  23              		.global	__aeabi_idivmod
  24              		.section	.text.CheckButtonStatus,"ax",%progbits
  25              		.align	2
  26              		.global	CheckButtonStatus
  27              		.code	16
  28              		.thumb_func
  29              		.type	CheckButtonStatus, %function
  30              	CheckButtonStatus:
  31              	.LFB35:
  32              		.file 1 ".\\BLEApplications.c"
   1:.\BLEApplications.c **** /******************************************************************************
   2:.\BLEApplications.c **** * Project Name		: PSoC_4_BLE_Central_IAS
   3:.\BLEApplications.c **** * File Name			: BLEApplications.c
   4:.\BLEApplications.c **** * Version 			: 1.0
   5:.\BLEApplications.c **** * Device Used		: CY8C4247LQI-BL483
   6:.\BLEApplications.c **** * Software Used		: PSoC Creator 3.1
   7:.\BLEApplications.c **** * Compiler    		: ARM GCC 4.8.4, ARM RVDS Generic, ARM MDK Generic
   8:.\BLEApplications.c **** * Related Hardware	: CY8CKIT-042-BLE Bluetooth Low Energy Pioneer Kit 
   9:.\BLEApplications.c **** * Owner				: ROIT
  10:.\BLEApplications.c **** *
  11:.\BLEApplications.c **** ********************************************************************************
  12:.\BLEApplications.c **** * Copyright (2014-15), Cypress Semiconductor Corporation. All Rights Reserved.
  13:.\BLEApplications.c **** ********************************************************************************
  14:.\BLEApplications.c **** * This software is owned by Cypress Semiconductor Corporation (Cypress)
  15:.\BLEApplications.c **** * and is protected by and subject to worldwide patent protection (United
  16:.\BLEApplications.c **** * States and foreign), United States copyright laws and international treaty
  17:.\BLEApplications.c **** * provisions. Cypress hereby grants to licensee a personal, non-exclusive,
  18:.\BLEApplications.c **** * non-transferable license to copy, use, modify, create derivative works of,
  19:.\BLEApplications.c **** * and compile the Cypress Source Code and derivative works for the sole
  20:.\BLEApplications.c **** * purpose of creating custom software in support of licensee product to be
  21:.\BLEApplications.c **** * used only in conjunction with a Cypress integrated circuit as specified in
  22:.\BLEApplications.c **** * the applicable agreement. Any reproduction, modification, translation,
  23:.\BLEApplications.c **** * compilation, or representation of this software except as specified above 
  24:.\BLEApplications.c **** * is prohibited without the express written permission of Cypress.
  25:.\BLEApplications.c **** *
ARM GAS  C:\Users\Zachary\AppData\Local\Temp\ccOeLwol.s 			page 2


  26:.\BLEApplications.c **** * Disclaimer: CYPRESS MAKES NO WARRANTY OF ANY KIND, EXPRESS OR IMPLIED, WITH 
  27:.\BLEApplications.c **** * REGARD TO THIS MATERIAL, INCLUDING, BUT NOT LIMITED TO, THE IMPLIED 
  28:.\BLEApplications.c **** * WARRANTIES OF MERCHANTABILITY AND FITNESS FOR A PARTICULAR PURPOSE.
  29:.\BLEApplications.c **** * Cypress reserves the right to make changes without further notice to the 
  30:.\BLEApplications.c **** * materials described herein. Cypress does not assume any liability arising out 
  31:.\BLEApplications.c **** * of the application or use of any product or circuit described herein. Cypress 
  32:.\BLEApplications.c **** * does not authorize its products for use as critical components in life-support 
  33:.\BLEApplications.c **** * systems where a malfunction or failure may reasonably be expected to result in 
  34:.\BLEApplications.c **** * significant injury to the user. The inclusion of Cypress' product in a life-
  35:.\BLEApplications.c **** * support systems application implies that the manufacturer assumes all risk of 
  36:.\BLEApplications.c **** * such use and in doing so indemnifies Cypress against all charges. 
  37:.\BLEApplications.c **** *
  38:.\BLEApplications.c **** * Use of this Software may be limited by and subject to the applicable Cypress
  39:.\BLEApplications.c **** * software license agreement. 
  40:.\BLEApplications.c **** *******************************************************************************/
  41:.\BLEApplications.c **** #include <main.h>
  42:.\BLEApplications.c **** /* 'connHandle' contains the connection handle parameter and used for BLE API to
  43:.\BLEApplications.c **** * send data to particular connected device */
  44:.\BLEApplications.c **** extern CYBLE_CONN_HANDLE_T			connHandle;
  45:.\BLEApplications.c **** 
  46:.\BLEApplications.c **** /* 'ble_state' contains the present status of BLE, used for LED state update */
  47:.\BLEApplications.c **** extern uint8 ble_state;
  48:.\BLEApplications.c **** 
  49:.\BLEApplications.c **** /* 'iasLevel' contains the alert level that is sent to the connected peripheral 
  50:.\BLEApplications.c **** * device */
  51:.\BLEApplications.c **** uint8 iasLevel = FALSE;
  52:.\BLEApplications.c **** 
  53:.\BLEApplications.c **** /*******************************************************************************
  54:.\BLEApplications.c **** * Function Name: CheckButtonStatus
  55:.\BLEApplications.c **** ********************************************************************************
  56:.\BLEApplications.c **** * Summary:
  57:.\BLEApplications.c **** *        This function checks the press of the User button on BLE Pioneer Kit, 
  58:.\BLEApplications.c **** * applies proper debounce and then initiates sending of the Alert notification.
  59:.\BLEApplications.c **** *
  60:.\BLEApplications.c **** * Parameters:
  61:.\BLEApplications.c **** *  void
  62:.\BLEApplications.c **** *
  63:.\BLEApplications.c **** * Return:
  64:.\BLEApplications.c **** *  void
  65:.\BLEApplications.c **** *
  66:.\BLEApplications.c **** *******************************************************************************/
  67:.\BLEApplications.c **** void CheckButtonStatus(void)
  68:.\BLEApplications.c **** {
  33              		.loc 1 68 0
  34              		.cfi_startproc
  35 0000 80B5     		push	{r7, lr}
  36              		.cfi_def_cfa_offset 8
  37              		.cfi_offset 7, -8
  38              		.cfi_offset 14, -4
  39 0002 00AF     		add	r7, sp, #0
  40              		.cfi_def_cfa_register 7
  69:.\BLEApplications.c **** 	static uint8 switchDebounceTimer;
  70:.\BLEApplications.c **** 	
  71:.\BLEApplications.c **** 	static uint8 buttonStatus = FALSE;
  72:.\BLEApplications.c **** 	
  73:.\BLEApplications.c **** 	if(User_Button_Read() == FALSE)
  41              		.loc 1 73 0
ARM GAS  C:\Users\Zachary\AppData\Local\Temp\ccOeLwol.s 			page 3


  42 0004 FFF7FEFF 		bl	User_Button_Read
  43 0008 031C     		mov	r3, r0
  44 000a 002B     		cmp	r3, #0
  45 000c 29D1     		bne	.L2
  74:.\BLEApplications.c ****     {
  75:.\BLEApplications.c ****         /* Register the button press for the first time and check if button debouncing is completed
  76:.\BLEApplications.c ****         if(!(buttonStatus & (USER_BUTTON_PUSHED_MASK | USER_BUTTON_DETECTED_MASK)))
  46              		.loc 1 76 0
  47 000e 324B     		ldr	r3, .L8
  48 0010 1B78     		ldrb	r3, [r3]
  49 0012 1A1C     		mov	r2, r3
  50 0014 0323     		mov	r3, #3
  51 0016 1340     		and	r3, r2
  52 0018 0AD1     		bne	.L3
  77:.\BLEApplications.c ****         {
  78:.\BLEApplications.c ****            
  79:.\BLEApplications.c ****             /* If button press not registered, register the User button press event*/
  80:.\BLEApplications.c ****             buttonStatus = buttonStatus | USER_BUTTON_PUSHED_MASK;
  53              		.loc 1 80 0
  54 001a 2F4B     		ldr	r3, .L8
  55 001c 1B78     		ldrb	r3, [r3]
  56 001e 0122     		mov	r2, #1
  57 0020 1343     		orr	r3, r2
  58 0022 DAB2     		uxtb	r2, r3
  59 0024 2C4B     		ldr	r3, .L8
  60 0026 1A70     		strb	r2, [r3]
  81:.\BLEApplications.c ****             
  82:.\BLEApplications.c ****             /* Initiate a debounce counter */
  83:.\BLEApplications.c ****             switchDebounceTimer = SWITCH_DEBOUNCE_DELAY;
  61              		.loc 1 83 0
  62 0028 2C4B     		ldr	r3, .L8+4
  63 002a 0422     		mov	r2, #4
  64 002c 1A70     		strb	r2, [r3]
  65 002e 46E0     		b	.L5
  66              	.L3:
  84:.\BLEApplications.c ****         }
  85:.\BLEApplications.c ****         else if( (buttonStatus & USER_BUTTON_PUSHED_MASK) && (switchDebounceTimer == 0) )
  67              		.loc 1 85 0
  68 0030 294B     		ldr	r3, .L8
  69 0032 1B78     		ldrb	r3, [r3]
  70 0034 1A1C     		mov	r2, r3
  71 0036 0123     		mov	r3, #1
  72 0038 1340     		and	r3, r2
  73 003a 40D0     		beq	.L5
  74              		.loc 1 85 0 is_stmt 0 discriminator 1
  75 003c 274B     		ldr	r3, .L8+4
  76 003e 1B78     		ldrb	r3, [r3]
  77 0040 002B     		cmp	r3, #0
  78 0042 3CD1     		bne	.L5
  86:.\BLEApplications.c ****         {
  87:.\BLEApplications.c ****             /* If debounce counter has elapsed, then register a button press detect event */
  88:.\BLEApplications.c ****             buttonStatus = buttonStatus & (~USER_BUTTON_PUSHED_MASK);
  79              		.loc 1 88 0 is_stmt 1
  80 0044 244B     		ldr	r3, .L8
  81 0046 1B78     		ldrb	r3, [r3]
  82 0048 0122     		mov	r2, #1
  83 004a 9343     		bic	r3, r2
ARM GAS  C:\Users\Zachary\AppData\Local\Temp\ccOeLwol.s 			page 4


  84 004c DAB2     		uxtb	r2, r3
  85 004e 224B     		ldr	r3, .L8
  86 0050 1A70     		strb	r2, [r3]
  89:.\BLEApplications.c ****             buttonStatus = buttonStatus | USER_BUTTON_DETECTED_MASK;
  87              		.loc 1 89 0
  88 0052 214B     		ldr	r3, .L8
  89 0054 1B78     		ldrb	r3, [r3]
  90 0056 0222     		mov	r2, #2
  91 0058 1343     		orr	r3, r2
  92 005a DAB2     		uxtb	r2, r3
  93 005c 1E4B     		ldr	r3, .L8
  94 005e 1A70     		strb	r2, [r3]
  95 0060 2DE0     		b	.L5
  96              	.L2:
  90:.\BLEApplications.c ****         }
  91:.\BLEApplications.c ****     }
  92:.\BLEApplications.c ****     else
  93:.\BLEApplications.c ****     {
  94:.\BLEApplications.c ****         if((buttonStatus & USER_BUTTON_DETECTED_MASK))
  97              		.loc 1 94 0
  98 0062 1D4B     		ldr	r3, .L8
  99 0064 1B78     		ldrb	r3, [r3]
 100 0066 1A1C     		mov	r2, r3
 101 0068 0223     		mov	r3, #2
 102 006a 1340     		and	r3, r2
 103 006c 16D0     		beq	.L6
  95:.\BLEApplications.c ****         {
  96:.\BLEApplications.c ****             /* Increment the Alert level, which will then be sent to peripheral. Limit the value ti
  97:.\BLEApplications.c **** 			iasLevel = (iasLevel+1)%3;
 104              		.loc 1 97 0
 105 006e 1C4B     		ldr	r3, .L8+8
 106 0070 1B78     		ldrb	r3, [r3]
 107 0072 0133     		add	r3, r3, #1
 108 0074 181C     		mov	r0, r3
 109 0076 0321     		mov	r1, #3
 110 0078 FFF7FEFF 		bl	__aeabi_idivmod
 111 007c 0B1C     		mov	r3, r1
 112 007e DAB2     		uxtb	r2, r3
 113 0080 174B     		ldr	r3, .L8+8
 114 0082 1A70     		strb	r2, [r3]
  98:.\BLEApplications.c ****             
  99:.\BLEApplications.c **** 			/* Send the updated Alert level to Peripheral over Immediate Alert Service*/
 100:.\BLEApplications.c **** 			SetAlertLevel(&iasLevel);
 115              		.loc 1 100 0
 116 0084 164B     		ldr	r3, .L8+8
 117 0086 181C     		mov	r0, r3
 118 0088 FFF7FEFF 		bl	SetAlertLevel
 101:.\BLEApplications.c **** 			
 102:.\BLEApplications.c ****             buttonStatus = buttonStatus & ( ~(USER_BUTTON_DETECTED_MASK) );
 119              		.loc 1 102 0
 120 008c 124B     		ldr	r3, .L8
 121 008e 1B78     		ldrb	r3, [r3]
 122 0090 0222     		mov	r2, #2
 123 0092 9343     		bic	r3, r2
 124 0094 DAB2     		uxtb	r2, r3
 125 0096 104B     		ldr	r3, .L8
 126 0098 1A70     		strb	r2, [r3]
ARM GAS  C:\Users\Zachary\AppData\Local\Temp\ccOeLwol.s 			page 5


 127 009a 10E0     		b	.L5
 128              	.L6:
 103:.\BLEApplications.c ****         }
 104:.\BLEApplications.c ****         /* If button press is not detected and the switch debounce timer has expired, clear the but
 105:.\BLEApplications.c ****          * in the ButtonStatus register */
 106:.\BLEApplications.c ****         else if((buttonStatus & USER_BUTTON_PUSHED_MASK) && switchDebounceTimer == 0)
 129              		.loc 1 106 0
 130 009c 0E4B     		ldr	r3, .L8
 131 009e 1B78     		ldrb	r3, [r3]
 132 00a0 1A1C     		mov	r2, r3
 133 00a2 0123     		mov	r3, #1
 134 00a4 1340     		and	r3, r2
 135 00a6 0AD0     		beq	.L5
 136              		.loc 1 106 0 is_stmt 0 discriminator 1
 137 00a8 0C4B     		ldr	r3, .L8+4
 138 00aa 1B78     		ldrb	r3, [r3]
 139 00ac 002B     		cmp	r3, #0
 140 00ae 06D1     		bne	.L5
 107:.\BLEApplications.c ****         {
 108:.\BLEApplications.c ****              buttonStatus = buttonStatus & (~USER_BUTTON_PUSHED_MASK);
 141              		.loc 1 108 0 is_stmt 1
 142 00b0 094B     		ldr	r3, .L8
 143 00b2 1B78     		ldrb	r3, [r3]
 144 00b4 0122     		mov	r2, #1
 145 00b6 9343     		bic	r3, r2
 146 00b8 DAB2     		uxtb	r2, r3
 147 00ba 074B     		ldr	r3, .L8
 148 00bc 1A70     		strb	r2, [r3]
 149              	.L5:
 109:.\BLEApplications.c ****         }
 110:.\BLEApplications.c ****     }
 111:.\BLEApplications.c **** 	
 112:.\BLEApplications.c **** 	if(switchDebounceTimer)
 150              		.loc 1 112 0
 151 00be 074B     		ldr	r3, .L8+4
 152 00c0 1B78     		ldrb	r3, [r3]
 153 00c2 002B     		cmp	r3, #0
 154 00c4 05D0     		beq	.L1
 113:.\BLEApplications.c **** 	{
 114:.\BLEApplications.c **** 		switchDebounceTimer--;	
 155              		.loc 1 114 0
 156 00c6 054B     		ldr	r3, .L8+4
 157 00c8 1B78     		ldrb	r3, [r3]
 158 00ca 013B     		sub	r3, r3, #1
 159 00cc DAB2     		uxtb	r2, r3
 160 00ce 034B     		ldr	r3, .L8+4
 161 00d0 1A70     		strb	r2, [r3]
 162              	.L1:
 115:.\BLEApplications.c **** 	}
 116:.\BLEApplications.c **** }
 163              		.loc 1 116 0
 164 00d2 BD46     		mov	sp, r7
 165              		@ sp needed
 166 00d4 80BD     		pop	{r7, pc}
 167              	.L9:
 168 00d6 C046     		.align	2
 169              	.L8:
ARM GAS  C:\Users\Zachary\AppData\Local\Temp\ccOeLwol.s 			page 6


 170 00d8 01000000 		.word	buttonStatus.6308
 171 00dc 02000000 		.word	switchDebounceTimer.6307
 172 00e0 00000000 		.word	iasLevel
 173              		.cfi_endproc
 174              	.LFE35:
 175              		.size	CheckButtonStatus, .-CheckButtonStatus
 176              		.section	.text.HandleLEDs,"ax",%progbits
 177              		.align	2
 178              		.global	HandleLEDs
 179              		.code	16
 180              		.thumb_func
 181              		.type	HandleLEDs, %function
 182              	HandleLEDs:
 183              	.LFB36:
 117:.\BLEApplications.c **** 
 118:.\BLEApplications.c **** /*******************************************************************************
 119:.\BLEApplications.c **** * Function Name: HandleLEDs
 120:.\BLEApplications.c **** ********************************************************************************
 121:.\BLEApplications.c **** * Summary:
 122:.\BLEApplications.c **** *        This function handles the LED on the BLE Pioneer kit that signifies the 
 123:.\BLEApplications.c **** * state of the BLE connection.
 124:.\BLEApplications.c **** *
 125:.\BLEApplications.c **** * Parameters:
 126:.\BLEApplications.c **** *  state: the state of connection.
 127:.\BLEApplications.c **** *
 128:.\BLEApplications.c **** * Return:
 129:.\BLEApplications.c **** *  void
 130:.\BLEApplications.c **** *
 131:.\BLEApplications.c **** *******************************************************************************/
 132:.\BLEApplications.c **** void HandleLEDs(uint8 state)
 133:.\BLEApplications.c **** {
 184              		.loc 1 133 0
 185              		.cfi_startproc
 186 0000 80B5     		push	{r7, lr}
 187              		.cfi_def_cfa_offset 8
 188              		.cfi_offset 7, -8
 189              		.cfi_offset 14, -4
 190 0002 82B0     		sub	sp, sp, #8
 191              		.cfi_def_cfa_offset 16
 192 0004 00AF     		add	r7, sp, #0
 193              		.cfi_def_cfa_register 7
 194 0006 021C     		mov	r2, r0
 195 0008 FB1D     		add	r3, r7, #7
 196 000a 1A70     		strb	r2, [r3]
 134:.\BLEApplications.c **** 	static uint16 led_scanning_counter = TRUE;
 135:.\BLEApplications.c **** 	static uint16 led_discovery_counter = TRUE;
 136:.\BLEApplications.c **** 	
 137:.\BLEApplications.c **** 	switch(state)
 197              		.loc 1 137 0
 198 000c FB1D     		add	r3, r7, #7
 199 000e 1B78     		ldrb	r3, [r3]
 200 0010 022B     		cmp	r3, #2
 201 0012 0FD0     		beq	.L12
 202 0014 02DC     		bgt	.L13
 203 0016 012B     		cmp	r3, #1
 204 0018 05D0     		beq	.L14
 138:.\BLEApplications.c **** 	{
ARM GAS  C:\Users\Zachary\AppData\Local\Temp\ccOeLwol.s 			page 7


 139:.\BLEApplications.c **** 		case BLE_DISCONNECTED:
 140:.\BLEApplications.c **** 			/* Set LED to OFF for Disconnected state*/
 141:.\BLEApplications.c ****             Pin_LED_Write(LED_OFF);
 142:.\BLEApplications.c **** 			Status_LED_Write(LED_OFF);
 143:.\BLEApplications.c **** 		break;
 144:.\BLEApplications.c **** 		
 145:.\BLEApplications.c **** 		case BLE_SCANNING:
 146:.\BLEApplications.c **** 			/* Run internal software timer to blink status LED, 
 147:.\BLEApplications.c **** 			* indicating ongoing BLE scan */
 148:.\BLEApplications.c **** 			if((--led_scanning_counter) == FALSE)
 149:.\BLEApplications.c **** 			{
 150:.\BLEApplications.c ****                 Pin_LED_Write(LED_OFF);
 151:.\BLEApplications.c **** 				led_scanning_counter = LED_SCANNING_COUNTER_VALUE;
 152:.\BLEApplications.c **** 				Status_LED_Write(!Status_LED_Read());
 153:.\BLEApplications.c ****                 
 154:.\BLEApplications.c **** 			}
 155:.\BLEApplications.c **** 		break;
 156:.\BLEApplications.c **** 			
 157:.\BLEApplications.c **** 		case BLE_SERVICE_DISCOVERY:
 158:.\BLEApplications.c **** 			/* Run internal software timer to blink status LED, 
 159:.\BLEApplications.c **** 			* indicating BLE discovery procedure with connected device */
 160:.\BLEApplications.c **** 			if((--led_discovery_counter) == FALSE)
 161:.\BLEApplications.c **** 			{
 162:.\BLEApplications.c **** 				led_scanning_counter = LED_DISCOVERY_COUNTER_VALUE;
 163:.\BLEApplications.c **** 				Status_LED_Write(!Status_LED_Read());
 164:.\BLEApplications.c **** 			}
 165:.\BLEApplications.c **** 		break;
 166:.\BLEApplications.c **** 		
 167:.\BLEApplications.c **** 		case BLE_CONNECTED:
 168:.\BLEApplications.c **** 			/* Set the LED to ON to indicate BLE connected state */
 169:.\BLEApplications.c **** 			Status_LED_Write(LED_OFF);
 170:.\BLEApplications.c ****             Pin_LED_Write(LED_ON);
 171:.\BLEApplications.c **** 		break;
 172:.\BLEApplications.c **** 		
 173:.\BLEApplications.c **** 		default:
 174:.\BLEApplications.c **** 		
 175:.\BLEApplications.c **** 		break;
 205              		.loc 1 175 0
 206 001a 45E0     		b	.L10
 207              	.L13:
 137:.\BLEApplications.c **** 	switch(state)
 208              		.loc 1 137 0
 209 001c 032B     		cmp	r3, #3
 210 001e 24D0     		beq	.L15
 211 0020 042B     		cmp	r3, #4
 212 0022 3AD0     		beq	.L16
 213              		.loc 1 175 0
 214 0024 40E0     		b	.L10
 215              	.L14:
 141:.\BLEApplications.c ****             Pin_LED_Write(LED_OFF);
 216              		.loc 1 141 0
 217 0026 0120     		mov	r0, #1
 218 0028 FFF7FEFF 		bl	Pin_LED_Write
 142:.\BLEApplications.c **** 			Status_LED_Write(LED_OFF);
 219              		.loc 1 142 0
 220 002c 0120     		mov	r0, #1
 221 002e FFF7FEFF 		bl	Status_LED_Write
ARM GAS  C:\Users\Zachary\AppData\Local\Temp\ccOeLwol.s 			page 8


 143:.\BLEApplications.c **** 		break;
 222              		.loc 1 143 0
 223 0032 39E0     		b	.L10
 224              	.L12:
 148:.\BLEApplications.c **** 			if((--led_scanning_counter) == FALSE)
 225              		.loc 1 148 0
 226 0034 1E4B     		ldr	r3, .L20
 227 0036 1B88     		ldrh	r3, [r3]
 228 0038 013B     		sub	r3, r3, #1
 229 003a 9AB2     		uxth	r2, r3
 230 003c 1C4B     		ldr	r3, .L20
 231 003e 1A80     		strh	r2, [r3]
 232 0040 1B4B     		ldr	r3, .L20
 233 0042 1B88     		ldrh	r3, [r3]
 234 0044 002B     		cmp	r3, #0
 235 0046 0FD1     		bne	.L18
 150:.\BLEApplications.c ****                 Pin_LED_Write(LED_OFF);
 236              		.loc 1 150 0
 237 0048 0120     		mov	r0, #1
 238 004a FFF7FEFF 		bl	Pin_LED_Write
 151:.\BLEApplications.c **** 				led_scanning_counter = LED_SCANNING_COUNTER_VALUE;
 239              		.loc 1 151 0
 240 004e 184B     		ldr	r3, .L20
 241 0050 3C22     		mov	r2, #60
 242 0052 1A80     		strh	r2, [r3]
 152:.\BLEApplications.c **** 				Status_LED_Write(!Status_LED_Read());
 243              		.loc 1 152 0
 244 0054 FFF7FEFF 		bl	Status_LED_Read
 245 0058 031C     		mov	r3, r0
 246 005a 5A42     		neg	r2, r3
 247 005c 5341     		adc	r3, r3, r2
 248 005e DBB2     		uxtb	r3, r3
 249 0060 181C     		mov	r0, r3
 250 0062 FFF7FEFF 		bl	Status_LED_Write
 155:.\BLEApplications.c **** 		break;
 251              		.loc 1 155 0
 252 0066 1FE0     		b	.L10
 253              	.L18:
 254 0068 1EE0     		b	.L10
 255              	.L15:
 160:.\BLEApplications.c **** 			if((--led_discovery_counter) == FALSE)
 256              		.loc 1 160 0
 257 006a 124B     		ldr	r3, .L20+4
 258 006c 1B88     		ldrh	r3, [r3]
 259 006e 013B     		sub	r3, r3, #1
 260 0070 9AB2     		uxth	r2, r3
 261 0072 104B     		ldr	r3, .L20+4
 262 0074 1A80     		strh	r2, [r3]
 263 0076 0F4B     		ldr	r3, .L20+4
 264 0078 1B88     		ldrh	r3, [r3]
 265 007a 002B     		cmp	r3, #0
 266 007c 0CD1     		bne	.L19
 162:.\BLEApplications.c **** 				led_scanning_counter = LED_DISCOVERY_COUNTER_VALUE;
 267              		.loc 1 162 0
 268 007e 0C4B     		ldr	r3, .L20
 269 0080 0522     		mov	r2, #5
 270 0082 1A80     		strh	r2, [r3]
ARM GAS  C:\Users\Zachary\AppData\Local\Temp\ccOeLwol.s 			page 9


 163:.\BLEApplications.c **** 				Status_LED_Write(!Status_LED_Read());
 271              		.loc 1 163 0
 272 0084 FFF7FEFF 		bl	Status_LED_Read
 273 0088 031C     		mov	r3, r0
 274 008a 5A42     		neg	r2, r3
 275 008c 5341     		adc	r3, r3, r2
 276 008e DBB2     		uxtb	r3, r3
 277 0090 181C     		mov	r0, r3
 278 0092 FFF7FEFF 		bl	Status_LED_Write
 165:.\BLEApplications.c **** 		break;
 279              		.loc 1 165 0
 280 0096 07E0     		b	.L10
 281              	.L19:
 282 0098 06E0     		b	.L10
 283              	.L16:
 169:.\BLEApplications.c **** 			Status_LED_Write(LED_OFF);
 284              		.loc 1 169 0
 285 009a 0120     		mov	r0, #1
 286 009c FFF7FEFF 		bl	Status_LED_Write
 170:.\BLEApplications.c ****             Pin_LED_Write(LED_ON);
 287              		.loc 1 170 0
 288 00a0 0020     		mov	r0, #0
 289 00a2 FFF7FEFF 		bl	Pin_LED_Write
 171:.\BLEApplications.c **** 		break;
 290              		.loc 1 171 0
 291 00a6 C046     		mov	r8, r8
 292              	.L10:
 176:.\BLEApplications.c **** 	}
 177:.\BLEApplications.c **** }
 293              		.loc 1 177 0
 294 00a8 BD46     		mov	sp, r7
 295 00aa 02B0     		add	sp, sp, #8
 296              		@ sp needed
 297 00ac 80BD     		pop	{r7, pc}
 298              	.L21:
 299 00ae C046     		.align	2
 300              	.L20:
 301 00b0 00000000 		.word	led_scanning_counter.6312
 302 00b4 02000000 		.word	led_discovery_counter.6313
 303              		.cfi_endproc
 304              	.LFE36:
 305              		.size	HandleLEDs, .-HandleLEDs
 306              		.section	.text.SetAlertLevel,"ax",%progbits
 307              		.align	2
 308              		.global	SetAlertLevel
 309              		.code	16
 310              		.thumb_func
 311              		.type	SetAlertLevel, %function
 312              	SetAlertLevel:
 313              	.LFB37:
 178:.\BLEApplications.c **** 
 179:.\BLEApplications.c **** /*******************************************************************************
 180:.\BLEApplications.c **** * Function Name: SetAlertLevel
 181:.\BLEApplications.c **** ********************************************************************************
 182:.\BLEApplications.c **** * Summary:
 183:.\BLEApplications.c **** *        This function sends the appropriate Alert level to peripheral device.
 184:.\BLEApplications.c **** *
ARM GAS  C:\Users\Zachary\AppData\Local\Temp\ccOeLwol.s 			page 10


 185:.\BLEApplications.c **** * Parameters:
 186:.\BLEApplications.c **** *  alertLevel: address of the variable containing the present state of BLE
 187:.\BLEApplications.c **** *				connection
 188:.\BLEApplications.c **** *
 189:.\BLEApplications.c **** * Return:
 190:.\BLEApplications.c **** *  void
 191:.\BLEApplications.c **** *
 192:.\BLEApplications.c **** *******************************************************************************/
 193:.\BLEApplications.c **** void SetAlertLevel(uint8* alertLevel)
 194:.\BLEApplications.c **** {
 314              		.loc 1 194 0
 315              		.cfi_startproc
 316 0000 B0B5     		push	{r4, r5, r7, lr}
 317              		.cfi_def_cfa_offset 16
 318              		.cfi_offset 4, -16
 319              		.cfi_offset 5, -12
 320              		.cfi_offset 7, -8
 321              		.cfi_offset 14, -4
 322 0002 84B0     		sub	sp, sp, #16
 323              		.cfi_def_cfa_offset 32
 324 0004 00AF     		add	r7, sp, #0
 325              		.cfi_def_cfa_register 7
 326 0006 7860     		str	r0, [r7, #4]
 195:.\BLEApplications.c **** 	CYBLE_API_RESULT_T 			apiResult;
 196:.\BLEApplications.c **** 	
 197:.\BLEApplications.c **** 	/* Set the IAS characteristic with provided alert level. Alert Level can be either
 198:.\BLEApplications.c **** 	* NO alert, MID alert or HIGH alert */
 199:.\BLEApplications.c **** 	apiResult = CyBle_IascSetCharacteristicValue(connHandle, CYBLE_IAS_ALERT_LEVEL ,IAS_ATTR_SIZE, ale
 327              		.loc 1 199 0
 328 0008 3C1C     		mov	r4, r7
 329 000a 0E34     		add	r4, r4, #14
 330 000c 0B4B     		ldr	r3, .L23
 331 000e 7D68     		ldr	r5, [r7, #4]
 332 0010 1A78     		ldrb	r2, [r3]
 333 0012 5B78     		ldrb	r3, [r3, #1]
 334 0014 1B02     		lsl	r3, r3, #8
 335 0016 1A43     		orr	r2, r3
 336 0018 0023     		mov	r3, #0
 337 001a 1204     		lsl	r2, r2, #16
 338 001c 120C     		lsr	r2, r2, #16
 339 001e 1B0C     		lsr	r3, r3, #16
 340 0020 1B04     		lsl	r3, r3, #16
 341 0022 1343     		orr	r3, r2
 342 0024 181C     		mov	r0, r3
 343 0026 0021     		mov	r1, #0
 344 0028 0122     		mov	r2, #1
 345 002a 2B1C     		mov	r3, r5
 346 002c FFF7FEFF 		bl	CyBle_IascSetCharacteristicValue
 347 0030 031C     		mov	r3, r0
 348 0032 2380     		strh	r3, [r4]
 200:.\BLEApplications.c **** 	
 201:.\BLEApplications.c **** 	if(apiResult != CYBLE_ERROR_OK)
 202:.\BLEApplications.c **** 	{
 203:.\BLEApplications.c **** 		
 204:.\BLEApplications.c **** 	}	
 205:.\BLEApplications.c **** }
 349              		.loc 1 205 0
ARM GAS  C:\Users\Zachary\AppData\Local\Temp\ccOeLwol.s 			page 11


 350 0034 BD46     		mov	sp, r7
 351 0036 04B0     		add	sp, sp, #16
 352              		@ sp needed
 353 0038 B0BD     		pop	{r4, r5, r7, pc}
 354              	.L24:
 355 003a C046     		.align	2
 356              	.L23:
 357 003c 00000000 		.word	connHandle
 358              		.cfi_endproc
 359              	.LFE37:
 360              		.size	SetAlertLevel, .-SetAlertLevel
 361              		.bss
 362              	buttonStatus.6308:
 363 0001 00       		.space	1
 364              	switchDebounceTimer.6307:
 365 0002 00       		.space	1
 366              		.data
 367              		.align	1
 368              		.type	led_scanning_counter.6312, %object
 369              		.size	led_scanning_counter.6312, 2
 370              	led_scanning_counter.6312:
 371 0000 0100     		.short	1
 372              		.align	1
 373              		.type	led_discovery_counter.6313, %object
 374              		.size	led_discovery_counter.6313, 2
 375              	led_discovery_counter.6313:
 376 0002 0100     		.short	1
 377              		.text
 378              	.Letext0:
 379              		.file 2 ".\\Generated_Source\\PSoC4/cytypes.h"
 380              		.file 3 ".\\Generated_Source\\PSoC4/BLE_Stack.h"
 381              		.file 4 ".\\Generated_Source\\PSoC4/BLE_StackGatt.h"
 382              		.file 5 ".\\Generated_Source\\PSoC4/BLE_ias.h"
 383              		.file 6 ".\\Generated_Source\\PSoC4/BLE_eventHandler.h"