ARM GAS  C:\Users\Zachary\AppData\Local\Temp\cclAdSE4.s 			page 1


   1              		.cpu cortex-m0
   2              		.fpu softvfp
   3              		.eabi_attribute 20, 1
   4              		.eabi_attribute 21, 1
   5              		.eabi_attribute 23, 3
   6              		.eabi_attribute 24, 1
   7              		.eabi_attribute 25, 1
   8              		.eabi_attribute 26, 1
   9              		.eabi_attribute 30, 6
  10              		.eabi_attribute 34, 0
  11              		.eabi_attribute 18, 4
  12              		.code	16
  13              		.file	"BLEclient.c"
  14              		.text
  15              	.Ltext0:
  16              		.cfi_sections	.debug_frame
  17              		.comm	list_of_devices,200,4
  18              		.comm	connectPeriphDevice,7,4
  19              		.comm	connHandle,2,4
  20              		.global	deviceConnected
  21              		.bss
  22              		.type	deviceConnected, %object
  23              		.size	deviceConnected, 1
  24              	deviceConnected:
  25 0000 00       		.space	1
  26              		.global	ble_state
  27              		.data
  28              		.type	ble_state, %object
  29              		.size	ble_state, 1
  30              	ble_state:
  31 0000 01       		.byte	1
  32              		.comm	address_store,60,4
  33              		.comm	peripheralAddress,6,4
  34              		.global	peripheralFound
  35              		.bss
  36              		.type	peripheralFound, %object
  37              		.size	peripheralFound, 1
  38              	peripheralFound:
  39 0001 00       		.space	1
  40              		.global	addedDevices
  41              		.type	addedDevices, %object
  42              		.size	addedDevices, 1
  43              	addedDevices:
  44 0002 00       		.space	1
  45              		.global	restartScanning
  46              		.type	restartScanning, %object
  47              		.size	restartScanning, 1
  48              	restartScanning:
  49 0003 00       		.space	1
  50              		.section	.text.ApplicationEventHandler,"ax",%progbits
  51              		.align	2
  52              		.global	ApplicationEventHandler
  53              		.code	16
  54              		.thumb_func
  55              		.type	ApplicationEventHandler, %function
  56              	ApplicationEventHandler:
  57              	.LFB35:
ARM GAS  C:\Users\Zachary\AppData\Local\Temp\cclAdSE4.s 			page 2


  58              		.file 1 ".\\BLEclient.c"
   1:.\BLEclient.c **** /******************************************************************************
   2:.\BLEclient.c **** * Project Name		: PSoC_4_BLE_Central_IAS
   3:.\BLEclient.c **** * File Name			: BLEclient.c
   4:.\BLEclient.c **** * Version 			: 1.0
   5:.\BLEclient.c **** * Device Used		: CY8C4247LQI-BL483
   6:.\BLEclient.c **** * Software Used		: PSoC Creator 3.1
   7:.\BLEclient.c **** * Compiler    		: ARM GCC 4.8.4, ARM RVDS Generic, ARM MDK Generic
   8:.\BLEclient.c **** * Related Hardware	: CY8CKIT-042-BLE Bluetooth Low Energy Pioneer Kit 
   9:.\BLEclient.c **** * Owner				: ROIT
  10:.\BLEclient.c **** *
  11:.\BLEclient.c **** ********************************************************************************
  12:.\BLEclient.c **** * Copyright (2014-15), Cypress Semiconductor Corporation. All Rights Reserved.
  13:.\BLEclient.c **** ********************************************************************************
  14:.\BLEclient.c **** * This software is owned by Cypress Semiconductor Corporation (Cypress)
  15:.\BLEclient.c **** * and is protected by and subject to worldwide patent protection (United
  16:.\BLEclient.c **** * States and foreign), United States copyright laws and international treaty
  17:.\BLEclient.c **** * provisions. Cypress hereby grants to licensee a personal, non-exclusive,
  18:.\BLEclient.c **** * non-transferable license to copy, use, modify, create derivative works of,
  19:.\BLEclient.c **** * and compile the Cypress Source Code and derivative works for the sole
  20:.\BLEclient.c **** * purpose of creating custom software in support of licensee product to be
  21:.\BLEclient.c **** * used only in conjunction with a Cypress integrated circuit as specified in
  22:.\BLEclient.c **** * the applicable agreement. Any reproduction, modification, translation,
  23:.\BLEclient.c **** * compilation, or representation of this software except as specified above 
  24:.\BLEclient.c **** * is prohibited without the express written permission of Cypress.
  25:.\BLEclient.c **** *
  26:.\BLEclient.c **** * Disclaimer: CYPRESS MAKES NO WARRANTY OF ANY KIND, EXPRESS OR IMPLIED, WITH 
  27:.\BLEclient.c **** * REGARD TO THIS MATERIAL, INCLUDING, BUT NOT LIMITED TO, THE IMPLIED 
  28:.\BLEclient.c **** * WARRANTIES OF MERCHANTABILITY AND FITNESS FOR A PARTICULAR PURPOSE.
  29:.\BLEclient.c **** * Cypress reserves the right to make changes without further notice to the 
  30:.\BLEclient.c **** * materials described herein. Cypress does not assume any liability arising out 
  31:.\BLEclient.c **** * of the application or use of any product or circuit described herein. Cypress 
  32:.\BLEclient.c **** * does not authorize its products for use as critical components in life-support 
  33:.\BLEclient.c **** * systems where a malfunction or failure may reasonably be expected to result in 
  34:.\BLEclient.c **** * significant injury to the user. The inclusion of Cypress' product in a life-
  35:.\BLEclient.c **** * support systems application implies that the manufacturer assumes all risk of 
  36:.\BLEclient.c **** * such use and in doing so indemnifies Cypress against all charges. 
  37:.\BLEclient.c **** *
  38:.\BLEclient.c **** * Use of this Software may be limited by and subject to the applicable Cypress
  39:.\BLEclient.c **** * software license agreement. 
  40:.\BLEclient.c **** *******************************************************************************/
  41:.\BLEclient.c **** #include <main.h>
  42:.\BLEclient.c **** 
  43:.\BLEclient.c **** /* 'list_of_devices' is an array of type 'CYBLE_GAPC_ADV_REPORT_T' (defined in 
  44:.\BLEclient.c ****  * BLE_StackGap.h) that is used to store the reports of the peripheral devices
  45:.\BLEclient.c **** * being scanned by this Central device*/
  46:.\BLEclient.c **** CYBLE_GAPC_ADV_REPORT_T 	list_of_devices[CYBLE_MAX_ADV_DEVICES];
  47:.\BLEclient.c **** 
  48:.\BLEclient.c **** /* 'connectPeriphDevice' is a variable of type 'CYBLE_GAP_BD_ADDR_T' (defined in 
  49:.\BLEclient.c **** * BLE_StackGap.h) and is used to store address of the connected device. */
  50:.\BLEclient.c **** CYBLE_GAP_BD_ADDR_T 		connectPeriphDevice;
  51:.\BLEclient.c **** 
  52:.\BLEclient.c **** /* 'connHandle' is a variable of type 'CYBLE_CONN_HANDLE_T' (defined in 
  53:.\BLEclient.c **** * BLE_StackGatt.h) and is used to store the connection handle parameters after
  54:.\BLEclient.c **** * connecting with the peripheral device. */
  55:.\BLEclient.c **** CYBLE_CONN_HANDLE_T			connHandle;
  56:.\BLEclient.c **** 
ARM GAS  C:\Users\Zachary\AppData\Local\Temp\cclAdSE4.s 			page 3


  57:.\BLEclient.c **** /* 'deviceConnected' flag tells the status of connection with BLE peripheral Device */
  58:.\BLEclient.c **** uint8 deviceConnected = FALSE;
  59:.\BLEclient.c **** 
  60:.\BLEclient.c **** /* 'ble_state' stores the state of connection which is used for updating LEDs */
  61:.\BLEclient.c **** uint8 ble_state = BLE_DISCONNECTED;
  62:.\BLEclient.c **** 
  63:.\BLEclient.c **** /* 'address_store' stores the addresses returned by Scanning results */
  64:.\BLEclient.c **** uint8 address_store[10][6];
  65:.\BLEclient.c **** 
  66:.\BLEclient.c **** /* 'peripheralAddress' stores the addresses of device presently connected to */
  67:.\BLEclient.c **** uint8 peripheralAddress[6];
  68:.\BLEclient.c **** 
  69:.\BLEclient.c **** /* 'peripheralFound' flag tells whether the peripheral device with the required Address
  70:.\BLEclient.c ****  * has been found during scanning or not. */
  71:.\BLEclient.c **** uint8 peripheralFound = FALSE;
  72:.\BLEclient.c **** 
  73:.\BLEclient.c **** /* 'addedDevices' tells the number of devices that has been added to the list till now. */
  74:.\BLEclient.c **** uint8 addedDevices = FALSE;
  75:.\BLEclient.c **** 
  76:.\BLEclient.c **** /* 'iasLevel' stores the current alert level as set by Central device */
  77:.\BLEclient.c **** extern uint8 iasLevel;
  78:.\BLEclient.c **** 
  79:.\BLEclient.c **** /* 'restartScanning' flag indicates to application whether starting scan API has to be
  80:.\BLEclient.c **** * called or not */
  81:.\BLEclient.c **** uint8 restartScanning = FALSE;
  82:.\BLEclient.c **** 
  83:.\BLEclient.c **** /*******************************************************************************
  84:.\BLEclient.c **** * Function Name: ApplicationEventHandler
  85:.\BLEclient.c **** ********************************************************************************
  86:.\BLEclient.c **** * Summary:
  87:.\BLEclient.c **** *        Call back event function to handle various events from BLE stack
  88:.\BLEclient.c **** *
  89:.\BLEclient.c **** * Parameters:
  90:.\BLEclient.c **** *  event:		event returned
  91:.\BLEclient.c **** *  eventParam:	link to value of the event parameter returned
  92:.\BLEclient.c **** *
  93:.\BLEclient.c **** * Return:
  94:.\BLEclient.c **** *  void
  95:.\BLEclient.c **** *
  96:.\BLEclient.c **** *******************************************************************************/
  97:.\BLEclient.c **** void ApplicationEventHandler(uint32 event, void *eventparam)
  98:.\BLEclient.c **** {
  59              		.loc 1 98 0
  60              		.cfi_startproc
  61 0000 90B5     		push	{r4, r7, lr}
  62              		.cfi_def_cfa_offset 12
  63              		.cfi_offset 4, -12
  64              		.cfi_offset 7, -8
  65              		.cfi_offset 14, -4
  66 0002 89B0     		sub	sp, sp, #36
  67              		.cfi_def_cfa_offset 48
  68 0004 00AF     		add	r7, sp, #0
  69              		.cfi_def_cfa_register 7
  70 0006 7860     		str	r0, [r7, #4]
  71 0008 3960     		str	r1, [r7]
  99:.\BLEclient.c **** 	/* 'apiResult' is a variable of type 'CYBLE_API_RESULT_T' (defined in 
 100:.\BLEclient.c **** 	* BLE_StackTypes.h) and is used to store the return value from BLE APIs. */
ARM GAS  C:\Users\Zachary\AppData\Local\Temp\cclAdSE4.s 			page 4


 101:.\BLEclient.c **** 	CYBLE_API_RESULT_T 			apiResult;
 102:.\BLEclient.c **** 	
 103:.\BLEclient.c **** 	/* 'scan_report' is a variable of type 'CYBLE_GAPC_ADV_REPORT_T' (defined in 
 104:.\BLEclient.c **** 	* BLE_StackGap.h) and is used to store report retuned from Scan results. */
 105:.\BLEclient.c **** 	CYBLE_GAPC_ADV_REPORT_T		scan_report;
 106:.\BLEclient.c **** 	
 107:.\BLEclient.c **** 	/* Local variable for Loop */
 108:.\BLEclient.c **** 	uint16 i = FALSE;
  72              		.loc 1 108 0
  73 000a 3B1C     		mov	r3, r7
  74 000c 1E33     		add	r3, r3, #30
  75 000e 0022     		mov	r2, #0
  76 0010 1A80     		strh	r2, [r3]
 109:.\BLEclient.c **** 	
 110:.\BLEclient.c **** 	switch(event)
  77              		.loc 1 110 0
  78 0012 7B68     		ldr	r3, [r7, #4]
  79 0014 282B     		cmp	r3, #40
  80 0016 5CD0     		beq	.L3
  81 0018 06D8     		bhi	.L4
  82 001a 202B     		cmp	r3, #32
  83 001c 2ED0     		beq	.L5
  84 001e 272B     		cmp	r3, #39
  85 0020 4BD0     		beq	.L6
  86 0022 012B     		cmp	r3, #1
  87 0024 0FD0     		beq	.L7
 111:.\BLEclient.c **** 	{
 112:.\BLEclient.c **** 		case CYBLE_EVT_STACK_ON:
 113:.\BLEclient.c **** 			
 114:.\BLEclient.c **** 			/* Set start scanning flag to allow calling the API in main loop */
 115:.\BLEclient.c **** 			restartScanning = TRUE;
 116:.\BLEclient.c **** 		break;
 117:.\BLEclient.c **** 			
 118:.\BLEclient.c **** 		case CYBLE_EVT_GAPC_SCAN_START_STOP:
 119:.\BLEclient.c **** 			/* Add relevant code here pertaining to Starting/Stopping of Scan*/
 120:.\BLEclient.c **** 			if(CyBle_GetState() == CYBLE_STATE_DISCONNECTED)
 121:.\BLEclient.c **** 			{
 122:.\BLEclient.c **** 				ble_state = BLE_DISCONNECTED;
 123:.\BLEclient.c **** 				
 124:.\BLEclient.c **** 				if(!peripheralFound)
 125:.\BLEclient.c **** 				{
 126:.\BLEclient.c **** 					/* Restart Scanning */
 127:.\BLEclient.c **** 					Status_LED_Write(1);
 128:.\BLEclient.c **** 					restartScanning = TRUE;
 129:.\BLEclient.c **** 				}
 130:.\BLEclient.c **** 			}
 131:.\BLEclient.c **** 			else
 132:.\BLEclient.c **** 			{
 133:.\BLEclient.c **** 				ble_state = BLE_SCANNING;
 134:.\BLEclient.c **** 			}
 135:.\BLEclient.c **** 		break;
 136:.\BLEclient.c **** 			
 137:.\BLEclient.c **** 		case CYBLE_EVT_GAPC_SCAN_PROGRESS_RESULT:
 138:.\BLEclient.c **** 			/* This event is generated whenever there is a device found*/
 139:.\BLEclient.c **** 			if(CYBLE_STATE_CONNECTED != CyBle_GetState())	
 140:.\BLEclient.c **** 			{
 141:.\BLEclient.c **** 				/* If we are not connected to any peripheral device, then save the new device  
ARM GAS  C:\Users\Zachary\AppData\Local\Temp\cclAdSE4.s 			page 5


 142:.\BLEclient.c **** 					information so to add it to our list */
 143:.\BLEclient.c **** 				scan_report = *(CYBLE_GAPC_ADV_REPORT_T*) eventparam;
 144:.\BLEclient.c **** 				
 145:.\BLEclient.c **** 				/* Add the new device to existing list if not done yet, and compare the address with our
 146:.\BLEclient.c **** 					required address.*/
 147:.\BLEclient.c **** 				HandleScanDevices(&scan_report);
 148:.\BLEclient.c **** 			}
 149:.\BLEclient.c **** 			/* Update the LED status for BLE scanning mode*/
 150:.\BLEclient.c **** 			ble_state = BLE_SCANNING;
 151:.\BLEclient.c **** 		break;
 152:.\BLEclient.c **** 			
 153:.\BLEclient.c ****  		case CYBLE_EVT_GATT_CONNECT_IND:
 154:.\BLEclient.c **** 
 155:.\BLEclient.c **** 			/* When the peripheral device is connected, store the connection handle.*/
 156:.\BLEclient.c ****             connHandle = *(CYBLE_CONN_HANDLE_T *)eventparam;
 157:.\BLEclient.c ****             break;
 158:.\BLEclient.c **** 			
 159:.\BLEclient.c **** 		case CYBLE_EVT_GATT_DISCONNECT_IND:
 160:.\BLEclient.c **** 			/* When the peripheral device is disconnected, reset variables*/
 161:.\BLEclient.c **** 			
 162:.\BLEclient.c **** 			break;
 163:.\BLEclient.c **** 			
 164:.\BLEclient.c **** 		case CYBLE_EVT_GAP_DEVICE_CONNECTED:
 165:.\BLEclient.c **** 			
 166:.\BLEclient.c **** 			/* The Device is connected now. Start Attributes discovery process.*/
 167:.\BLEclient.c **** 			apiResult = CyBle_GattcStartDiscovery(connHandle);
 168:.\BLEclient.c **** 			
 169:.\BLEclient.c **** 			if(apiResult != CYBLE_ERROR_OK)
 170:.\BLEclient.c **** 			{
 171:.\BLEclient.c **** 
 172:.\BLEclient.c **** 			}
 173:.\BLEclient.c **** 			
 174:.\BLEclient.c **** 			/* Update the LED status for BLE discovery mode*/
 175:.\BLEclient.c **** 			ble_state = BLE_SERVICE_DISCOVERY;
 176:.\BLEclient.c ****         break;
 177:.\BLEclient.c **** 			
 178:.\BLEclient.c **** 		case CYBLE_EVT_GAP_DEVICE_DISCONNECTED:
 179:.\BLEclient.c **** 			/* Reset all saved peripheral Addresses */
 180:.\BLEclient.c **** 			for(i=0;i<addedDevices;i++)
 181:.\BLEclient.c **** 			{
 182:.\BLEclient.c **** 				list_of_devices[i].peerBdAddr[0] = FALSE;
 183:.\BLEclient.c **** 				list_of_devices[i].peerBdAddr[1] = FALSE;
 184:.\BLEclient.c **** 				list_of_devices[i].peerBdAddr[2] = FALSE;
 185:.\BLEclient.c **** 				list_of_devices[i].peerBdAddr[3] = FALSE;
 186:.\BLEclient.c **** 				list_of_devices[i].peerBdAddr[4] = FALSE;
 187:.\BLEclient.c **** 				list_of_devices[i].peerBdAddr[5] = FALSE;
 188:.\BLEclient.c **** 			}
 189:.\BLEclient.c **** 			
 190:.\BLEclient.c **** 			/* Reset application Flags on BLE Disconnect */
 191:.\BLEclient.c **** 			addedDevices = FALSE;
 192:.\BLEclient.c **** 			peripheralFound = FALSE;
 193:.\BLEclient.c **** 			deviceConnected = FALSE;
 194:.\BLEclient.c **** 			iasLevel = FALSE;
 195:.\BLEclient.c **** 			ble_state = BLE_DISCONNECTED;
 196:.\BLEclient.c **** 			
 197:.\BLEclient.c **** 			/* Set the flag for rescanning after wakeup */
 198:.\BLEclient.c **** 			restartScanning = TRUE;
ARM GAS  C:\Users\Zachary\AppData\Local\Temp\cclAdSE4.s 			page 6


 199:.\BLEclient.c **** 			
 200:.\BLEclient.c **** 			/* Update LED Status for Disconnection */
 201:.\BLEclient.c **** 			HandleLEDs(ble_state);
 202:.\BLEclient.c **** 			if(apiResult != CYBLE_ERROR_OK)
 203:.\BLEclient.c **** 			{
 204:.\BLEclient.c **** 			}
 205:.\BLEclient.c **** 			break;
 206:.\BLEclient.c **** 			
 207:.\BLEclient.c **** 	
 208:.\BLEclient.c **** 		case CYBLE_EVT_GATTC_DISCOVERY_COMPLETE:
 209:.\BLEclient.c **** 			/* This event is generated whenever the discovery procedure is complete*/
 210:.\BLEclient.c **** 			
 211:.\BLEclient.c **** 			/*Set the Device connected flag*/
 212:.\BLEclient.c **** 			deviceConnected = TRUE;
 213:.\BLEclient.c **** 			
 214:.\BLEclient.c **** 			/* Update the LED status for BLE discovery mode*/
 215:.\BLEclient.c **** 			ble_state = BLE_CONNECTED;
 216:.\BLEclient.c **** 		break;
 217:.\BLEclient.c **** 			
 218:.\BLEclient.c **** 		default:
 219:.\BLEclient.c **** 			
 220:.\BLEclient.c **** 		break;
  88              		.loc 1 220 0
  89 0026 D4E0     		b	.L1
  90              	.L4:
 110:.\BLEclient.c **** 	switch(event)
  91              		.loc 1 110 0
  92 0028 412B     		cmp	r3, #65
  93 002a 3BD0     		beq	.L8
  94 002c 02D8     		bhi	.L9
  95 002e 2B2B     		cmp	r3, #43
  96 0030 0DD0     		beq	.L10
  97              		.loc 1 220 0
  98 0032 CEE0     		b	.L1
  99              	.L9:
 110:.\BLEclient.c **** 	switch(event)
 100              		.loc 1 110 0
 101 0034 422B     		cmp	r3, #66
 102 0036 00D1     		bne	.LCB45
 103 0038 CAE0     		b	.L20	@long jump
 104              	.LCB45:
 105 003a 1222     		mov	r2, #18
 106 003c FF32     		add	r2, r2, #255
 107 003e 9342     		cmp	r3, r2
 108 0040 00D1     		bne	.LCB49
 109 0042 BEE0     		b	.L12	@long jump
 110              	.LCB49:
 111              		.loc 1 220 0
 112 0044 C5E0     		b	.L1
 113              	.L7:
 115:.\BLEclient.c **** 			restartScanning = TRUE;
 114              		.loc 1 115 0
 115 0046 644B     		ldr	r3, .L21
 116 0048 0122     		mov	r2, #1
 117 004a 1A70     		strb	r2, [r3]
 116:.\BLEclient.c **** 		break;
 118              		.loc 1 116 0
ARM GAS  C:\Users\Zachary\AppData\Local\Temp\cclAdSE4.s 			page 7


 119 004c C1E0     		b	.L1
 120              	.L10:
 120:.\BLEclient.c **** 			if(CyBle_GetState() == CYBLE_STATE_DISCONNECTED)
 121              		.loc 1 120 0
 122 004e 634B     		ldr	r3, .L21+4
 123 0050 1B78     		ldrb	r3, [r3]
 124 0052 052B     		cmp	r3, #5
 125 0054 0DD1     		bne	.L14
 122:.\BLEclient.c **** 				ble_state = BLE_DISCONNECTED;
 126              		.loc 1 122 0
 127 0056 624B     		ldr	r3, .L21+8
 128 0058 0122     		mov	r2, #1
 129 005a 1A70     		strb	r2, [r3]
 124:.\BLEclient.c **** 				if(!peripheralFound)
 130              		.loc 1 124 0
 131 005c 614B     		ldr	r3, .L21+12
 132 005e 1B78     		ldrb	r3, [r3]
 133 0060 002B     		cmp	r3, #0
 134 0062 0AD1     		bne	.L16
 127:.\BLEclient.c **** 					Status_LED_Write(1);
 135              		.loc 1 127 0
 136 0064 0120     		mov	r0, #1
 137 0066 FFF7FEFF 		bl	Status_LED_Write
 128:.\BLEclient.c **** 					restartScanning = TRUE;
 138              		.loc 1 128 0
 139 006a 5B4B     		ldr	r3, .L21
 140 006c 0122     		mov	r2, #1
 141 006e 1A70     		strb	r2, [r3]
 135:.\BLEclient.c **** 		break;
 142              		.loc 1 135 0
 143 0070 AFE0     		b	.L1
 144              	.L14:
 133:.\BLEclient.c **** 				ble_state = BLE_SCANNING;
 145              		.loc 1 133 0
 146 0072 5B4B     		ldr	r3, .L21+8
 147 0074 0222     		mov	r2, #2
 148 0076 1A70     		strb	r2, [r3]
 135:.\BLEclient.c **** 		break;
 149              		.loc 1 135 0
 150 0078 ABE0     		b	.L1
 151              	.L16:
 152 007a AAE0     		b	.L1
 153              	.L5:
 139:.\BLEclient.c **** 			if(CYBLE_STATE_CONNECTED != CyBle_GetState())	
 154              		.loc 1 139 0
 155 007c 574B     		ldr	r3, .L21+4
 156 007e 1B78     		ldrb	r3, [r3]
 157 0080 022B     		cmp	r3, #2
 158 0082 0BD0     		beq	.L17
 143:.\BLEclient.c **** 				scan_report = *(CYBLE_GAPC_ADV_REPORT_T*) eventparam;
 159              		.loc 1 143 0
 160 0084 3B1C     		mov	r3, r7
 161 0086 0833     		add	r3, r3, #8
 162 0088 3A68     		ldr	r2, [r7]
 163 008a 13CA     		ldmia	r2!, {r0, r1, r4}
 164 008c 13C3     		stmia	r3!, {r0, r1, r4}
 165 008e 03CA     		ldmia	r2!, {r0, r1}
ARM GAS  C:\Users\Zachary\AppData\Local\Temp\cclAdSE4.s 			page 8


 166 0090 03C3     		stmia	r3!, {r0, r1}
 147:.\BLEclient.c **** 				HandleScanDevices(&scan_report);
 167              		.loc 1 147 0
 168 0092 3B1C     		mov	r3, r7
 169 0094 0833     		add	r3, r3, #8
 170 0096 181C     		mov	r0, r3
 171 0098 FFF7FEFF 		bl	HandleScanDevices
 172              	.L17:
 150:.\BLEclient.c **** 			ble_state = BLE_SCANNING;
 173              		.loc 1 150 0
 174 009c 504B     		ldr	r3, .L21+8
 175 009e 0222     		mov	r2, #2
 176 00a0 1A70     		strb	r2, [r3]
 151:.\BLEclient.c **** 		break;
 177              		.loc 1 151 0
 178 00a2 96E0     		b	.L1
 179              	.L8:
 156:.\BLEclient.c ****             connHandle = *(CYBLE_CONN_HANDLE_T *)eventparam;
 180              		.loc 1 156 0
 181 00a4 504A     		ldr	r2, .L21+16
 182 00a6 3B68     		ldr	r3, [r7]
 183 00a8 111C     		mov	r1, r2
 184 00aa 1A1C     		mov	r2, r3
 185 00ac 0223     		mov	r3, #2
 186 00ae 081C     		mov	r0, r1
 187 00b0 111C     		mov	r1, r2
 188 00b2 1A1C     		mov	r2, r3
 189 00b4 FFF7FEFF 		bl	memcpy
 157:.\BLEclient.c ****             break;
 190              		.loc 1 157 0
 191 00b8 8BE0     		b	.L1
 192              	.L6:
 167:.\BLEclient.c **** 			apiResult = CyBle_GattcStartDiscovery(connHandle);
 193              		.loc 1 167 0
 194 00ba 3C1C     		mov	r4, r7
 195 00bc 1C34     		add	r4, r4, #28
 196 00be 4A4B     		ldr	r3, .L21+16
 197 00c0 1868     		ldr	r0, [r3]
 198 00c2 FFF7FEFF 		bl	CyBle_GattcStartDiscovery
 199 00c6 031C     		mov	r3, r0
 200 00c8 2380     		strh	r3, [r4]
 175:.\BLEclient.c **** 			ble_state = BLE_SERVICE_DISCOVERY;
 201              		.loc 1 175 0
 202 00ca 454B     		ldr	r3, .L21+8
 203 00cc 0322     		mov	r2, #3
 204 00ce 1A70     		strb	r2, [r3]
 176:.\BLEclient.c ****         break;
 205              		.loc 1 176 0
 206 00d0 7FE0     		b	.L1
 207              	.L3:
 180:.\BLEclient.c **** 			for(i=0;i<addedDevices;i++)
 208              		.loc 1 180 0
 209 00d2 3B1C     		mov	r3, r7
 210 00d4 1E33     		add	r3, r3, #30
 211 00d6 0022     		mov	r2, #0
 212 00d8 1A80     		strh	r2, [r3]
 213 00da 53E0     		b	.L18
ARM GAS  C:\Users\Zachary\AppData\Local\Temp\cclAdSE4.s 			page 9


 214              	.L19:
 182:.\BLEclient.c **** 				list_of_devices[i].peerBdAddr[0] = FALSE;
 215              		.loc 1 182 0 discriminator 2
 216 00dc 3B1C     		mov	r3, r7
 217 00de 1E33     		add	r3, r3, #30
 218 00e0 1A88     		ldrh	r2, [r3]
 219 00e2 4249     		ldr	r1, .L21+20
 220 00e4 131C     		mov	r3, r2
 221 00e6 9B00     		lsl	r3, r3, #2
 222 00e8 9B18     		add	r3, r3, r2
 223 00ea 9B00     		lsl	r3, r3, #2
 224 00ec CB18     		add	r3, r1, r3
 225 00ee 5B68     		ldr	r3, [r3, #4]
 226 00f0 0022     		mov	r2, #0
 227 00f2 1A70     		strb	r2, [r3]
 183:.\BLEclient.c **** 				list_of_devices[i].peerBdAddr[1] = FALSE;
 228              		.loc 1 183 0 discriminator 2
 229 00f4 3B1C     		mov	r3, r7
 230 00f6 1E33     		add	r3, r3, #30
 231 00f8 1A88     		ldrh	r2, [r3]
 232 00fa 3C49     		ldr	r1, .L21+20
 233 00fc 131C     		mov	r3, r2
 234 00fe 9B00     		lsl	r3, r3, #2
 235 0100 9B18     		add	r3, r3, r2
 236 0102 9B00     		lsl	r3, r3, #2
 237 0104 CB18     		add	r3, r1, r3
 238 0106 5B68     		ldr	r3, [r3, #4]
 239 0108 0133     		add	r3, r3, #1
 240 010a 0022     		mov	r2, #0
 241 010c 1A70     		strb	r2, [r3]
 184:.\BLEclient.c **** 				list_of_devices[i].peerBdAddr[2] = FALSE;
 242              		.loc 1 184 0 discriminator 2
 243 010e 3B1C     		mov	r3, r7
 244 0110 1E33     		add	r3, r3, #30
 245 0112 1A88     		ldrh	r2, [r3]
 246 0114 3549     		ldr	r1, .L21+20
 247 0116 131C     		mov	r3, r2
 248 0118 9B00     		lsl	r3, r3, #2
 249 011a 9B18     		add	r3, r3, r2
 250 011c 9B00     		lsl	r3, r3, #2
 251 011e CB18     		add	r3, r1, r3
 252 0120 5B68     		ldr	r3, [r3, #4]
 253 0122 0233     		add	r3, r3, #2
 254 0124 0022     		mov	r2, #0
 255 0126 1A70     		strb	r2, [r3]
 185:.\BLEclient.c **** 				list_of_devices[i].peerBdAddr[3] = FALSE;
 256              		.loc 1 185 0 discriminator 2
 257 0128 3B1C     		mov	r3, r7
 258 012a 1E33     		add	r3, r3, #30
 259 012c 1A88     		ldrh	r2, [r3]
 260 012e 2F49     		ldr	r1, .L21+20
 261 0130 131C     		mov	r3, r2
 262 0132 9B00     		lsl	r3, r3, #2
 263 0134 9B18     		add	r3, r3, r2
 264 0136 9B00     		lsl	r3, r3, #2
 265 0138 CB18     		add	r3, r1, r3
 266 013a 5B68     		ldr	r3, [r3, #4]
ARM GAS  C:\Users\Zachary\AppData\Local\Temp\cclAdSE4.s 			page 10


 267 013c 0333     		add	r3, r3, #3
 268 013e 0022     		mov	r2, #0
 269 0140 1A70     		strb	r2, [r3]
 186:.\BLEclient.c **** 				list_of_devices[i].peerBdAddr[4] = FALSE;
 270              		.loc 1 186 0 discriminator 2
 271 0142 3B1C     		mov	r3, r7
 272 0144 1E33     		add	r3, r3, #30
 273 0146 1A88     		ldrh	r2, [r3]
 274 0148 2849     		ldr	r1, .L21+20
 275 014a 131C     		mov	r3, r2
 276 014c 9B00     		lsl	r3, r3, #2
 277 014e 9B18     		add	r3, r3, r2
 278 0150 9B00     		lsl	r3, r3, #2
 279 0152 CB18     		add	r3, r1, r3
 280 0154 5B68     		ldr	r3, [r3, #4]
 281 0156 0433     		add	r3, r3, #4
 282 0158 0022     		mov	r2, #0
 283 015a 1A70     		strb	r2, [r3]
 187:.\BLEclient.c **** 				list_of_devices[i].peerBdAddr[5] = FALSE;
 284              		.loc 1 187 0 discriminator 2
 285 015c 3B1C     		mov	r3, r7
 286 015e 1E33     		add	r3, r3, #30
 287 0160 1A88     		ldrh	r2, [r3]
 288 0162 2249     		ldr	r1, .L21+20
 289 0164 131C     		mov	r3, r2
 290 0166 9B00     		lsl	r3, r3, #2
 291 0168 9B18     		add	r3, r3, r2
 292 016a 9B00     		lsl	r3, r3, #2
 293 016c CB18     		add	r3, r1, r3
 294 016e 5B68     		ldr	r3, [r3, #4]
 295 0170 0533     		add	r3, r3, #5
 296 0172 0022     		mov	r2, #0
 297 0174 1A70     		strb	r2, [r3]
 180:.\BLEclient.c **** 			for(i=0;i<addedDevices;i++)
 298              		.loc 1 180 0 discriminator 2
 299 0176 3B1C     		mov	r3, r7
 300 0178 1E33     		add	r3, r3, #30
 301 017a 1A88     		ldrh	r2, [r3]
 302 017c 3B1C     		mov	r3, r7
 303 017e 1E33     		add	r3, r3, #30
 304 0180 0132     		add	r2, r2, #1
 305 0182 1A80     		strh	r2, [r3]
 306              	.L18:
 180:.\BLEclient.c **** 			for(i=0;i<addedDevices;i++)
 307              		.loc 1 180 0 is_stmt 0 discriminator 1
 308 0184 1A4B     		ldr	r3, .L21+24
 309 0186 1B78     		ldrb	r3, [r3]
 310 0188 3A1C     		mov	r2, r7
 311 018a 1E32     		add	r2, r2, #30
 312 018c 1288     		ldrh	r2, [r2]
 313 018e 9A42     		cmp	r2, r3
 314 0190 A4D3     		bcc	.L19
 191:.\BLEclient.c **** 			addedDevices = FALSE;
 315              		.loc 1 191 0 is_stmt 1
 316 0192 174B     		ldr	r3, .L21+24
 317 0194 0022     		mov	r2, #0
 318 0196 1A70     		strb	r2, [r3]
ARM GAS  C:\Users\Zachary\AppData\Local\Temp\cclAdSE4.s 			page 11


 192:.\BLEclient.c **** 			peripheralFound = FALSE;
 319              		.loc 1 192 0
 320 0198 124B     		ldr	r3, .L21+12
 321 019a 0022     		mov	r2, #0
 322 019c 1A70     		strb	r2, [r3]
 193:.\BLEclient.c **** 			deviceConnected = FALSE;
 323              		.loc 1 193 0
 324 019e 154B     		ldr	r3, .L21+28
 325 01a0 0022     		mov	r2, #0
 326 01a2 1A70     		strb	r2, [r3]
 194:.\BLEclient.c **** 			iasLevel = FALSE;
 327              		.loc 1 194 0
 328 01a4 144B     		ldr	r3, .L21+32
 329 01a6 0022     		mov	r2, #0
 330 01a8 1A70     		strb	r2, [r3]
 195:.\BLEclient.c **** 			ble_state = BLE_DISCONNECTED;
 331              		.loc 1 195 0
 332 01aa 0D4B     		ldr	r3, .L21+8
 333 01ac 0122     		mov	r2, #1
 334 01ae 1A70     		strb	r2, [r3]
 198:.\BLEclient.c **** 			restartScanning = TRUE;
 335              		.loc 1 198 0
 336 01b0 094B     		ldr	r3, .L21
 337 01b2 0122     		mov	r2, #1
 338 01b4 1A70     		strb	r2, [r3]
 201:.\BLEclient.c **** 			HandleLEDs(ble_state);
 339              		.loc 1 201 0
 340 01b6 0A4B     		ldr	r3, .L21+8
 341 01b8 1B78     		ldrb	r3, [r3]
 342 01ba 181C     		mov	r0, r3
 343 01bc FFF7FEFF 		bl	HandleLEDs
 205:.\BLEclient.c **** 			break;
 344              		.loc 1 205 0
 345 01c0 07E0     		b	.L1
 346              	.L12:
 212:.\BLEclient.c **** 			deviceConnected = TRUE;
 347              		.loc 1 212 0
 348 01c2 0C4B     		ldr	r3, .L21+28
 349 01c4 0122     		mov	r2, #1
 350 01c6 1A70     		strb	r2, [r3]
 215:.\BLEclient.c **** 			ble_state = BLE_CONNECTED;
 351              		.loc 1 215 0
 352 01c8 054B     		ldr	r3, .L21+8
 353 01ca 0422     		mov	r2, #4
 354 01cc 1A70     		strb	r2, [r3]
 216:.\BLEclient.c **** 		break;
 355              		.loc 1 216 0
 356 01ce 00E0     		b	.L1
 357              	.L20:
 162:.\BLEclient.c **** 			break;
 358              		.loc 1 162 0
 359 01d0 C046     		mov	r8, r8
 360              	.L1:
 221:.\BLEclient.c **** 	}
 222:.\BLEclient.c **** }
 361              		.loc 1 222 0
 362 01d2 BD46     		mov	sp, r7
ARM GAS  C:\Users\Zachary\AppData\Local\Temp\cclAdSE4.s 			page 12


 363 01d4 09B0     		add	sp, sp, #36
 364              		@ sp needed
 365 01d6 90BD     		pop	{r4, r7, pc}
 366              	.L22:
 367              		.align	2
 368              	.L21:
 369 01d8 00000000 		.word	restartScanning
 370 01dc 00000000 		.word	cyBle_state
 371 01e0 00000000 		.word	ble_state
 372 01e4 00000000 		.word	peripheralFound
 373 01e8 00000000 		.word	connHandle
 374 01ec 00000000 		.word	list_of_devices
 375 01f0 00000000 		.word	addedDevices
 376 01f4 00000000 		.word	deviceConnected
 377 01f8 00000000 		.word	iasLevel
 378              		.cfi_endproc
 379              	.LFE35:
 380              		.size	ApplicationEventHandler, .-ApplicationEventHandler
 381              		.section	.text.HandleScanDevices,"ax",%progbits
 382              		.align	2
 383              		.global	HandleScanDevices
 384              		.code	16
 385              		.thumb_func
 386              		.type	HandleScanDevices, %function
 387              	HandleScanDevices:
 388              	.LFB36:
 223:.\BLEclient.c **** /*******************************************************************************
 224:.\BLEclient.c **** * Function Name: HandleScanDevices
 225:.\BLEclient.c **** ********************************************************************************
 226:.\BLEclient.c **** * Summary:
 227:.\BLEclient.c **** *        This function checks for new devices that have been scanned and ads them
 228:.\BLEclient.c **** * to its internal list. Also, if one of the scanned peripherals is of CySmart
 229:.\BLEclient.c **** * USB Dongle, then it sets flag to allow connection with it.
 230:.\BLEclient.c **** *
 231:.\BLEclient.c **** * Parameters:
 232:.\BLEclient.c **** *  scanReport:		parameter of type CYBLE_GAPC_ADV_REPORT_T* returned by BLE
 233:.\BLEclient.c **** * 					event CYBLE_EVT_GAPC_SCAN_PROGRESS_RESULT.
 234:.\BLEclient.c **** *
 235:.\BLEclient.c **** * Return:
 236:.\BLEclient.c **** *  void
 237:.\BLEclient.c **** *
 238:.\BLEclient.c **** *******************************************************************************/
 239:.\BLEclient.c **** void HandleScanDevices(CYBLE_GAPC_ADV_REPORT_T* scanReport)
 240:.\BLEclient.c **** {
 389              		.loc 1 240 0
 390              		.cfi_startproc
 391 0000 80B5     		push	{r7, lr}
 392              		.cfi_def_cfa_offset 8
 393              		.cfi_offset 7, -8
 394              		.cfi_offset 14, -4
 395 0002 84B0     		sub	sp, sp, #16
 396              		.cfi_def_cfa_offset 24
 397 0004 00AF     		add	r7, sp, #0
 398              		.cfi_def_cfa_register 7
 399 0006 7860     		str	r0, [r7, #4]
 241:.\BLEclient.c **** 	uint16 i;
 242:.\BLEclient.c **** 	uint8 newDevice = TRUE;
ARM GAS  C:\Users\Zachary\AppData\Local\Temp\cclAdSE4.s 			page 13


 400              		.loc 1 242 0
 401 0008 3B1C     		mov	r3, r7
 402 000a 0D33     		add	r3, r3, #13
 403 000c 0122     		mov	r2, #1
 404 000e 1A70     		strb	r2, [r3]
 243:.\BLEclient.c **** 	
 244:.\BLEclient.c **** 	if((addedDevices < CYBLE_MAX_ADV_DEVICES))
 405              		.loc 1 244 0
 406 0010 9F4B     		ldr	r3, .L31
 407 0012 1B78     		ldrb	r3, [r3]
 408 0014 092B     		cmp	r3, #9
 409 0016 00D9     		bls	.LCB325
 410 0018 36E1     		b	.L23	@long jump
 411              	.LCB325:
 245:.\BLEclient.c **** 	{
 246:.\BLEclient.c **** 		for(i = 0; i < addedDevices; i++)
 412              		.loc 1 246 0
 413 001a 3B1C     		mov	r3, r7
 414 001c 0E33     		add	r3, r3, #14
 415 001e 0022     		mov	r2, #0
 416 0020 1A80     		strh	r2, [r3]
 417 0022 32E0     		b	.L25
 418              	.L28:
 247:.\BLEclient.c **** 		{
 248:.\BLEclient.c **** 			/* Initialize the peerBdAddr element of our list.*/
 249:.\BLEclient.c **** 			list_of_devices[i].peerBdAddr = &address_store[i][0];
 419              		.loc 1 249 0
 420 0024 3B1C     		mov	r3, r7
 421 0026 0E33     		add	r3, r3, #14
 422 0028 1A88     		ldrh	r2, [r3]
 423 002a 3B1C     		mov	r3, r7
 424 002c 0E33     		add	r3, r3, #14
 425 002e 1988     		ldrh	r1, [r3]
 426 0030 0B1C     		mov	r3, r1
 427 0032 5B00     		lsl	r3, r3, #1
 428 0034 5B18     		add	r3, r3, r1
 429 0036 5B00     		lsl	r3, r3, #1
 430 0038 9649     		ldr	r1, .L31+4
 431 003a 5918     		add	r1, r3, r1
 432 003c 9648     		ldr	r0, .L31+8
 433 003e 131C     		mov	r3, r2
 434 0040 9B00     		lsl	r3, r3, #2
 435 0042 9B18     		add	r3, r3, r2
 436 0044 9B00     		lsl	r3, r3, #2
 437 0046 C318     		add	r3, r0, r3
 438 0048 5960     		str	r1, [r3, #4]
 250:.\BLEclient.c **** 			
 251:.\BLEclient.c **** 			/* In this for loop, compare the new device address with the existing addresses in the list to 
 252:.\BLEclient.c **** 				determine if the address is new or not. If the address exists in the list, then the device 
 253:.\BLEclient.c **** 				is not new.*/
 254:.\BLEclient.c **** 			if(FALSE == memcmp(list_of_devices[i].peerBdAddr, scanReport->peerBdAddr, ADV_ADDR_LEN))
 439              		.loc 1 254 0
 440 004a 3B1C     		mov	r3, r7
 441 004c 0E33     		add	r3, r3, #14
 442 004e 1A88     		ldrh	r2, [r3]
 443 0050 9149     		ldr	r1, .L31+8
 444 0052 131C     		mov	r3, r2
ARM GAS  C:\Users\Zachary\AppData\Local\Temp\cclAdSE4.s 			page 14


 445 0054 9B00     		lsl	r3, r3, #2
 446 0056 9B18     		add	r3, r3, r2
 447 0058 9B00     		lsl	r3, r3, #2
 448 005a CB18     		add	r3, r1, r3
 449 005c 5A68     		ldr	r2, [r3, #4]
 450 005e 7B68     		ldr	r3, [r7, #4]
 451 0060 5B68     		ldr	r3, [r3, #4]
 452 0062 101C     		mov	r0, r2
 453 0064 191C     		mov	r1, r3
 454 0066 0622     		mov	r2, #6
 455 0068 FFF7FEFF 		bl	memcmp
 456 006c 031C     		mov	r3, r0
 457 006e 002B     		cmp	r3, #0
 458 0070 04D1     		bne	.L26
 255:.\BLEclient.c **** 			{
 256:.\BLEclient.c **** 				newDevice = FALSE;
 459              		.loc 1 256 0
 460 0072 3B1C     		mov	r3, r7
 461 0074 0D33     		add	r3, r3, #13
 462 0076 0022     		mov	r2, #0
 463 0078 1A70     		strb	r2, [r3]
 257:.\BLEclient.c **** 				break;
 464              		.loc 1 257 0
 465 007a 0DE0     		b	.L27
 466              	.L26:
 246:.\BLEclient.c **** 		for(i = 0; i < addedDevices; i++)
 467              		.loc 1 246 0
 468 007c 3B1C     		mov	r3, r7
 469 007e 0E33     		add	r3, r3, #14
 470 0080 1A88     		ldrh	r2, [r3]
 471 0082 3B1C     		mov	r3, r7
 472 0084 0E33     		add	r3, r3, #14
 473 0086 0132     		add	r2, r2, #1
 474 0088 1A80     		strh	r2, [r3]
 475              	.L25:
 246:.\BLEclient.c **** 		for(i = 0; i < addedDevices; i++)
 476              		.loc 1 246 0 is_stmt 0 discriminator 1
 477 008a 814B     		ldr	r3, .L31
 478 008c 1B78     		ldrb	r3, [r3]
 479 008e 3A1C     		mov	r2, r7
 480 0090 0E32     		add	r2, r2, #14
 481 0092 1288     		ldrh	r2, [r2]
 482 0094 9A42     		cmp	r2, r3
 483 0096 C5D3     		bcc	.L28
 484              	.L27:
 258:.\BLEclient.c **** 			}
 259:.\BLEclient.c **** 		}
 260:.\BLEclient.c **** 		
 261:.\BLEclient.c **** 		if(newDevice)
 485              		.loc 1 261 0 is_stmt 1
 486 0098 3B1C     		mov	r3, r7
 487 009a 0D33     		add	r3, r3, #13
 488 009c 1B78     		ldrb	r3, [r3]
 489 009e 002B     		cmp	r3, #0
 490 00a0 00D1     		bne	.LCB401
 491 00a2 EDE0     		b	.L29	@long jump
 492              	.LCB401:
ARM GAS  C:\Users\Zachary\AppData\Local\Temp\cclAdSE4.s 			page 15


 262:.\BLEclient.c **** 		{
 263:.\BLEclient.c **** 			/* If the device address is new, then add the device to our existing list and compare the addres
 264:.\BLEclient.c **** 				with our expected address to see if the desired peripheral is advertising or not.*/
 265:.\BLEclient.c **** 			
 266:.\BLEclient.c **** 			list_of_devices[addedDevices].peerBdAddr = &address_store[addedDevices][0];
 493              		.loc 1 266 0
 494 00a4 7A4B     		ldr	r3, .L31
 495 00a6 1B78     		ldrb	r3, [r3]
 496 00a8 1A1C     		mov	r2, r3
 497 00aa 794B     		ldr	r3, .L31
 498 00ac 1B78     		ldrb	r3, [r3]
 499 00ae 191C     		mov	r1, r3
 500 00b0 0B1C     		mov	r3, r1
 501 00b2 5B00     		lsl	r3, r3, #1
 502 00b4 5B18     		add	r3, r3, r1
 503 00b6 5B00     		lsl	r3, r3, #1
 504 00b8 7649     		ldr	r1, .L31+4
 505 00ba 5918     		add	r1, r3, r1
 506 00bc 7648     		ldr	r0, .L31+8
 507 00be 131C     		mov	r3, r2
 508 00c0 9B00     		lsl	r3, r3, #2
 509 00c2 9B18     		add	r3, r3, r2
 510 00c4 9B00     		lsl	r3, r3, #2
 511 00c6 C318     		add	r3, r0, r3
 512 00c8 5960     		str	r1, [r3, #4]
 267:.\BLEclient.c **** 			
 268:.\BLEclient.c **** 			/* Store the data*/
 269:.\BLEclient.c **** 			list_of_devices[addedDevices].dataLen = scanReport->dataLen;
 513              		.loc 1 269 0
 514 00ca 714B     		ldr	r3, .L31
 515 00cc 1B78     		ldrb	r3, [r3]
 516 00ce 1A1C     		mov	r2, r3
 517 00d0 7B68     		ldr	r3, [r7, #4]
 518 00d2 197A     		ldrb	r1, [r3, #8]
 519 00d4 7048     		ldr	r0, .L31+8
 520 00d6 131C     		mov	r3, r2
 521 00d8 9B00     		lsl	r3, r3, #2
 522 00da 9B18     		add	r3, r3, r2
 523 00dc 9B00     		lsl	r3, r3, #2
 524 00de C318     		add	r3, r0, r3
 525 00e0 0833     		add	r3, r3, #8
 526 00e2 0A1C     		add	r2, r1, #0
 527 00e4 1A70     		strb	r2, [r3]
 270:.\BLEclient.c **** 			
 271:.\BLEclient.c **** 			list_of_devices[addedDevices].data = scanReport->data;
 528              		.loc 1 271 0
 529 00e6 6A4B     		ldr	r3, .L31
 530 00e8 1B78     		ldrb	r3, [r3]
 531 00ea 1A1C     		mov	r2, r3
 532 00ec 7B68     		ldr	r3, [r7, #4]
 533 00ee D968     		ldr	r1, [r3, #12]
 534 00f0 6948     		ldr	r0, .L31+8
 535 00f2 131C     		mov	r3, r2
 536 00f4 9B00     		lsl	r3, r3, #2
 537 00f6 9B18     		add	r3, r3, r2
 538 00f8 9B00     		lsl	r3, r3, #2
 539 00fa C318     		add	r3, r0, r3
ARM GAS  C:\Users\Zachary\AppData\Local\Temp\cclAdSE4.s 			page 16


 540 00fc 0833     		add	r3, r3, #8
 541 00fe 5960     		str	r1, [r3, #4]
 272:.\BLEclient.c **** 			
 273:.\BLEclient.c **** 			list_of_devices[addedDevices].eventType = scanReport->eventType;
 542              		.loc 1 273 0
 543 0100 634B     		ldr	r3, .L31
 544 0102 1B78     		ldrb	r3, [r3]
 545 0104 1A1C     		mov	r2, r3
 546 0106 7B68     		ldr	r3, [r7, #4]
 547 0108 1878     		ldrb	r0, [r3]
 548 010a 6349     		ldr	r1, .L31+8
 549 010c 131C     		mov	r3, r2
 550 010e 9B00     		lsl	r3, r3, #2
 551 0110 9B18     		add	r3, r3, r2
 552 0112 9B00     		lsl	r3, r3, #2
 553 0114 021C     		add	r2, r0, #0
 554 0116 5A54     		strb	r2, [r3, r1]
 274:.\BLEclient.c **** 			/* Record the address type, Public or Random, of the advertising peripheral.*/
 275:.\BLEclient.c **** 			list_of_devices[addedDevices].peerAddrType = scanReport->peerAddrType;
 555              		.loc 1 275 0
 556 0118 5D4B     		ldr	r3, .L31
 557 011a 1B78     		ldrb	r3, [r3]
 558 011c 1A1C     		mov	r2, r3
 559 011e 7B68     		ldr	r3, [r7, #4]
 560 0120 5978     		ldrb	r1, [r3, #1]
 561 0122 5D48     		ldr	r0, .L31+8
 562 0124 131C     		mov	r3, r2
 563 0126 9B00     		lsl	r3, r3, #2
 564 0128 9B18     		add	r3, r3, r2
 565 012a 9B00     		lsl	r3, r3, #2
 566 012c C318     		add	r3, r0, r3
 567 012e 0A1C     		add	r2, r1, #0
 568 0130 5A70     		strb	r2, [r3, #1]
 276:.\BLEclient.c **** 			
 277:.\BLEclient.c **** 			/* Save the BD addresses */
 278:.\BLEclient.c **** 			list_of_devices[addedDevices].peerBdAddr[0] = scanReport->peerBdAddr[0];
 569              		.loc 1 278 0
 570 0132 574B     		ldr	r3, .L31
 571 0134 1B78     		ldrb	r3, [r3]
 572 0136 1A1C     		mov	r2, r3
 573 0138 5749     		ldr	r1, .L31+8
 574 013a 131C     		mov	r3, r2
 575 013c 9B00     		lsl	r3, r3, #2
 576 013e 9B18     		add	r3, r3, r2
 577 0140 9B00     		lsl	r3, r3, #2
 578 0142 CB18     		add	r3, r1, r3
 579 0144 5A68     		ldr	r2, [r3, #4]
 580 0146 7B68     		ldr	r3, [r7, #4]
 581 0148 5B68     		ldr	r3, [r3, #4]
 582 014a 1B78     		ldrb	r3, [r3]
 583 014c 1370     		strb	r3, [r2]
 279:.\BLEclient.c **** 			list_of_devices[addedDevices].peerBdAddr[1] = scanReport->peerBdAddr[1];
 584              		.loc 1 279 0
 585 014e 504B     		ldr	r3, .L31
 586 0150 1B78     		ldrb	r3, [r3]
 587 0152 1A1C     		mov	r2, r3
 588 0154 5049     		ldr	r1, .L31+8
ARM GAS  C:\Users\Zachary\AppData\Local\Temp\cclAdSE4.s 			page 17


 589 0156 131C     		mov	r3, r2
 590 0158 9B00     		lsl	r3, r3, #2
 591 015a 9B18     		add	r3, r3, r2
 592 015c 9B00     		lsl	r3, r3, #2
 593 015e CB18     		add	r3, r1, r3
 594 0160 5B68     		ldr	r3, [r3, #4]
 595 0162 5A1C     		add	r2, r3, #1
 596 0164 7B68     		ldr	r3, [r7, #4]
 597 0166 5B68     		ldr	r3, [r3, #4]
 598 0168 5B78     		ldrb	r3, [r3, #1]
 599 016a 1370     		strb	r3, [r2]
 280:.\BLEclient.c **** 			list_of_devices[addedDevices].peerBdAddr[2] = scanReport->peerBdAddr[2];
 600              		.loc 1 280 0
 601 016c 484B     		ldr	r3, .L31
 602 016e 1B78     		ldrb	r3, [r3]
 603 0170 1A1C     		mov	r2, r3
 604 0172 4949     		ldr	r1, .L31+8
 605 0174 131C     		mov	r3, r2
 606 0176 9B00     		lsl	r3, r3, #2
 607 0178 9B18     		add	r3, r3, r2
 608 017a 9B00     		lsl	r3, r3, #2
 609 017c CB18     		add	r3, r1, r3
 610 017e 5B68     		ldr	r3, [r3, #4]
 611 0180 9A1C     		add	r2, r3, #2
 612 0182 7B68     		ldr	r3, [r7, #4]
 613 0184 5B68     		ldr	r3, [r3, #4]
 614 0186 9B78     		ldrb	r3, [r3, #2]
 615 0188 1370     		strb	r3, [r2]
 281:.\BLEclient.c **** 			list_of_devices[addedDevices].peerBdAddr[3] = scanReport->peerBdAddr[3];
 616              		.loc 1 281 0
 617 018a 414B     		ldr	r3, .L31
 618 018c 1B78     		ldrb	r3, [r3]
 619 018e 1A1C     		mov	r2, r3
 620 0190 4149     		ldr	r1, .L31+8
 621 0192 131C     		mov	r3, r2
 622 0194 9B00     		lsl	r3, r3, #2
 623 0196 9B18     		add	r3, r3, r2
 624 0198 9B00     		lsl	r3, r3, #2
 625 019a CB18     		add	r3, r1, r3
 626 019c 5B68     		ldr	r3, [r3, #4]
 627 019e DA1C     		add	r2, r3, #3
 628 01a0 7B68     		ldr	r3, [r7, #4]
 629 01a2 5B68     		ldr	r3, [r3, #4]
 630 01a4 DB78     		ldrb	r3, [r3, #3]
 631 01a6 1370     		strb	r3, [r2]
 282:.\BLEclient.c **** 			list_of_devices[addedDevices].peerBdAddr[4] = scanReport->peerBdAddr[4];
 632              		.loc 1 282 0
 633 01a8 394B     		ldr	r3, .L31
 634 01aa 1B78     		ldrb	r3, [r3]
 635 01ac 1A1C     		mov	r2, r3
 636 01ae 3A49     		ldr	r1, .L31+8
 637 01b0 131C     		mov	r3, r2
 638 01b2 9B00     		lsl	r3, r3, #2
 639 01b4 9B18     		add	r3, r3, r2
 640 01b6 9B00     		lsl	r3, r3, #2
 641 01b8 CB18     		add	r3, r1, r3
 642 01ba 5B68     		ldr	r3, [r3, #4]
ARM GAS  C:\Users\Zachary\AppData\Local\Temp\cclAdSE4.s 			page 18


 643 01bc 1A1D     		add	r2, r3, #4
 644 01be 7B68     		ldr	r3, [r7, #4]
 645 01c0 5B68     		ldr	r3, [r3, #4]
 646 01c2 1B79     		ldrb	r3, [r3, #4]
 647 01c4 1370     		strb	r3, [r2]
 283:.\BLEclient.c **** 			list_of_devices[addedDevices].peerBdAddr[5] = scanReport->peerBdAddr[5];
 648              		.loc 1 283 0
 649 01c6 324B     		ldr	r3, .L31
 650 01c8 1B78     		ldrb	r3, [r3]
 651 01ca 1A1C     		mov	r2, r3
 652 01cc 3249     		ldr	r1, .L31+8
 653 01ce 131C     		mov	r3, r2
 654 01d0 9B00     		lsl	r3, r3, #2
 655 01d2 9B18     		add	r3, r3, r2
 656 01d4 9B00     		lsl	r3, r3, #2
 657 01d6 CB18     		add	r3, r1, r3
 658 01d8 5B68     		ldr	r3, [r3, #4]
 659 01da 5A1D     		add	r2, r3, #5
 660 01dc 7B68     		ldr	r3, [r7, #4]
 661 01de 5B68     		ldr	r3, [r3, #4]
 662 01e0 5B79     		ldrb	r3, [r3, #5]
 663 01e2 1370     		strb	r3, [r2]
 284:.\BLEclient.c **** 			
 285:.\BLEclient.c **** 			list_of_devices[addedDevices].rssi = scanReport->rssi;
 664              		.loc 1 285 0
 665 01e4 2A4B     		ldr	r3, .L31
 666 01e6 1B78     		ldrb	r3, [r3]
 667 01e8 1A1C     		mov	r2, r3
 668 01ea 7B68     		ldr	r3, [r7, #4]
 669 01ec 197C     		ldrb	r1, [r3, #16]
 670 01ee 2A48     		ldr	r0, .L31+8
 671 01f0 131C     		mov	r3, r2
 672 01f2 9B00     		lsl	r3, r3, #2
 673 01f4 9B18     		add	r3, r3, r2
 674 01f6 9B00     		lsl	r3, r3, #2
 675 01f8 C318     		add	r3, r0, r3
 676 01fa 1033     		add	r3, r3, #16
 677 01fc 0A1C     		add	r2, r1, #0
 678 01fe 1A70     		strb	r2, [r3]
 286:.\BLEclient.c **** 			
 287:.\BLEclient.c **** 			/* If the new BD address found matches the desired BD address, the Dongle has been found*/
 288:.\BLEclient.c **** 			if(FALSE == memcmp(peripheralAddress, scanReport->peerBdAddr, ADV_ADDR_LEN))
 679              		.loc 1 288 0
 680 0200 7B68     		ldr	r3, [r7, #4]
 681 0202 5B68     		ldr	r3, [r3, #4]
 682 0204 254A     		ldr	r2, .L31+12
 683 0206 101C     		mov	r0, r2
 684 0208 191C     		mov	r1, r3
 685 020a 0622     		mov	r2, #6
 686 020c FFF7FEFF 		bl	memcmp
 687 0210 031C     		mov	r3, r0
 688 0212 002B     		cmp	r3, #0
 689 0214 2ED1     		bne	.L30
 289:.\BLEclient.c **** 			{
 290:.\BLEclient.c **** 				/* Save the connected device BD Address and Type*/
 291:.\BLEclient.c **** 				connectPeriphDevice.bdAddr[0] = scanReport->peerBdAddr[0];
 690              		.loc 1 291 0
ARM GAS  C:\Users\Zachary\AppData\Local\Temp\cclAdSE4.s 			page 19


 691 0216 7B68     		ldr	r3, [r7, #4]
 692 0218 5B68     		ldr	r3, [r3, #4]
 693 021a 1A78     		ldrb	r2, [r3]
 694 021c 204B     		ldr	r3, .L31+16
 695 021e 1A70     		strb	r2, [r3]
 292:.\BLEclient.c **** 				connectPeriphDevice.bdAddr[1] = scanReport->peerBdAddr[1];
 696              		.loc 1 292 0
 697 0220 7B68     		ldr	r3, [r7, #4]
 698 0222 5B68     		ldr	r3, [r3, #4]
 699 0224 5A78     		ldrb	r2, [r3, #1]
 700 0226 1E4B     		ldr	r3, .L31+16
 701 0228 5A70     		strb	r2, [r3, #1]
 293:.\BLEclient.c **** 				connectPeriphDevice.bdAddr[2] = scanReport->peerBdAddr[2];
 702              		.loc 1 293 0
 703 022a 7B68     		ldr	r3, [r7, #4]
 704 022c 5B68     		ldr	r3, [r3, #4]
 705 022e 9A78     		ldrb	r2, [r3, #2]
 706 0230 1B4B     		ldr	r3, .L31+16
 707 0232 9A70     		strb	r2, [r3, #2]
 294:.\BLEclient.c **** 				connectPeriphDevice.bdAddr[3] = scanReport->peerBdAddr[3];
 708              		.loc 1 294 0
 709 0234 7B68     		ldr	r3, [r7, #4]
 710 0236 5B68     		ldr	r3, [r3, #4]
 711 0238 DA78     		ldrb	r2, [r3, #3]
 712 023a 194B     		ldr	r3, .L31+16
 713 023c DA70     		strb	r2, [r3, #3]
 295:.\BLEclient.c **** 				connectPeriphDevice.bdAddr[4] = scanReport->peerBdAddr[4];
 714              		.loc 1 295 0
 715 023e 7B68     		ldr	r3, [r7, #4]
 716 0240 5B68     		ldr	r3, [r3, #4]
 717 0242 1A79     		ldrb	r2, [r3, #4]
 718 0244 164B     		ldr	r3, .L31+16
 719 0246 1A71     		strb	r2, [r3, #4]
 296:.\BLEclient.c **** 				connectPeriphDevice.bdAddr[5] = scanReport->peerBdAddr[5];
 720              		.loc 1 296 0
 721 0248 7B68     		ldr	r3, [r7, #4]
 722 024a 5B68     		ldr	r3, [r3, #4]
 723 024c 5A79     		ldrb	r2, [r3, #5]
 724 024e 144B     		ldr	r3, .L31+16
 725 0250 5A71     		strb	r2, [r3, #5]
 297:.\BLEclient.c **** 				
 298:.\BLEclient.c **** 				connectPeriphDevice.type = list_of_devices[addedDevices].peerAddrType;
 726              		.loc 1 298 0
 727 0252 0F4B     		ldr	r3, .L31
 728 0254 1B78     		ldrb	r3, [r3]
 729 0256 1A1C     		mov	r2, r3
 730 0258 0F49     		ldr	r1, .L31+8
 731 025a 131C     		mov	r3, r2
 732 025c 9B00     		lsl	r3, r3, #2
 733 025e 9B18     		add	r3, r3, r2
 734 0260 9B00     		lsl	r3, r3, #2
 735 0262 CB18     		add	r3, r1, r3
 736 0264 5A78     		ldrb	r2, [r3, #1]
 737 0266 0E4B     		ldr	r3, .L31+16
 738 0268 9A71     		strb	r2, [r3, #6]
 299:.\BLEclient.c **** 					
 300:.\BLEclient.c **** 				/* Set the flag to notify application of a connected peripheral device */
ARM GAS  C:\Users\Zachary\AppData\Local\Temp\cclAdSE4.s 			page 20


 301:.\BLEclient.c **** 				peripheralFound = TRUE;	
 739              		.loc 1 301 0
 740 026a 0E4B     		ldr	r3, .L31+20
 741 026c 0122     		mov	r2, #1
 742 026e 1A70     		strb	r2, [r3]
 302:.\BLEclient.c **** 				
 303:.\BLEclient.c **** 				/* Stop existing BLE Scan */
 304:.\BLEclient.c **** 				CyBle_GapcStopScan();
 743              		.loc 1 304 0
 744 0270 FFF7FEFF 		bl	CyBle_GapcStopScan
 745              	.L30:
 305:.\BLEclient.c **** 			}
 306:.\BLEclient.c **** 			
 307:.\BLEclient.c **** 			addedDevices++;
 746              		.loc 1 307 0
 747 0274 064B     		ldr	r3, .L31
 748 0276 1B78     		ldrb	r3, [r3]
 749 0278 0133     		add	r3, r3, #1
 750 027a DAB2     		uxtb	r2, r3
 751 027c 044B     		ldr	r3, .L31
 752 027e 1A70     		strb	r2, [r3]
 753              	.L29:
 308:.\BLEclient.c **** 		}
 309:.\BLEclient.c **** 		
 310:.\BLEclient.c **** 		newDevice = TRUE;
 754              		.loc 1 310 0
 755 0280 3B1C     		mov	r3, r7
 756 0282 0D33     		add	r3, r3, #13
 757 0284 0122     		mov	r2, #1
 758 0286 1A70     		strb	r2, [r3]
 759              	.L23:
 311:.\BLEclient.c **** 	}
 312:.\BLEclient.c **** }
 760              		.loc 1 312 0
 761 0288 BD46     		mov	sp, r7
 762 028a 04B0     		add	sp, sp, #16
 763              		@ sp needed
 764 028c 80BD     		pop	{r7, pc}
 765              	.L32:
 766 028e C046     		.align	2
 767              	.L31:
 768 0290 00000000 		.word	addedDevices
 769 0294 00000000 		.word	address_store
 770 0298 00000000 		.word	list_of_devices
 771 029c 00000000 		.word	peripheralAddress
 772 02a0 00000000 		.word	connectPeriphDevice
 773 02a4 00000000 		.word	peripheralFound
 774              		.cfi_endproc
 775              	.LFE36:
 776              		.size	HandleScanDevices, .-HandleScanDevices
 777              		.section	.text.LoadPeripheralDeviceData,"ax",%progbits
 778              		.align	2
 779              		.global	LoadPeripheralDeviceData
 780              		.code	16
 781              		.thumb_func
 782              		.type	LoadPeripheralDeviceData, %function
 783              	LoadPeripheralDeviceData:
ARM GAS  C:\Users\Zachary\AppData\Local\Temp\cclAdSE4.s 			page 21


 784              	.LFB37:
 313:.\BLEclient.c **** 
 314:.\BLEclient.c **** 
 315:.\BLEclient.c **** /*******************************************************************************
 316:.\BLEclient.c **** * Function Name: LoadPeripheralDeviceData
 317:.\BLEclient.c **** ********************************************************************************
 318:.\BLEclient.c **** * Summary:
 319:.\BLEclient.c **** *        This function stores the address of the peripheral device to which this
 320:.\BLEclient.c **** * Central device wishes to connect. 
 321:.\BLEclient.c **** *
 322:.\BLEclient.c **** * Parameters:
 323:.\BLEclient.c **** *  void
 324:.\BLEclient.c **** *
 325:.\BLEclient.c **** * Return:
 326:.\BLEclient.c **** *  void
 327:.\BLEclient.c **** *
 328:.\BLEclient.c **** 
 329:.\BLEclient.c **** *******************************************************************************/
 330:.\BLEclient.c **** void LoadPeripheralDeviceData(void)
 331:.\BLEclient.c **** {
 785              		.loc 1 331 0
 786              		.cfi_startproc
 787 0000 80B5     		push	{r7, lr}
 788              		.cfi_def_cfa_offset 8
 789              		.cfi_offset 7, -8
 790              		.cfi_offset 14, -4
 791 0002 00AF     		add	r7, sp, #0
 792              		.cfi_def_cfa_register 7
 332:.\BLEclient.c **** 	/* This stores the 6-byte BD address of peripheral device to which we have to connect.
 333:.\BLEclient.c **** 	   In this project, we have peripheral (CySmart USB Dongle) with BD Address 0x00A050654325. 
 334:.\BLEclient.c **** 	   We write this address to the 6-byte array 'peripheralAddress'. This array is then  
 335:.\BLEclient.c **** 	   used to compare the addresses of the advertising peripherals. If one of the advertising 
 336:.\BLEclient.c **** 	   peripherals has the same address, then we know it is the device which we want to connect  
 337:.\BLEclient.c **** 	   and initiate a connection request to it.*/
 338:.\BLEclient.c **** 		peripheralAddress[5] = 0x00;
 793              		.loc 1 338 0
 794 0004 094B     		ldr	r3, .L34
 795 0006 0022     		mov	r2, #0
 796 0008 5A71     		strb	r2, [r3, #5]
 339:.\BLEclient.c **** 		peripheralAddress[4] = 0xA0;
 797              		.loc 1 339 0
 798 000a 084B     		ldr	r3, .L34
 799 000c A022     		mov	r2, #160
 800 000e 1A71     		strb	r2, [r3, #4]
 340:.\BLEclient.c **** 		peripheralAddress[3] = 0x50;
 801              		.loc 1 340 0
 802 0010 064B     		ldr	r3, .L34
 803 0012 5022     		mov	r2, #80
 804 0014 DA70     		strb	r2, [r3, #3]
 341:.\BLEclient.c **** 		peripheralAddress[2] = 0x00;
 805              		.loc 1 341 0
 806 0016 054B     		ldr	r3, .L34
 807 0018 0022     		mov	r2, #0
 808 001a 9A70     		strb	r2, [r3, #2]
 342:.\BLEclient.c **** 		peripheralAddress[1] = 0x67;
 809              		.loc 1 342 0
 810 001c 034B     		ldr	r3, .L34
ARM GAS  C:\Users\Zachary\AppData\Local\Temp\cclAdSE4.s 			page 22


 811 001e 6722     		mov	r2, #103
 812 0020 5A70     		strb	r2, [r3, #1]
 343:.\BLEclient.c **** 		peripheralAddress[0] = 0x95;
 813              		.loc 1 343 0
 814 0022 024B     		ldr	r3, .L34
 815 0024 9522     		mov	r2, #149
 816 0026 1A70     		strb	r2, [r3]
 344:.\BLEclient.c **** }
 817              		.loc 1 344 0
 818 0028 BD46     		mov	sp, r7
 819              		@ sp needed
 820 002a 80BD     		pop	{r7, pc}
 821              	.L35:
 822              		.align	2
 823              	.L34:
 824 002c 00000000 		.word	peripheralAddress
 825              		.cfi_endproc
 826              	.LFE37:
 827              		.size	LoadPeripheralDeviceData, .-LoadPeripheralDeviceData
 828              		.text
 829              	.Letext0:
 830              		.file 2 ".\\Generated_Source\\PSoC4/cytypes.h"
 831              		.file 3 ".\\Generated_Source\\PSoC4/BLE_Stack.h"
 832              		.file 4 ".\\Generated_Source\\PSoC4/BLE_StackGap.h"
 833              		.file 5 ".\\Generated_Source\\PSoC4/BLE_StackGatt.h"
 834              		.file 6 ".\\Generated_Source\\PSoC4/BLE_eventHandler.h"