ARM GAS  C:\Users\Zachary\AppData\Local\Temp\ccKYKRmH.s 			page 1


   1              		.cpu cortex-m0
   2              		.fpu softvfp
   3              		.eabi_attribute 20, 1
   4              		.eabi_attribute 21, 1
   5              		.eabi_attribute 23, 3
   6              		.eabi_attribute 24, 1
   7              		.eabi_attribute 25, 1
   8              		.eabi_attribute 26, 1
   9              		.eabi_attribute 30, 6
  10              		.eabi_attribute 34, 0
  11              		.eabi_attribute 18, 4
  12              		.code	16
  13              		.file	"HandleLowPower.c"
  14              		.text
  15              	.Ltext0:
  16              		.cfi_sections	.debug_frame
  17              		.section	.text.HandleLowPowerMode,"ax",%progbits
  18              		.align	2
  19              		.global	HandleLowPowerMode
  20              		.code	16
  21              		.thumb_func
  22              		.type	HandleLowPowerMode, %function
  23              	HandleLowPowerMode:
  24              	.LFB35:
  25              		.file 1 ".\\HandleLowPower.c"
   1:.\HandleLowPower.c **** /******************************************************************************
   2:.\HandleLowPower.c **** * Project Name		: PSoC_4_BLE_Central_IAS
   3:.\HandleLowPower.c **** * File Name			: HandleLowPower.c
   4:.\HandleLowPower.c **** * Version 			: 1.0
   5:.\HandleLowPower.c **** * Device Used		: CY8C4247LQI-BL483
   6:.\HandleLowPower.c **** * Software Used		: PSoC Creator 3.1
   7:.\HandleLowPower.c **** * Compiler    		: ARM GCC 4.8.4, ARM RVDS Generic, ARM MDK Generic
   8:.\HandleLowPower.c **** * Related Hardware	: CY8CKIT-042-BLE Bluetooth Low Energy Pioneer Kit 
   9:.\HandleLowPower.c **** * Owner				: ROIT
  10:.\HandleLowPower.c **** *
  11:.\HandleLowPower.c **** ********************************************************************************
  12:.\HandleLowPower.c **** * Copyright (2014-15), Cypress Semiconductor Corporation. All Rights Reserved.
  13:.\HandleLowPower.c **** ********************************************************************************
  14:.\HandleLowPower.c **** * This software is owned by Cypress Semiconductor Corporation (Cypress)
  15:.\HandleLowPower.c **** * and is protected by and subject to worldwide patent protection (United
  16:.\HandleLowPower.c **** * States and foreign), United States copyright laws and international treaty
  17:.\HandleLowPower.c **** * provisions. Cypress hereby grants to licensee a personal, non-exclusive,
  18:.\HandleLowPower.c **** * non-transferable license to copy, use, modify, create derivative works of,
  19:.\HandleLowPower.c **** * and compile the Cypress Source Code and derivative works for the sole
  20:.\HandleLowPower.c **** * purpose of creating custom software in support of licensee product to be
  21:.\HandleLowPower.c **** * used only in conjunction with a Cypress integrated circuit as specified in
  22:.\HandleLowPower.c **** * the applicable agreement. Any reproduction, modification, translation,
  23:.\HandleLowPower.c **** * compilation, or representation of this software except as specified above 
  24:.\HandleLowPower.c **** * is prohibited without the express written permission of Cypress.
  25:.\HandleLowPower.c **** *
  26:.\HandleLowPower.c **** * Disclaimer: CYPRESS MAKES NO WARRANTY OF ANY KIND, EXPRESS OR IMPLIED, WITH 
  27:.\HandleLowPower.c **** * REGARD TO THIS MATERIAL, INCLUDING, BUT NOT LIMITED TO, THE IMPLIED 
  28:.\HandleLowPower.c **** * WARRANTIES OF MERCHANTABILITY AND FITNESS FOR A PARTICULAR PURPOSE.
  29:.\HandleLowPower.c **** * Cypress reserves the right to make changes without further notice to the 
  30:.\HandleLowPower.c **** * materials described herein. Cypress does not assume any liability arising out 
  31:.\HandleLowPower.c **** * of the application or use of any product or circuit described herein. Cypress 
  32:.\HandleLowPower.c **** * does not authorize its products for use as critical components in life-support 
ARM GAS  C:\Users\Zachary\AppData\Local\Temp\ccKYKRmH.s 			page 2


  33:.\HandleLowPower.c **** * systems where a malfunction or failure may reasonably be expected to result in 
  34:.\HandleLowPower.c **** * significant injury to the user. The inclusion of Cypress' product in a life-
  35:.\HandleLowPower.c **** * support systems application implies that the manufacturer assumes all risk of 
  36:.\HandleLowPower.c **** * such use and in doing so indemnifies Cypress against all charges. 
  37:.\HandleLowPower.c **** *
  38:.\HandleLowPower.c **** * Use of this Software may be limited by and subject to the applicable Cypress
  39:.\HandleLowPower.c **** * software license agreement. 
  40:.\HandleLowPower.c **** *******************************************************************************/
  41:.\HandleLowPower.c **** /******************************************************************************
  42:.\HandleLowPower.c **** * Contains the function for handling Low power mode (Deep Sleep/Sleep) in 
  43:.\HandleLowPower.c **** * firmware.
  44:.\HandleLowPower.c **** ******************************************************************************/
  45:.\HandleLowPower.c **** #include <main.h>
  46:.\HandleLowPower.c **** 
  47:.\HandleLowPower.c **** /*******************************************************************************
  48:.\HandleLowPower.c **** * Function Name: HandleLowPowerMode
  49:.\HandleLowPower.c **** ********************************************************************************
  50:.\HandleLowPower.c **** * Summary:
  51:.\HandleLowPower.c **** *        This function puts the BLESS and CPU in deep sleep mode depending on BLE
  52:.\HandleLowPower.c **** * state. If the BLESS or CPU cannot go to Deep Sleep, then CPU is put to Sleep.
  53:.\HandleLowPower.c **** * System wakesup from interrupt generated by either BLESS Link Layer or User  
  54:.\HandleLowPower.c **** * Button press.
  55:.\HandleLowPower.c **** *
  56:.\HandleLowPower.c **** * Parameters:
  57:.\HandleLowPower.c **** *  void
  58:.\HandleLowPower.c **** *
  59:.\HandleLowPower.c **** * Return:
  60:.\HandleLowPower.c **** *  void
  61:.\HandleLowPower.c **** *
  62:.\HandleLowPower.c **** *******************************************************************************/
  63:.\HandleLowPower.c **** void HandleLowPowerMode(void)
  64:.\HandleLowPower.c **** {
  26              		.loc 1 64 0
  27              		.cfi_startproc
  28 0000 90B5     		push	{r4, r7, lr}
  29              		.cfi_def_cfa_offset 12
  30              		.cfi_offset 4, -12
  31              		.cfi_offset 7, -8
  32              		.cfi_offset 14, -4
  33 0002 83B0     		sub	sp, sp, #12
  34              		.cfi_def_cfa_offset 24
  35 0004 00AF     		add	r7, sp, #0
  36              		.cfi_def_cfa_register 7
  65:.\HandleLowPower.c **** 	#ifdef ENABLE_LOW_POWER_MODE
  66:.\HandleLowPower.c **** 		/* Local variable to store the status of BLESS Hardware block */
  67:.\HandleLowPower.c **** 		CYBLE_LP_MODE_T sleepMode;
  68:.\HandleLowPower.c **** 		CYBLE_BLESS_STATE_T blessState;
  69:.\HandleLowPower.c **** 		
  70:.\HandleLowPower.c **** 		/* Put BLESS into Deep Sleep and check the return status */
  71:.\HandleLowPower.c **** 		sleepMode = CyBle_EnterLPM(CYBLE_BLESS_DEEPSLEEP);
  37              		.loc 1 71 0
  38 0006 FC1D     		add	r4, r7, #7
  39 0008 0320     		mov	r0, #3
  40 000a FFF7FEFF 		bl	CyBle_EnterLPM
  41 000e 031C     		mov	r3, r0
  42 0010 2370     		strb	r3, [r4]
  72:.\HandleLowPower.c **** 		
ARM GAS  C:\Users\Zachary\AppData\Local\Temp\ccKYKRmH.s 			page 3


  73:.\HandleLowPower.c **** 		/* Disable global interrupt to prevent changes from any other interrupt ISR */
  74:.\HandleLowPower.c **** 		CyGlobalIntDisable;
  43              		.loc 1 74 0
  44              	@ 74 ".\HandleLowPower.c" 1
  45 0012 72B6     		CPSID   i
  46              	@ 0 "" 2
  75:.\HandleLowPower.c **** 	
  76:.\HandleLowPower.c **** 		/* Check the Status of BLESS */
  77:.\HandleLowPower.c **** 		blessState = CyBle_GetBleSsState();
  47              		.loc 1 77 0
  48              		.code	16
  49 0014 BC1D     		add	r4, r7, #6
  50 0016 FFF7FEFF 		bl	CyBle_GetBleSsState
  51 001a 031C     		mov	r3, r0
  52 001c 2370     		strb	r3, [r4]
  78:.\HandleLowPower.c **** 
  79:.\HandleLowPower.c **** 		if(sleepMode == CYBLE_BLESS_DEEPSLEEP)
  53              		.loc 1 79 0
  54 001e FB1D     		add	r3, r7, #7
  55 0020 1B78     		ldrb	r3, [r3]
  56 0022 032B     		cmp	r3, #3
  57 0024 0AD1     		bne	.L2
  80:.\HandleLowPower.c **** 		{
  81:.\HandleLowPower.c **** 		    /* If the ECO has started or the BLESS can go to Deep Sleep, then place CPU 
  82:.\HandleLowPower.c **** 			* to Deep Sleep */
  83:.\HandleLowPower.c **** 			if(blessState == CYBLE_BLESS_STATE_ECO_ON || blessState == CYBLE_BLESS_STATE_DEEPSLEEP)
  58              		.loc 1 83 0
  59 0026 BB1D     		add	r3, r7, #6
  60 0028 1B78     		ldrb	r3, [r3]
  61 002a 042B     		cmp	r3, #4
  62 002c 03D0     		beq	.L3
  63              		.loc 1 83 0 is_stmt 0 discriminator 1
  64 002e BB1D     		add	r3, r7, #6
  65 0030 1B78     		ldrb	r3, [r3]
  66 0032 062B     		cmp	r3, #6
  67 0034 08D1     		bne	.L5
  68              	.L3:
  84:.\HandleLowPower.c **** 		    {
  85:.\HandleLowPower.c **** 		        CySysPmDeepSleep();
  69              		.loc 1 85 0 is_stmt 1
  70 0036 FFF7FEFF 		bl	CySysPmDeepSleep
  71 003a 05E0     		b	.L5
  72              	.L2:
  86:.\HandleLowPower.c **** 		 	}
  87:.\HandleLowPower.c **** 		}
  88:.\HandleLowPower.c **** 		else
  89:.\HandleLowPower.c **** 		{
  90:.\HandleLowPower.c **** 		    if(blessState != CYBLE_BLESS_STATE_EVENT_CLOSE)
  73              		.loc 1 90 0
  74 003c BB1D     		add	r3, r7, #6
  75 003e 1B78     		ldrb	r3, [r3]
  76 0040 022B     		cmp	r3, #2
  77 0042 01D0     		beq	.L5
  91:.\HandleLowPower.c **** 		    {
  92:.\HandleLowPower.c **** 				/* If the BLESS hardware block cannot go to Deep Sleep and BLE Event has not 
  93:.\HandleLowPower.c **** 				* closed yet, then place CPU to Sleep */
  94:.\HandleLowPower.c **** 		        CySysPmSleep();
ARM GAS  C:\Users\Zachary\AppData\Local\Temp\ccKYKRmH.s 			page 4


  78              		.loc 1 94 0
  79 0044 FFF7FEFF 		bl	CySysPmSleep
  80              	.L5:
  95:.\HandleLowPower.c **** 		    }
  96:.\HandleLowPower.c **** 		}
  97:.\HandleLowPower.c **** 		/* Re-enable global interrupt mask after wakeup */
  98:.\HandleLowPower.c **** 		CyGlobalIntEnable;
  81              		.loc 1 98 0
  82              	@ 98 ".\HandleLowPower.c" 1
  83 0048 62B6     		CPSIE   i
  84              	@ 0 "" 2
  99:.\HandleLowPower.c **** 		
 100:.\HandleLowPower.c **** 	#endif
 101:.\HandleLowPower.c **** }
  85              		.loc 1 101 0
  86              		.code	16
  87 004a BD46     		mov	sp, r7
  88 004c 03B0     		add	sp, sp, #12
  89              		@ sp needed
  90 004e 90BD     		pop	{r4, r7, pc}
  91              		.cfi_endproc
  92              	.LFE35:
  93              		.size	HandleLowPowerMode, .-HandleLowPowerMode
  94              		.section	.text.MyISR,"ax",%progbits
  95              		.align	2
  96              		.global	MyISR
  97              		.code	16
  98              		.thumb_func
  99              		.type	MyISR, %function
 100              	MyISR:
 101              	.LFB36:
 102:.\HandleLowPower.c **** 
 103:.\HandleLowPower.c **** /*******************************************************************************
 104:.\HandleLowPower.c **** * Function Name: MyISR
 105:.\HandleLowPower.c **** ********************************************************************************
 106:.\HandleLowPower.c **** * Summary:
 107:.\HandleLowPower.c **** *        ISR routine for isr_button. System enters here after CPU wakeup from 
 108:.\HandleLowPower.c **** * User Button press. Clears pending interrupt.
 109:.\HandleLowPower.c **** *
 110:.\HandleLowPower.c **** * Parameters:
 111:.\HandleLowPower.c **** *  void
 112:.\HandleLowPower.c **** *
 113:.\HandleLowPower.c **** * Return:
 114:.\HandleLowPower.c **** *  void
 115:.\HandleLowPower.c **** *
 116:.\HandleLowPower.c **** *******************************************************************************/
 117:.\HandleLowPower.c **** void MyISR(void)
 118:.\HandleLowPower.c **** {
 102              		.loc 1 118 0
 103              		.cfi_startproc
 104 0000 80B5     		push	{r7, lr}
 105              		.cfi_def_cfa_offset 8
 106              		.cfi_offset 7, -8
 107              		.cfi_offset 14, -4
 108 0002 00AF     		add	r7, sp, #0
 109              		.cfi_def_cfa_register 7
 119:.\HandleLowPower.c **** 	/* Clear Pending interrupts */
ARM GAS  C:\Users\Zachary\AppData\Local\Temp\ccKYKRmH.s 			page 5


 120:.\HandleLowPower.c **** 	isr_button_ClearPending();
 110              		.loc 1 120 0
 111 0004 FFF7FEFF 		bl	isr_button_ClearPending
 121:.\HandleLowPower.c **** 	
 122:.\HandleLowPower.c **** 	User_Button_ClearInterrupt();
 112              		.loc 1 122 0
 113 0008 FFF7FEFF 		bl	User_Button_ClearInterrupt
 123:.\HandleLowPower.c **** }
 114              		.loc 1 123 0
 115 000c BD46     		mov	sp, r7
 116              		@ sp needed
 117 000e 80BD     		pop	{r7, pc}
 118              		.cfi_endproc
 119              	.LFE36:
 120              		.size	MyISR, .-MyISR
 121              		.text
 122              	.Letext0:
 123              		.file 2 ".\\Generated_Source\\PSoC4/BLE_Stack.h"