ARM GAS  C:\Users\Zachary\AppData\Local\Temp\ccpWE7YK.s 			page 1


   1              		.cpu cortex-m0
   2              		.fpu softvfp
   3              		.eabi_attribute 20, 1
   4              		.eabi_attribute 21, 1
   5              		.eabi_attribute 23, 3
   6              		.eabi_attribute 24, 1
   7              		.eabi_attribute 25, 1
   8              		.eabi_attribute 26, 1
   9              		.eabi_attribute 30, 6
  10              		.eabi_attribute 34, 0
  11              		.eabi_attribute 18, 4
  12              		.code	16
  13              		.file	"main.c"
  14              		.text
  15              	.Ltext0:
  16              		.cfi_sections	.debug_frame
  17              		.section	.text.main,"ax",%progbits
  18              		.align	2
  19              		.global	main
  20              		.code	16
  21              		.thumb_func
  22              		.type	main, %function
  23              	main:
  24              	.LFB35:
  25              		.file 1 ".\\main.c"
   1:.\main.c      **** /******************************************************************************
   2:.\main.c      **** * Project Name		: PSoC_4_BLE_Central_IAS
   3:.\main.c      **** * File Name			: main.c
   4:.\main.c      **** * Version 			: 1.0
   5:.\main.c      **** * Device Used		: CY8C4247LQI-BL483
   6:.\main.c      **** * Software Used		: PSoC Creator 3.1
   7:.\main.c      **** * Compiler    		: ARM GCC 4.8.4, ARM RVDS Generic, ARM MDK Generic
   8:.\main.c      **** * Related Hardware	: CY8CKIT-042-BLE Bluetooth Low Energy Pioneer Kit 
   9:.\main.c      **** * Owner				: ROIT
  10:.\main.c      **** *
  11:.\main.c      **** ********************************************************************************
  12:.\main.c      **** * Copyright (2014-15), Cypress Semiconductor Corporation. All Rights Reserved.
  13:.\main.c      **** ********************************************************************************
  14:.\main.c      **** * This software is owned by Cypress Semiconductor Corporation (Cypress)
  15:.\main.c      **** * and is protected by and subject to worldwide patent protection (United
  16:.\main.c      **** * States and foreign), United States copyright laws and international treaty
  17:.\main.c      **** * provisions. Cypress hereby grants to licensee a personal, non-exclusive,
  18:.\main.c      **** * non-transferable license to copy, use, modify, create derivative works of,
  19:.\main.c      **** * and compile the Cypress Source Code and derivative works for the sole
  20:.\main.c      **** * purpose of creating custom software in support of licensee product to be
  21:.\main.c      **** * used only in conjunction with a Cypress integrated circuit as specified in
  22:.\main.c      **** * the applicable agreement. Any reproduction, modification, translation,
  23:.\main.c      **** * compilation, or representation of this software except as specified above 
  24:.\main.c      **** * is prohibited without the express written permission of Cypress.
  25:.\main.c      **** *
  26:.\main.c      **** * Disclaimer: CYPRESS MAKES NO WARRANTY OF ANY KIND, EXPRESS OR IMPLIED, WITH 
  27:.\main.c      **** * REGARD TO THIS MATERIAL, INCLUDING, BUT NOT LIMITED TO, THE IMPLIED 
  28:.\main.c      **** * WARRANTIES OF MERCHANTABILITY AND FITNESS FOR A PARTICULAR PURPOSE.
  29:.\main.c      **** * Cypress reserves the right to make changes without further notice to the 
  30:.\main.c      **** * materials described herein. Cypress does not assume any liability arising out 
  31:.\main.c      **** * of the application or use of any product or circuit described herein. Cypress 
  32:.\main.c      **** * does not authorize its products for use as critical components in life-support 
ARM GAS  C:\Users\Zachary\AppData\Local\Temp\ccpWE7YK.s 			page 2


  33:.\main.c      **** * systems where a malfunction or failure may reasonably be expected to result in 
  34:.\main.c      **** * significant injury to the user. The inclusion of Cypress' product in a life-
  35:.\main.c      **** * support systems application implies that the manufacturer assumes all risk of 
  36:.\main.c      **** * such use and in doing so indemnifies Cypress against all charges. 
  37:.\main.c      **** *
  38:.\main.c      **** * Use of this Software may be limited by and subject to the applicable Cypress
  39:.\main.c      **** * software license agreement. 
  40:.\main.c      **** *******************************************************************************/
  41:.\main.c      **** 
  42:.\main.c      **** /******************************************************************************
  43:.\main.c      **** *                           THEORY OF OPERATION
  44:.\main.c      **** *******************************************************************************
  45:.\main.c      **** * The project will showcase the capability of PSoC 4 BLE to act as BLE Central
  46:.\main.c      **** * device and communicate with a BLE Peripheral device. The example 
  47:.\main.c      **** * demonstrated is a BLE application called as Find Me. Here, the BLE Pioneer kit,
  48:.\main.c      **** * programmed with this firmware, acts as Find Me Collector. CySmart USB Dongle, 
  49:.\main.c      **** * which is programmed with the BLE_Dongle_Peripheral_IAS, acts as a Find Me 
  50:.\main.c      **** * Reporter. 
  51:.\main.c      **** * This Central project support low power mode, which allows low power current 
  52:.\main.c      **** * consumption possible for this application. The BLE central project goes to deep 
  53:.\main.c      **** * sleep during scanning timeout or disconnection and can be woken up using 
  54:.\main.c      **** * the User Button. During connection, the firmware pushes the system to deep 
  55:.\main.c      **** * sleep whenever possible. If BLE_Dongle_Peripheral_IAS is advertising, then this 
  56:.\main.c      **** * project connects to it automatically. 
  57:.\main.c      **** * After the two devices are connected, the Push Button on the BLE Pioneer kit 
  58:.\main.c      **** * will switch the Alert level between No, Mid and High Alert on CySmart USB Dongle,
  59:.\main.c      **** * which is demonstrated by the different mode of lighting LED.
  60:.\main.c      **** *
  61:.\main.c      **** * Note: Though this project has Deep Sleep mode implemented allowing very low power 
  62:.\main.c      **** * consumption, the BLE scanning process consists of radio RX activity and thus
  63:.\main.c      **** * consumes considerably more current. 
  64:.\main.c      **** 
  65:.\main.c      **** * The programming pins have been configured as GPIO, and not SWD. This is because 
  66:.\main.c      **** * when programming pins are configured for SWD, then the silicon consumes extra
  67:.\main.c      **** * power through the pins. To prevent the leakage of power, the pins have been set 
  68:.\main.c      **** * to GPIO. With this setting, the kit can still be acquired by PSoC Creator or
  69:.\main.c      **** * PSoC Programmer software tools for programming, but the project cannot be 
  70:.\main.c      **** * externally debugged. To re-enable debugging, go to PSoC_4_BLE_Central_IAS.cydwr from
  71:.\main.c      **** * Workspace Explorer, go to Systems tab, and set the Debug Select option to 'SWD'.
  72:.\main.c      **** * Build and program this project to enable external Debugging.
  73:.\main.c      **** *
  74:.\main.c      **** * Refer to BLE Pioneer Kit user guide for details.
  75:.\main.c      **** *******************************************************************************
  76:.\main.c      **** * Hardware connection required for testing -
  77:.\main.c      **** * Status LED- P3[7] (Hard-wired on the BLE Pioneer kit)
  78:.\main.c      **** * User Button- P2[7] (hard-wired in the BLE Pioneer kit)
  79:.\main.c      **** ******************************************************************************/
  80:.\main.c      **** #include <main.h>
  81:.\main.c      **** 
  82:.\main.c      **** /* 'ble_state' stores the state of connection which is used for updating LEDs */
  83:.\main.c      **** extern uint8 					ble_state ;
  84:.\main.c      **** 
  85:.\main.c      **** /* 'deviceConnected' flag tells the status of connection with BLE peripheral Device */
  86:.\main.c      **** extern uint8 					deviceConnected;
  87:.\main.c      **** 
  88:.\main.c      **** /* 'connectPeriphDevice' is a variable of type 'CYBLE_GAP_BD_ADDR_T' (defined in 
  89:.\main.c      **** * BLE_StackGap.h) and is used to store address of the connected device. */
ARM GAS  C:\Users\Zachary\AppData\Local\Temp\ccpWE7YK.s 			page 3


  90:.\main.c      **** extern CYBLE_GAP_BD_ADDR_T connectPeriphDevice;
  91:.\main.c      **** 
  92:.\main.c      **** /* 'peripheralAddress' stores the addresses of device presently connected to */
  93:.\main.c      **** extern uint8 peripheralFound;
  94:.\main.c      **** 
  95:.\main.c      **** extern uint8 restartScanning;
  96:.\main.c      **** /*******************************************************************************
  97:.\main.c      **** * Function Name: main
  98:.\main.c      **** ********************************************************************************
  99:.\main.c      **** * Summary:
 100:.\main.c      **** *        System entrance point. This calls the BLE routine functions as well as
 101:.\main.c      **** * function for sending Immediate Alert level notifications and handling low power
 102:.\main.c      **** * mode.
 103:.\main.c      **** *
 104:.\main.c      **** * Parameters:
 105:.\main.c      **** *  void
 106:.\main.c      **** *
 107:.\main.c      **** * Return:
 108:.\main.c      **** *  int
 109:.\main.c      **** *
 110:.\main.c      **** 
 111:.\main.c      **** *******************************************************************************/
 112:.\main.c      **** int main()
 113:.\main.c      **** {
  26              		.loc 1 113 0
  27              		.cfi_startproc
  28 0000 80B5     		push	{r7, lr}
  29              		.cfi_def_cfa_offset 8
  30              		.cfi_offset 7, -8
  31              		.cfi_offset 14, -4
  32 0002 00AF     		add	r7, sp, #0
  33              		.cfi_def_cfa_register 7
 114:.\main.c      ****     /* Initialize the system */
 115:.\main.c      **** 	InitializeSystem();
  34              		.loc 1 115 0
  35 0004 FFF7FEFF 		bl	InitializeSystem
  36              	.L5:
 116:.\main.c      **** 	
 117:.\main.c      ****     for(;;)
 118:.\main.c      ****     {
 119:.\main.c      ****         /*Process Event callback to handle BLE events. The events generated and 
 120:.\main.c      **** 		* used for this application are inside the 'ApplicationEventHandler' routine */
 121:.\main.c      **** 		CyBle_ProcessEvents();
  37              		.loc 1 121 0
  38 0008 FFF7FEFF 		bl	CyBle_ProcessEvents
 122:.\main.c      **** 		
 123:.\main.c      **** 		/* Handle BLE Status LED */
 124:.\main.c      **** 		HandleLEDs(ble_state);
  39              		.loc 1 124 0
  40 000c 134B     		ldr	r3, .L6
  41 000e 1B78     		ldrb	r3, [r3]
  42 0010 181C     		mov	r0, r3
  43 0012 FFF7FEFF 		bl	HandleLEDs
 125:.\main.c      **** 		
 126:.\main.c      **** 		if(peripheralFound)
  44              		.loc 1 126 0
  45 0016 124B     		ldr	r3, .L6+4
ARM GAS  C:\Users\Zachary\AppData\Local\Temp\ccpWE7YK.s 			page 4


  46 0018 1B78     		ldrb	r3, [r3]
  47 001a 002B     		cmp	r3, #0
  48 001c 08D0     		beq	.L2
 127:.\main.c      **** 		{
 128:.\main.c      **** 			/* If the desired peripheral is found, then connect to that peripheral */
 129:.\main.c      **** 			CyBle_GapcConnectDevice(&connectPeriphDevice);
  49              		.loc 1 129 0
  50 001e 114B     		ldr	r3, .L6+8
  51 0020 181C     		mov	r0, r3
  52 0022 FFF7FEFF 		bl	CyBle_GapcConnectDevice
 130:.\main.c      **** 			
 131:.\main.c      **** 			/* Call CyBle_ProcessEvents() once to process the Connect request sent above. */
 132:.\main.c      **** 			CyBle_ProcessEvents();
  53              		.loc 1 132 0
  54 0026 FFF7FEFF 		bl	CyBle_ProcessEvents
 133:.\main.c      **** 		
 134:.\main.c      **** 			/* Reset flag to prevent resending the Connect command */
 135:.\main.c      **** 			peripheralFound = FALSE;
  55              		.loc 1 135 0
  56 002a 0D4B     		ldr	r3, .L6+4
  57 002c 0022     		mov	r2, #0
  58 002e 1A70     		strb	r2, [r3]
  59              	.L2:
 136:.\main.c      **** 		}
 137:.\main.c      **** 			
 138:.\main.c      **** 		if(deviceConnected)
  60              		.loc 1 138 0
  61 0030 0D4B     		ldr	r3, .L6+12
  62 0032 1B78     		ldrb	r3, [r3]
  63 0034 002B     		cmp	r3, #0
  64 0036 01D0     		beq	.L3
 139:.\main.c      **** 		{
 140:.\main.c      **** 			/* Check if the button was pressed and update the Alert Level Accordingly.*/
 141:.\main.c      **** 			CheckButtonStatus();	
  65              		.loc 1 141 0
  66 0038 FFF7FEFF 		bl	CheckButtonStatus
  67              	.L3:
 142:.\main.c      **** 		}
 143:.\main.c      **** 		
 144:.\main.c      **** 		#ifdef ENABLE_LOW_POWER_MODE
 145:.\main.c      **** 			/* Call CyBle_ProcessEvents to process all events before going to sleep. */
 146:.\main.c      **** 			CyBle_ProcessEvents();
  68              		.loc 1 146 0
  69 003c FFF7FEFF 		bl	CyBle_ProcessEvents
 147:.\main.c      **** 		
 148:.\main.c      **** 			/* Put the system in Low power mode */
 149:.\main.c      **** 			HandleLowPowerMode();
  70              		.loc 1 149 0
  71 0040 FFF7FEFF 		bl	HandleLowPowerMode
 150:.\main.c      **** 		#endif
 151:.\main.c      **** 		
 152:.\main.c      **** 		/* If rescanning flag is TRUE, the restart the scan */
 153:.\main.c      **** 		if(restartScanning)
  72              		.loc 1 153 0
  73 0044 094B     		ldr	r3, .L6+16
  74 0046 1B78     		ldrb	r3, [r3]
  75 0048 002B     		cmp	r3, #0
ARM GAS  C:\Users\Zachary\AppData\Local\Temp\ccpWE7YK.s 			page 5


  76 004a 06D0     		beq	.L4
 154:.\main.c      **** 		{
 155:.\main.c      **** 			/* Reset flag to prevent calling multiple Start Scan commands */
 156:.\main.c      **** 			restartScanning = FALSE;
  77              		.loc 1 156 0
  78 004c 074B     		ldr	r3, .L6+16
  79 004e 0022     		mov	r2, #0
  80 0050 1A70     		strb	r2, [r3]
 157:.\main.c      **** 			
 158:.\main.c      **** 			/* Start Fast BLE Scanning. This API will only take effect after calling
 159:.\main.c      **** 			* CyBle_ProcessEvents()*/
 160:.\main.c      **** 			CyBle_GapcStartScan(CYBLE_SCANNING_FAST);
  81              		.loc 1 160 0
  82 0052 0020     		mov	r0, #0
  83 0054 FFF7FEFF 		bl	CyBle_GapcStartScan
 161:.\main.c      **** 		}
 162:.\main.c      **** 	}
  84              		.loc 1 162 0
  85 0058 D6E7     		b	.L5
  86              	.L4:
  87 005a D5E7     		b	.L5
  88              	.L7:
  89              		.align	2
  90              	.L6:
  91 005c 00000000 		.word	ble_state
  92 0060 00000000 		.word	peripheralFound
  93 0064 00000000 		.word	connectPeriphDevice
  94 0068 00000000 		.word	deviceConnected
  95 006c 00000000 		.word	restartScanning
  96              		.cfi_endproc
  97              	.LFE35:
  98              		.size	main, .-main
  99              		.section	.text.InitializeSystem,"ax",%progbits
 100              		.align	2
 101              		.global	InitializeSystem
 102              		.code	16
 103              		.thumb_func
 104              		.type	InitializeSystem, %function
 105              	InitializeSystem:
 106              	.LFB36:
 163:.\main.c      **** }
 164:.\main.c      **** 
 165:.\main.c      **** /*******************************************************************************
 166:.\main.c      **** * Function Name: InitializeSystem
 167:.\main.c      **** ********************************************************************************
 168:.\main.c      **** * Summary:
 169:.\main.c      **** *        This function starts and initializes the components involved in the 
 170:.\main.c      **** * system
 171:.\main.c      **** *
 172:.\main.c      **** * Parameters:
 173:.\main.c      **** *  void
 174:.\main.c      **** *
 175:.\main.c      **** * Return:
 176:.\main.c      **** *  void
 177:.\main.c      **** *
 178:.\main.c      **** 
 179:.\main.c      **** *******************************************************************************/
ARM GAS  C:\Users\Zachary\AppData\Local\Temp\ccpWE7YK.s 			page 6


 180:.\main.c      **** void InitializeSystem(void)
 181:.\main.c      **** {
 107              		.loc 1 181 0
 108              		.cfi_startproc
 109 0000 80B5     		push	{r7, lr}
 110              		.cfi_def_cfa_offset 8
 111              		.cfi_offset 7, -8
 112              		.cfi_offset 14, -4
 113 0002 00AF     		add	r7, sp, #0
 114              		.cfi_def_cfa_register 7
 182:.\main.c      **** 	/* Enable global interrupts. */
 183:.\main.c      **** 	CyGlobalIntEnable; 
 115              		.loc 1 183 0
 116              	@ 183 ".\main.c" 1
 117 0004 62B6     		CPSIE   i
 118              	@ 0 "" 2
 184:.\main.c      **** 	
 185:.\main.c      **** 	/* Start BLE component with appropriate Event handler function */
 186:.\main.c      **** 	CyBle_Start(ApplicationEventHandler);	
 119              		.loc 1 186 0
 120              		.code	16
 121 0006 064B     		ldr	r3, .L9
 122 0008 181C     		mov	r0, r3
 123 000a FFF7FEFF 		bl	CyBle_Start
 187:.\main.c      **** 	
 188:.\main.c      **** 	/* Load the BD address of peripheral device to which we have to connect */
 189:.\main.c      **** 	LoadPeripheralDeviceData(); 
 124              		.loc 1 189 0
 125 000e FFF7FEFF 		bl	LoadPeripheralDeviceData
 190:.\main.c      **** 	
 191:.\main.c      **** 	/* Start the Button ISR and indicate the ISR routine */
 192:.\main.c      **** 	isr_button_StartEx(MyISR);
 126              		.loc 1 192 0
 127 0012 044B     		ldr	r3, .L9+4
 128 0014 181C     		mov	r0, r3
 129 0016 FFF7FEFF 		bl	isr_button_StartEx
 193:.\main.c      **** }
 130              		.loc 1 193 0
 131 001a BD46     		mov	sp, r7
 132              		@ sp needed
 133 001c 80BD     		pop	{r7, pc}
 134              	.L10:
 135 001e C046     		.align	2
 136              	.L9:
 137 0020 00000000 		.word	ApplicationEventHandler
 138 0024 00000000 		.word	MyISR
 139              		.cfi_endproc
 140              	.LFE36:
 141              		.size	InitializeSystem, .-InitializeSystem
 142              		.text
 143              	.Letext0:
 144              		.file 2 ".\\Generated_Source\\PSoC4/BLE_Stack.h"
 145              		.file 3 ".\\Generated_Source\\PSoC4/cytypes.h"