ARM GAS  C:\Users\Zachary\AppData\Local\Temp\ccECb1Mn.s 			page 1


   1              		.cpu cortex-m0
   2              		.fpu softvfp
   3              		.eabi_attribute 20, 1
   4              		.eabi_attribute 21, 1
   5              		.eabi_attribute 23, 3
   6              		.eabi_attribute 24, 1
   7              		.eabi_attribute 25, 1
   8              		.eabi_attribute 26, 1
   9              		.eabi_attribute 30, 6
  10              		.eabi_attribute 34, 0
  11              		.eabi_attribute 18, 4
  12              		.code	16
  13              		.file	"main.c"
  14              		.text
  15              	.Ltext0:
  16              		.cfi_sections	.debug_frame
  17              		.comm	connectionHandle,2,4
  18              		.section	.text.main,"ax",%progbits
  19              		.align	2
  20              		.global	main
  21              		.code	16
  22              		.thumb_func
  23              		.type	main, %function
  24              	main:
  25              	.LFB35:
  26              		.file 1 ".\\main.c"
   1:.\main.c      **** /*******************************************************************************
   2:.\main.c      **** * File Name: main.c
   3:.\main.c      **** *
   4:.\main.c      **** * Version: 1.0
   5:.\main.c      **** *
   6:.\main.c      **** * Description:
   7:.\main.c      **** *  This is the source code for the PSoC 4 BLE Finde Me Code Example.
   8:.\main.c      **** *
   9:.\main.c      **** * Hardware Dependency:
  10:.\main.c      **** *  CY8CKIT-042 BLE Pioneer Kit
  11:.\main.c      **** *
  12:.\main.c      **** ********************************************************************************
  13:.\main.c      **** * Copyright 2015, Cypress Semiconductor Corporation.  All rights reserved.
  14:.\main.c      **** * You may use this file only in accordance with the license, terms, conditions,
  15:.\main.c      **** * disclaimers, and limitations in the end user license agreement accompanying
  16:.\main.c      **** * the software package with which this file was provided.
  17:.\main.c      **** *******************************************************************************/
  18:.\main.c      **** #include <project.h>
  19:.\main.c      **** 
  20:.\main.c      **** /***************************************
  21:.\main.c      **** *        API Constants
  22:.\main.c      **** ***************************************/
  23:.\main.c      **** #define NO_ALERT           (0u)
  24:.\main.c      **** #define MILD_ALERT         (1u)
  25:.\main.c      **** #define HIGH_ALERT         (2u)
  26:.\main.c      **** 
  27:.\main.c      **** #define NO_ALERT_COMPARE   (0u)
  28:.\main.c      **** #define MILD_ALERT_COMPARE (250u)
  29:.\main.c      **** #define HIGH_ALERT_COMPARE (500u)
  30:.\main.c      **** 
  31:.\main.c      **** #define TRUE  1
ARM GAS  C:\Users\Zachary\AppData\Local\Temp\ccECb1Mn.s 			page 2


  32:.\main.c      **** #define FALSE 0
  33:.\main.c      **** 
  34:.\main.c      **** #define LED_OFF							0x01
  35:.\main.c      **** #define LED_ON							0x00
  36:.\main.c      **** 
  37:.\main.c      **** /***************************************
  38:.\main.c      **** *        Function Prototypes
  39:.\main.c      **** ***************************************/
  40:.\main.c      **** void StackEventHandler(uint32 event, void* eventParam);
  41:.\main.c      **** void IasEventHandler(uint32 event, void* eventParam);
  42:.\main.c      **** void HandleAlertLEDs(uint8 status);
  43:.\main.c      **** 
  44:.\main.c      **** //Connection Handle Value
  45:.\main.c      **** 
  46:.\main.c      **** CYBLE_CONN_HANDLE_T connectionHandle;
  47:.\main.c      **** 
  48:.\main.c      **** 
  49:.\main.c      **** /*******************************************************************************
  50:.\main.c      **** * Function Name: main
  51:.\main.c      **** ********************************************************************************
  52:.\main.c      **** *
  53:.\main.c      **** * Summary:
  54:.\main.c      **** *  Main function.
  55:.\main.c      **** *
  56:.\main.c      **** * Parameters:  
  57:.\main.c      **** *  None
  58:.\main.c      **** *
  59:.\main.c      **** * Return: 
  60:.\main.c      **** *  None
  61:.\main.c      **** *
  62:.\main.c      **** *******************************************************************************/
  63:.\main.c      **** int main()
  64:.\main.c      **** {
  27              		.loc 1 64 0
  28              		.cfi_startproc
  29 0000 80B5     		push	{r7, lr}
  30              		.cfi_def_cfa_offset 8
  31              		.cfi_offset 7, -8
  32              		.cfi_offset 14, -4
  33 0002 00AF     		add	r7, sp, #0
  34              		.cfi_def_cfa_register 7
  65:.\main.c      ****    
  66:.\main.c      ****     //Intialization of Board
  67:.\main.c      ****     CyGlobalIntEnable; 
  35              		.loc 1 67 0
  36              	@ 67 ".\main.c" 1
  37 0004 62B6     		CPSIE   i
  38              	@ 0 "" 2
  68:.\main.c      **** 
  69:.\main.c      ****     /* Start the BLE component and register StackEventHandler function */
  70:.\main.c      ****     CyBle_Start(StackEventHandler);
  39              		.loc 1 70 0
  40              		.code	16
  41 0006 0A4B     		ldr	r3, .L3
  42 0008 181C     		mov	r0, r3
  43 000a FFF7FEFF 		bl	CyBle_Start
  71:.\main.c      ****     
ARM GAS  C:\Users\Zachary\AppData\Local\Temp\ccECb1Mn.s 			page 3


  72:.\main.c      ****     
  73:.\main.c      **** 
  74:.\main.c      ****     /* Register IAS event handler function */
  75:.\main.c      ****     CyBle_IasRegisterAttrCallback(IasEventHandler);
  44              		.loc 1 75 0
  45 000e 094B     		ldr	r3, .L3+4
  46 0010 181C     		mov	r0, r3
  47 0012 FFF7FEFF 		bl	CyBle_IasRegisterAttrCallback
  76:.\main.c      ****     
  77:.\main.c      ****     Pin_R_Write(LED_OFF);
  48              		.loc 1 77 0
  49 0016 0120     		mov	r0, #1
  50 0018 FFF7FEFF 		bl	Pin_R_Write
  78:.\main.c      ****     Pin_G_Write(LED_OFF);
  51              		.loc 1 78 0
  52 001c 0120     		mov	r0, #1
  53 001e FFF7FEFF 		bl	Pin_G_Write
  79:.\main.c      ****     Pin_B_Write(LED_OFF);
  54              		.loc 1 79 0
  55 0022 0120     		mov	r0, #1
  56 0024 FFF7FEFF 		bl	Pin_B_Write
  57              	.L2:
  80:.\main.c      ****     
  81:.\main.c      ****     
  82:.\main.c      ****     for(;;)
  83:.\main.c      ****     {
  84:.\main.c      ****         /* Process all the pending BLE tasks. This single API call to 
  85:.\main.c      ****          * will service all the BLE stack events. This API MUST be called at least once
  86:.\main.c      ****          * in a BLE connection interval */
  87:.\main.c      ****         CyBle_ProcessEvents();
  58              		.loc 1 87 0 discriminator 1
  59 0028 FFF7FEFF 		bl	CyBle_ProcessEvents
  88:.\main.c      ****     }
  60              		.loc 1 88 0 discriminator 1
  61 002c FCE7     		b	.L2
  62              	.L4:
  63 002e C046     		.align	2
  64              	.L3:
  65 0030 00000000 		.word	StackEventHandler
  66 0034 00000000 		.word	IasEventHandler
  67              		.cfi_endproc
  68              	.LFE35:
  69              		.size	main, .-main
  70              		.section	.text.StackEventHandler,"ax",%progbits
  71              		.align	2
  72              		.global	StackEventHandler
  73              		.code	16
  74              		.thumb_func
  75              		.type	StackEventHandler, %function
  76              	StackEventHandler:
  77              	.LFB36:
  89:.\main.c      **** }
  90:.\main.c      **** 
  91:.\main.c      **** /*******************************************************************************
  92:.\main.c      **** * Function Name: StackEventHandler
  93:.\main.c      **** ********************************************************************************
  94:.\main.c      **** *
ARM GAS  C:\Users\Zachary\AppData\Local\Temp\ccECb1Mn.s 			page 4


  95:.\main.c      **** * Summary:
  96:.\main.c      **** *  This is an event callback function to receive events from the BLE Component.
  97:.\main.c      **** *
  98:.\main.c      **** * Parameters:  
  99:.\main.c      **** *  uint8 event:       Event from the CYBLE component
 100:.\main.c      **** *  void* eventParams: A structure instance for corresponding event type. The 
 101:.\main.c      **** *                     list of event structure is described in the component 
 102:.\main.c      **** *                     datasheet.
 103:.\main.c      **** *
 104:.\main.c      **** * Return: 
 105:.\main.c      **** *  None
 106:.\main.c      **** *
 107:.\main.c      **** *******************************************************************************/
 108:.\main.c      **** void StackEventHandler(uint32 event, void *eventParam)
 109:.\main.c      **** {
  78              		.loc 1 109 0
  79              		.cfi_startproc
  80 0000 80B5     		push	{r7, lr}
  81              		.cfi_def_cfa_offset 8
  82              		.cfi_offset 7, -8
  83              		.cfi_offset 14, -4
  84 0002 82B0     		sub	sp, sp, #8
  85              		.cfi_def_cfa_offset 16
  86 0004 00AF     		add	r7, sp, #0
  87              		.cfi_def_cfa_register 7
  88 0006 7860     		str	r0, [r7, #4]
  89 0008 3960     		str	r1, [r7]
 110:.\main.c      ****     switch(event)
  90              		.loc 1 110 0
  91 000a 7B68     		ldr	r3, [r7, #4]
  92 000c 262B     		cmp	r3, #38
  93 000e 1FD0     		beq	.L7
  94 0010 04D8     		bhi	.L8
  95 0012 012B     		cmp	r3, #1
  96 0014 07D0     		beq	.L9
  97 0016 022B     		cmp	r3, #2
  98 0018 12D0     		beq	.L10
 111:.\main.c      ****     {
 112:.\main.c      ****         /* Mandatory events to be handled by Find Me Target design */
 113:.\main.c      ****         case CYBLE_EVT_STACK_ON:
 114:.\main.c      ****         
 115:.\main.c      ****             CyBle_GappStartAdvertisement(CYBLE_ADVERTISING_FAST);
 116:.\main.c      ****             Pin_B_Write(LED_ON);
 117:.\main.c      ****             Pin_R_Write(LED_ON);
 118:.\main.c      ****             Pin_G_Write(LED_ON);
 119:.\main.c      ****             
 120:.\main.c      ****             break;
 121:.\main.c      ****             
 122:.\main.c      ****         case CYBLE_EVT_TIMEOUT:
 123:.\main.c      **** 		/* Timeout has occured */
 124:.\main.c      ****             if(CYBLE_GAP_ADV_MODE_TO == *(uint8 *) eventParam)
 125:.\main.c      ****             {
 126:.\main.c      ****             /* Advertisement timeout has occured - stop advertisement */
 127:.\main.c      ****                 CyBle_GappStopAdvertisement();
 128:.\main.c      ****             }
 129:.\main.c      **** 	        break;
 130:.\main.c      ****             
ARM GAS  C:\Users\Zachary\AppData\Local\Temp\ccECb1Mn.s 			page 5


 131:.\main.c      ****         case CYBLE_EVT_GAPP_ADVERTISEMENT_START_STOP:
 132:.\main.c      **** 		/* Restart Advertisement if the state is disconnected */
 133:.\main.c      **** 		    if(CyBle_GetState() == CYBLE_STATE_DISCONNECTED )
 134:.\main.c      **** 		    {
 135:.\main.c      **** 			    CyBle_GappStartAdvertisement(CYBLE_ADVERTISING_FAST);
 136:.\main.c      ****                 Pin_B_Write(LED_ON);
 137:.\main.c      ****                 Pin_R_Write(LED_ON);
 138:.\main.c      ****                 Pin_G_Write(LED_ON);
 139:.\main.c      **** 		    }
 140:.\main.c      **** 
 141:.\main.c      ****             break;
 142:.\main.c      ****             
 143:.\main.c      ****         case CYBLE_EVT_GAP_DEVICE_DISCONNECTED:
 144:.\main.c      ****             /* ADD_CODE - Start the BLE fast advertisement. */
 145:.\main.c      ****             CyBle_GappStartAdvertisement(CYBLE_ADVERTISING_FAST);
 146:.\main.c      ****             
 147:.\main.c      ****             Pin_B_Write(LED_ON);
 148:.\main.c      ****             Pin_R_Write(LED_ON);
 149:.\main.c      ****             Pin_G_Write(LED_ON);
 150:.\main.c      ****             break;
 151:.\main.c      ****             
 152:.\main.c      ****         case CYBLE_EVT_GATT_CONNECT_IND:
 153:.\main.c      **** 		/* Extract connection handle */
 154:.\main.c      ****         connectionHandle = *(CYBLE_CONN_HANDLE_T *)eventParam;	
 155:.\main.c      **** 		
 156:.\main.c      **** 		/* Start PWM for LED status control */
 157:.\main.c      **** 		
 158:.\main.c      ****         Pin_B_Write(LED_OFF);
 159:.\main.c      ****         Pin_R_Write(LED_OFF);
 160:.\main.c      ****         Pin_G_Write(LED_OFF);
 161:.\main.c      ****         
 162:.\main.c      ****         break;
 163:.\main.c      ****         
 164:.\main.c      ****         default:
 165:.\main.c      ****     	    break;
  99              		.loc 1 165 0
 100 001a 4CE0     		b	.L5
 101              	.L8:
 110:.\main.c      ****     switch(event)
 102              		.loc 1 110 0
 103 001c 282B     		cmp	r3, #40
 104 001e 29D0     		beq	.L11
 105 0020 412B     		cmp	r3, #65
 106 0022 34D0     		beq	.L12
 107              		.loc 1 165 0
 108 0024 47E0     		b	.L5
 109              	.L9:
 115:.\main.c      ****             CyBle_GappStartAdvertisement(CYBLE_ADVERTISING_FAST);
 110              		.loc 1 115 0
 111 0026 0020     		mov	r0, #0
 112 0028 FFF7FEFF 		bl	CyBle_GappStartAdvertisement
 116:.\main.c      ****             Pin_B_Write(LED_ON);
 113              		.loc 1 116 0
 114 002c 0020     		mov	r0, #0
 115 002e FFF7FEFF 		bl	Pin_B_Write
 117:.\main.c      ****             Pin_R_Write(LED_ON);
 116              		.loc 1 117 0
ARM GAS  C:\Users\Zachary\AppData\Local\Temp\ccECb1Mn.s 			page 6


 117 0032 0020     		mov	r0, #0
 118 0034 FFF7FEFF 		bl	Pin_R_Write
 118:.\main.c      ****             Pin_G_Write(LED_ON);
 119              		.loc 1 118 0
 120 0038 0020     		mov	r0, #0
 121 003a FFF7FEFF 		bl	Pin_G_Write
 120:.\main.c      ****             break;
 122              		.loc 1 120 0
 123 003e 3AE0     		b	.L5
 124              	.L10:
 124:.\main.c      ****             if(CYBLE_GAP_ADV_MODE_TO == *(uint8 *) eventParam)
 125              		.loc 1 124 0
 126 0040 3B68     		ldr	r3, [r7]
 127 0042 1B78     		ldrb	r3, [r3]
 128 0044 012B     		cmp	r3, #1
 129 0046 02D1     		bne	.L14
 127:.\main.c      ****                 CyBle_GappStopAdvertisement();
 130              		.loc 1 127 0
 131 0048 FFF7FEFF 		bl	CyBle_GappStopAdvertisement
 129:.\main.c      **** 	        break;
 132              		.loc 1 129 0
 133 004c 33E0     		b	.L5
 134              	.L14:
 135 004e 32E0     		b	.L5
 136              	.L7:
 133:.\main.c      **** 		    if(CyBle_GetState() == CYBLE_STATE_DISCONNECTED )
 137              		.loc 1 133 0
 138 0050 1A4B     		ldr	r3, .L16
 139 0052 1B78     		ldrb	r3, [r3]
 140 0054 042B     		cmp	r3, #4
 141 0056 0CD1     		bne	.L15
 135:.\main.c      **** 			    CyBle_GappStartAdvertisement(CYBLE_ADVERTISING_FAST);
 142              		.loc 1 135 0
 143 0058 0020     		mov	r0, #0
 144 005a FFF7FEFF 		bl	CyBle_GappStartAdvertisement
 136:.\main.c      ****                 Pin_B_Write(LED_ON);
 145              		.loc 1 136 0
 146 005e 0020     		mov	r0, #0
 147 0060 FFF7FEFF 		bl	Pin_B_Write
 137:.\main.c      ****                 Pin_R_Write(LED_ON);
 148              		.loc 1 137 0
 149 0064 0020     		mov	r0, #0
 150 0066 FFF7FEFF 		bl	Pin_R_Write
 138:.\main.c      ****                 Pin_G_Write(LED_ON);
 151              		.loc 1 138 0
 152 006a 0020     		mov	r0, #0
 153 006c FFF7FEFF 		bl	Pin_G_Write
 141:.\main.c      ****             break;
 154              		.loc 1 141 0
 155 0070 21E0     		b	.L5
 156              	.L15:
 157 0072 20E0     		b	.L5
 158              	.L11:
 145:.\main.c      ****             CyBle_GappStartAdvertisement(CYBLE_ADVERTISING_FAST);
 159              		.loc 1 145 0
 160 0074 0020     		mov	r0, #0
 161 0076 FFF7FEFF 		bl	CyBle_GappStartAdvertisement
ARM GAS  C:\Users\Zachary\AppData\Local\Temp\ccECb1Mn.s 			page 7


 147:.\main.c      ****             Pin_B_Write(LED_ON);
 162              		.loc 1 147 0
 163 007a 0020     		mov	r0, #0
 164 007c FFF7FEFF 		bl	Pin_B_Write
 148:.\main.c      ****             Pin_R_Write(LED_ON);
 165              		.loc 1 148 0
 166 0080 0020     		mov	r0, #0
 167 0082 FFF7FEFF 		bl	Pin_R_Write
 149:.\main.c      ****             Pin_G_Write(LED_ON);
 168              		.loc 1 149 0
 169 0086 0020     		mov	r0, #0
 170 0088 FFF7FEFF 		bl	Pin_G_Write
 150:.\main.c      ****             break;
 171              		.loc 1 150 0
 172 008c 13E0     		b	.L5
 173              	.L12:
 154:.\main.c      ****         connectionHandle = *(CYBLE_CONN_HANDLE_T *)eventParam;	
 174              		.loc 1 154 0
 175 008e 0C4A     		ldr	r2, .L16+4
 176 0090 3B68     		ldr	r3, [r7]
 177 0092 111C     		mov	r1, r2
 178 0094 1A1C     		mov	r2, r3
 179 0096 0223     		mov	r3, #2
 180 0098 081C     		mov	r0, r1
 181 009a 111C     		mov	r1, r2
 182 009c 1A1C     		mov	r2, r3
 183 009e FFF7FEFF 		bl	memcpy
 158:.\main.c      ****         Pin_B_Write(LED_OFF);
 184              		.loc 1 158 0
 185 00a2 0120     		mov	r0, #1
 186 00a4 FFF7FEFF 		bl	Pin_B_Write
 159:.\main.c      ****         Pin_R_Write(LED_OFF);
 187              		.loc 1 159 0
 188 00a8 0120     		mov	r0, #1
 189 00aa FFF7FEFF 		bl	Pin_R_Write
 160:.\main.c      ****         Pin_G_Write(LED_OFF);
 190              		.loc 1 160 0
 191 00ae 0120     		mov	r0, #1
 192 00b0 FFF7FEFF 		bl	Pin_G_Write
 162:.\main.c      ****         break;
 193              		.loc 1 162 0
 194 00b4 C046     		mov	r8, r8
 195              	.L5:
 166:.\main.c      ****     }
 167:.\main.c      **** }
 196              		.loc 1 167 0
 197 00b6 BD46     		mov	sp, r7
 198 00b8 02B0     		add	sp, sp, #8
 199              		@ sp needed
 200 00ba 80BD     		pop	{r7, pc}
 201              	.L17:
 202              		.align	2
 203              	.L16:
 204 00bc 00000000 		.word	cyBle_state
 205 00c0 00000000 		.word	connectionHandle
 206              		.cfi_endproc
 207              	.LFE36:
ARM GAS  C:\Users\Zachary\AppData\Local\Temp\ccECb1Mn.s 			page 8


 208              		.size	StackEventHandler, .-StackEventHandler
 209              		.section	.text.IasEventHandler,"ax",%progbits
 210              		.align	2
 211              		.global	IasEventHandler
 212              		.code	16
 213              		.thumb_func
 214              		.type	IasEventHandler, %function
 215              	IasEventHandler:
 216              	.LFB37:
 168:.\main.c      **** 
 169:.\main.c      **** /*******************************************************************************
 170:.\main.c      **** * Function Name: IasEventHandler
 171:.\main.c      **** ********************************************************************************
 172:.\main.c      **** *
 173:.\main.c      **** * Summary:
 174:.\main.c      **** *  This is an event callback function to receive events from the BLE Component,
 175:.\main.c      **** *  which are specific to Immediate Alert Service.
 176:.\main.c      **** *
 177:.\main.c      **** * Parameters:  
 178:.\main.c      **** *  uint8 event:       Write Command event from the CYBLE component.
 179:.\main.c      **** *  void* eventParams: A structure instance of CYBLE_GATT_HANDLE_VALUE_PAIR_T
 180:.\main.c      **** *                     type.
 181:.\main.c      **** *
 182:.\main.c      **** * Return: 
 183:.\main.c      **** *  None
 184:.\main.c      **** *
 185:.\main.c      **** *******************************************************************************/
 186:.\main.c      **** void IasEventHandler(uint32 event, void *eventParam)
 187:.\main.c      **** {
 217              		.loc 1 187 0
 218              		.cfi_startproc
 219 0000 80B5     		push	{r7, lr}
 220              		.cfi_def_cfa_offset 8
 221              		.cfi_offset 7, -8
 222              		.cfi_offset 14, -4
 223 0002 84B0     		sub	sp, sp, #16
 224              		.cfi_def_cfa_offset 24
 225 0004 00AF     		add	r7, sp, #0
 226              		.cfi_def_cfa_register 7
 227 0006 7860     		str	r0, [r7, #4]
 228 0008 3960     		str	r1, [r7]
 188:.\main.c      ****     /* Local variables */
 189:.\main.c      ****     uint8 alertLevel;
 190:.\main.c      ****     CYBLE_IAS_CHAR_VALUE_T *iasWrCmdValueParam;
 191:.\main.c      ****     
 192:.\main.c      ****     if(event == CYBLE_EVT_IASS_WRITE_CHAR_CMD)
 229              		.loc 1 192 0
 230 000a 7A68     		ldr	r2, [r7, #4]
 231 000c C223     		mov	r3, #194
 232 000e 5B00     		lsl	r3, r3, #1
 233 0010 9A42     		cmp	r2, r3
 234 0012 13D1     		bne	.L18
 193:.\main.c      ****     {
 194:.\main.c      ****         /* Check if the event received was for writing Alert level */
 195:.\main.c      ****         iasWrCmdValueParam = (CYBLE_IAS_CHAR_VALUE_T *)eventParam;
 235              		.loc 1 195 0
 236 0014 3B68     		ldr	r3, [r7]
ARM GAS  C:\Users\Zachary\AppData\Local\Temp\ccECb1Mn.s 			page 9


 237 0016 FB60     		str	r3, [r7, #12]
 196:.\main.c      ****             
 197:.\main.c      **** 		/* If size of received attribute is equal to size of Alert level data */
 198:.\main.c      ****         if(CYBLE_IAS_ALERT_LEVEL_SIZE == iasWrCmdValueParam->value->len)
 238              		.loc 1 198 0
 239 0018 FB68     		ldr	r3, [r7, #12]
 240 001a 5B68     		ldr	r3, [r3, #4]
 241 001c 9B88     		ldrh	r3, [r3, #4]
 242 001e 012B     		cmp	r3, #1
 243 0020 0CD1     		bne	.L18
 199:.\main.c      ****         {
 200:.\main.c      **** 			/* Extract the alert level value received from Client device*/
 201:.\main.c      ****             alertLevel = *((iasWrCmdValueParam->value->val));
 244              		.loc 1 201 0
 245 0022 FB68     		ldr	r3, [r7, #12]
 246 0024 5B68     		ldr	r3, [r3, #4]
 247 0026 1A68     		ldr	r2, [r3]
 248 0028 3B1C     		mov	r3, r7
 249 002a 0B33     		add	r3, r3, #11
 250 002c 1278     		ldrb	r2, [r2]
 251 002e 1A70     		strb	r2, [r3]
 202:.\main.c      ****         
 203:.\main.c      ****         /*Based on alert Level level recieved, Drive LED*/
 204:.\main.c      ****         HandleAlertLEDs(alertLevel);
 252              		.loc 1 204 0
 253 0030 3B1C     		mov	r3, r7
 254 0032 0B33     		add	r3, r3, #11
 255 0034 1B78     		ldrb	r3, [r3]
 256 0036 181C     		mov	r0, r3
 257 0038 FFF7FEFF 		bl	HandleAlertLEDs
 258              	.L18:
 205:.\main.c      ****         }
 206:.\main.c      ****         
 207:.\main.c      ****     }
 208:.\main.c      **** }
 259              		.loc 1 208 0
 260 003c BD46     		mov	sp, r7
 261 003e 04B0     		add	sp, sp, #16
 262              		@ sp needed
 263 0040 80BD     		pop	{r7, pc}
 264              		.cfi_endproc
 265              	.LFE37:
 266              		.size	IasEventHandler, .-IasEventHandler
 267 0042 C046     		.section	.text.HandleAlertLEDs,"ax",%progbits
 268              		.align	2
 269              		.global	HandleAlertLEDs
 270              		.code	16
 271              		.thumb_func
 272              		.type	HandleAlertLEDs, %function
 273              	HandleAlertLEDs:
 274              	.LFB38:
 209:.\main.c      **** 
 210:.\main.c      **** /*******************************************************************************
 211:.\main.c      **** * Function Name: HandleAlertLEDs
 212:.\main.c      **** ********************************************************************************
 213:.\main.c      **** *
 214:.\main.c      **** * Summary:
ARM GAS  C:\Users\Zachary\AppData\Local\Temp\ccECb1Mn.s 			page 10


 215:.\main.c      **** *  This function drives the LED based on the alert level
 216:.\main.c      **** *
 217:.\main.c      **** * Parameters:  
 218:.\main.c      **** *  uint8 status:      Alert level 
 219:.\main.c      **** *
 220:.\main.c      **** * Return: 
 221:.\main.c      **** *  None
 222:.\main.c      **** *
 223:.\main.c      **** *******************************************************************************/
 224:.\main.c      **** void HandleAlertLEDs(uint8 status)
 225:.\main.c      **** {
 275              		.loc 1 225 0
 276              		.cfi_startproc
 277 0000 80B5     		push	{r7, lr}
 278              		.cfi_def_cfa_offset 8
 279              		.cfi_offset 7, -8
 280              		.cfi_offset 14, -4
 281 0002 82B0     		sub	sp, sp, #8
 282              		.cfi_def_cfa_offset 16
 283 0004 00AF     		add	r7, sp, #0
 284              		.cfi_def_cfa_register 7
 285 0006 021C     		mov	r2, r0
 286 0008 FB1D     		add	r3, r7, #7
 287 000a 1A70     		strb	r2, [r3]
 226:.\main.c      ****     /* Update Alert LED status based on IAS Alert level characteristic. */
 227:.\main.c      ****     switch(status)
 288              		.loc 1 227 0
 289 000c FB1D     		add	r3, r7, #7
 290 000e 1B78     		ldrb	r3, [r3]
 291 0010 012B     		cmp	r3, #1
 292 0012 0DD0     		beq	.L22
 293 0014 022B     		cmp	r3, #2
 294 0016 15D0     		beq	.L23
 295 0018 002B     		cmp	r3, #0
 296 001a 1DD1     		bne	.L20
 228:.\main.c      ****     {
 229:.\main.c      ****         case NO_ALERT:
 230:.\main.c      ****             Pin_R_Write(LED_ON);
 297              		.loc 1 230 0
 298 001c 0020     		mov	r0, #0
 299 001e FFF7FEFF 		bl	Pin_R_Write
 231:.\main.c      ****             Pin_G_Write(LED_OFF);
 300              		.loc 1 231 0
 301 0022 0120     		mov	r0, #1
 302 0024 FFF7FEFF 		bl	Pin_G_Write
 232:.\main.c      ****             Pin_B_Write(LED_OFF);
 303              		.loc 1 232 0
 304 0028 0120     		mov	r0, #1
 305 002a FFF7FEFF 		bl	Pin_B_Write
 233:.\main.c      ****             break;
 306              		.loc 1 233 0
 307 002e 13E0     		b	.L20
 308              	.L22:
 234:.\main.c      **** 
 235:.\main.c      ****         case MILD_ALERT:
 236:.\main.c      ****             Pin_G_Write(LED_ON);
 309              		.loc 1 236 0
ARM GAS  C:\Users\Zachary\AppData\Local\Temp\ccECb1Mn.s 			page 11


 310 0030 0020     		mov	r0, #0
 311 0032 FFF7FEFF 		bl	Pin_G_Write
 237:.\main.c      ****             Pin_R_Write(LED_OFF);
 312              		.loc 1 237 0
 313 0036 0120     		mov	r0, #1
 314 0038 FFF7FEFF 		bl	Pin_R_Write
 238:.\main.c      ****             Pin_B_Write(LED_OFF);
 315              		.loc 1 238 0
 316 003c 0120     		mov	r0, #1
 317 003e FFF7FEFF 		bl	Pin_B_Write
 239:.\main.c      ****             break;
 318              		.loc 1 239 0
 319 0042 09E0     		b	.L20
 320              	.L23:
 240:.\main.c      ****             
 241:.\main.c      ****         case HIGH_ALERT:
 242:.\main.c      ****             Pin_B_Write(LED_ON);
 321              		.loc 1 242 0
 322 0044 0020     		mov	r0, #0
 323 0046 FFF7FEFF 		bl	Pin_B_Write
 243:.\main.c      ****             Pin_R_Write(LED_OFF);
 324              		.loc 1 243 0
 325 004a 0120     		mov	r0, #1
 326 004c FFF7FEFF 		bl	Pin_R_Write
 244:.\main.c      ****             Pin_G_Write(LED_OFF);
 327              		.loc 1 244 0
 328 0050 0120     		mov	r0, #1
 329 0052 FFF7FEFF 		bl	Pin_G_Write
 245:.\main.c      ****             break;                
 330              		.loc 1 245 0
 331 0056 C046     		mov	r8, r8
 332              	.L20:
 246:.\main.c      ****     }
 247:.\main.c      **** }
 333              		.loc 1 247 0
 334 0058 BD46     		mov	sp, r7
 335 005a 02B0     		add	sp, sp, #8
 336              		@ sp needed
 337 005c 80BD     		pop	{r7, pc}
 338              		.cfi_endproc
 339              	.LFE38:
 340              		.size	HandleAlertLEDs, .-HandleAlertLEDs
 341 005e C046     		.text
 342              	.Letext0:
 343              		.file 2 ".\\Generated_Source\\PSoC4/cytypes.h"
 344              		.file 3 ".\\Generated_Source\\PSoC4/BLE_Stack.h"
 345              		.file 4 ".\\Generated_Source\\PSoC4/BLE_StackHostMain.h"
 346              		.file 5 ".\\Generated_Source\\PSoC4/BLE_StackGatt.h"
 347              		.file 6 ".\\Generated_Source\\PSoC4/BLE_ias.h"
 348              		.file 7 ".\\Generated_Source\\PSoC4/BLE_eventHandler.h"